Archive member included to satisfy reference by file (symbol)

/home/dexheimere/Firmware/build_px4fmu-v2_lpe/px4io-v2/NuttX/nuttx-export/libs/libnuttx.a(sched-irq_attach.o)
                              src/modules/px4iofirmware/CMakeFiles/px4io-v2.dir/__/__/drivers/stm32/drv_hrt.c.obj (irq_attach)
/home/dexheimere/Firmware/build_px4fmu-v2_lpe/px4io-v2/NuttX/nuttx-export/libs/libnuttx.a(sched-irq_initialize.o)
                              /home/dexheimere/Firmware/build_px4fmu-v2_lpe/px4io-v2/NuttX/nuttx-export/libs/libnuttx.a(sched-irq_attach.o) (g_irqvector)
/home/dexheimere/Firmware/build_px4fmu-v2_lpe/px4io-v2/NuttX/nuttx-export/libs/libnuttx.a(sched-irq_unexpectedisr.o)
                              /home/dexheimere/Firmware/build_px4fmu-v2_lpe/px4io-v2/NuttX/nuttx-export/libs/libnuttx.a(sched-irq_attach.o) (irq_unexpected_isr)
/home/dexheimere/Firmware/build_px4fmu-v2_lpe/px4io-v2/NuttX/nuttx-export/libs/libnuttx.a(c-lib_abort.o)
                              (abort)
/home/dexheimere/Firmware/build_px4fmu-v2_lpe/px4io-v2/NuttX/nuttx-export/libs/libnuttx.a(c-lib_cfsetspeed.o)
                              src/modules/px4iofirmware/CMakeFiles/px4io-v2.dir/__/__/lib/rc/sbus.c.obj (cfsetspeed)
/home/dexheimere/Firmware/build_px4fmu-v2_lpe/px4io-v2/NuttX/nuttx-export/libs/libnuttx.a(c-lib_crc32.o)
                              src/modules/px4iofirmware/CMakeFiles/px4io-v2.dir/px4io.c.obj (crc32part)
/home/dexheimere/Firmware/build_px4fmu-v2_lpe/px4io-v2/NuttX/nuttx-export/libs/libnuttx.a(c-lib_dprintf.o)
                              src/modules/px4iofirmware/CMakeFiles/px4io-v2.dir/__/systemlib/perf_counter.c.obj (dprintf)
/home/dexheimere/Firmware/build_px4fmu-v2_lpe/px4io-v2/NuttX/nuttx-export/libs/libnuttx.a(c-lib_lowsyslog.o)
                              src/modules/px4iofirmware/CMakeFiles/px4io-v2.dir/px4io.c.obj (lowsyslog)
/home/dexheimere/Firmware/build_px4fmu-v2_lpe/px4io-v2/NuttX/nuttx-export/libs/libnuttx.a(c-lib_memchr.o)
                              src/modules/px4iofirmware/CMakeFiles/px4io-v2.dir/__/systemlib/mixer/mixer.cpp.obj (memchr)
/home/dexheimere/Firmware/build_px4fmu-v2_lpe/px4io-v2/NuttX/nuttx-export/libs/libnuttx.a(c-lib_memcpy.o)
                              src/modules/px4iofirmware/CMakeFiles/px4io-v2.dir/mixer.cpp.obj (memcpy)
/home/dexheimere/Firmware/build_px4fmu-v2_lpe/px4io-v2/NuttX/nuttx-export/libs/libnuttx.a(c-lib_memset.o)
                              src/modules/px4iofirmware/CMakeFiles/px4io-v2.dir/registers.c.obj (memset)
/home/dexheimere/Firmware/build_px4fmu-v2_lpe/px4io-v2/NuttX/nuttx-export/libs/libnuttx.a(c-lib_printf.o)
                              src/modules/px4iofirmware/CMakeFiles/px4io-v2.dir/__/systemlib/perf_counter.c.obj (printf)
/home/dexheimere/Firmware/build_px4fmu-v2_lpe/px4io-v2/NuttX/nuttx-export/libs/libnuttx.a(c-lib_sscanf.o)
                              src/modules/px4iofirmware/CMakeFiles/px4io-v2.dir/__/systemlib/mixer/mixer_multirotor.cpp.obj (sscanf)
/home/dexheimere/Firmware/build_px4fmu-v2_lpe/px4io-v2/NuttX/nuttx-export/libs/libnuttx.a(c-lib_strchr.o)
                              /home/dexheimere/Firmware/build_px4fmu-v2_lpe/px4io-v2/NuttX/nuttx-export/libs/libnuttx.a(c-lib_sscanf.o) (strchr)
/home/dexheimere/Firmware/build_px4fmu-v2_lpe/px4io-v2/NuttX/nuttx-export/libs/libnuttx.a(c-lib_strcmp.o)
                              src/modules/px4iofirmware/CMakeFiles/px4io-v2.dir/__/systemlib/perf_counter.c.obj (strcmp)
/home/dexheimere/Firmware/build_px4fmu-v2_lpe/px4io-v2/NuttX/nuttx-export/libs/libnuttx.a(c-lib_strcspn.o)
                              /home/dexheimere/Firmware/build_px4fmu-v2_lpe/px4io-v2/NuttX/nuttx-export/libs/libnuttx.a(c-lib_sscanf.o) (strcspn)
/home/dexheimere/Firmware/build_px4fmu-v2_lpe/px4io-v2/NuttX/nuttx-export/libs/libnuttx.a(c-lib_strncpy.o)
                              /home/dexheimere/Firmware/build_px4fmu-v2_lpe/px4io-v2/NuttX/nuttx-export/libs/libnuttx.a(c-lib_sscanf.o) (strncpy)
/home/dexheimere/Firmware/build_px4fmu-v2_lpe/px4io-v2/NuttX/nuttx-export/libs/libnuttx.a(c-lib_strtol.o)
                              /home/dexheimere/Firmware/build_px4fmu-v2_lpe/px4io-v2/NuttX/nuttx-export/libs/libnuttx.a(c-lib_sscanf.o) (strtol)
/home/dexheimere/Firmware/build_px4fmu-v2_lpe/px4io-v2/NuttX/nuttx-export/libs/libnuttx.a(c-lib_strtoul.o)
                              /home/dexheimere/Firmware/build_px4fmu-v2_lpe/px4io-v2/NuttX/nuttx-export/libs/libnuttx.a(c-lib_strtol.o) (strtoul)
/home/dexheimere/Firmware/build_px4fmu-v2_lpe/px4io-v2/NuttX/nuttx-export/libs/libnuttx.a(c-lib_syslog.o)
                              /home/dexheimere/Firmware/build_px4fmu-v2_lpe/px4io-v2/NuttX/nuttx-export/libs/libnuttx.a(c-lib_printf.o) (vsyslog)
/home/dexheimere/Firmware/build_px4fmu-v2_lpe/px4io-v2/NuttX/nuttx-export/libs/libnuttx.a(c-lib_tcgetattr.o)
                              src/modules/px4iofirmware/CMakeFiles/px4io-v2.dir/__/__/lib/rc/sbus.c.obj (tcgetattr)
/home/dexheimere/Firmware/build_px4fmu-v2_lpe/px4io-v2/NuttX/nuttx-export/libs/libnuttx.a(c-lib_tcsetattr.o)
                              src/modules/px4iofirmware/CMakeFiles/px4io-v2.dir/__/__/lib/rc/sbus.c.obj (tcsetattr)
/home/dexheimere/Firmware/build_px4fmu-v2_lpe/px4io-v2/NuttX/nuttx-export/libs/libnuttx.a(c-lib_vdprintf.o)
                              /home/dexheimere/Firmware/build_px4fmu-v2_lpe/px4io-v2/NuttX/nuttx-export/libs/libnuttx.a(c-lib_dprintf.o) (vdprintf)
/home/dexheimere/Firmware/build_px4fmu-v2_lpe/px4io-v2/NuttX/nuttx-export/libs/libnuttx.a(c-lib_vsnprintf.o)
                              src/modules/px4iofirmware/CMakeFiles/px4io-v2.dir/px4io.c.obj (vsnprintf)
/home/dexheimere/Firmware/build_px4fmu-v2_lpe/px4io-v2/NuttX/nuttx-export/libs/libnuttx.a(c-sq_addafter.o)
                              src/modules/px4iofirmware/CMakeFiles/px4io-v2.dir/__/__/drivers/stm32/drv_hrt.c.obj (sq_addafter)
/home/dexheimere/Firmware/build_px4fmu-v2_lpe/px4io-v2/NuttX/nuttx-export/libs/libnuttx.a(c-sq_addfirst.o)
                              src/modules/px4iofirmware/CMakeFiles/px4io-v2.dir/__/systemlib/perf_counter.c.obj (sq_addfirst)
/home/dexheimere/Firmware/build_px4fmu-v2_lpe/px4io-v2/NuttX/nuttx-export/libs/libnuttx.a(c-sq_addlast.o)
                              /home/dexheimere/Firmware/build_px4fmu-v2_lpe/px4io-v2/NuttX/nuttx-export/libs/libnuttx.a(c-sq_addafter.o) (sq_addlast)
/home/dexheimere/Firmware/build_px4fmu-v2_lpe/px4io-v2/NuttX/nuttx-export/libs/libnuttx.a(c-sq_rem.o)
                              src/modules/px4iofirmware/CMakeFiles/px4io-v2.dir/__/systemlib/perf_counter.c.obj (sq_rem)
/home/dexheimere/Firmware/build_px4fmu-v2_lpe/px4io-v2/NuttX/nuttx-export/libs/libnuttx.a(mm-mm_calloc.o)
                              src/modules/px4iofirmware/CMakeFiles/px4io-v2.dir/__/systemlib/perf_counter.c.obj (calloc)
/home/dexheimere/Firmware/build_px4fmu-v2_lpe/px4io-v2/NuttX/nuttx-export/libs/libnuttx.a(mm-mm_free.o)
                              src/modules/px4iofirmware/CMakeFiles/px4io-v2.dir/__/systemlib/perf_counter.c.obj (free)
/home/dexheimere/Firmware/build_px4fmu-v2_lpe/px4io-v2/NuttX/nuttx-export/libs/libnuttx.a(mm-mm_mallinfo.o)
                              src/modules/px4iofirmware/CMakeFiles/px4io-v2.dir/px4io.c.obj (mallinfo)
/home/dexheimere/Firmware/build_px4fmu-v2_lpe/px4io-v2/NuttX/nuttx-export/libs/libnuttx.a(mm-mm_malloc.o)
                              src/modules/px4iofirmware/CMakeFiles/px4io-v2.dir/__/systemlib/mixer/mixer_simple.cpp.obj (malloc)
/home/dexheimere/Firmware/build_px4fmu-v2_lpe/px4io-v2/NuttX/nuttx-export/libs/libnuttx.a(mm-mm_sem.o)
                              /home/dexheimere/Firmware/build_px4fmu-v2_lpe/px4io-v2/NuttX/nuttx-export/libs/libnuttx.a(mm-mm_free.o) (mm_takesemaphore)
/home/dexheimere/Firmware/build_px4fmu-v2_lpe/px4io-v2/NuttX/nuttx-export/libs/libnuttx.a(mm-mm_size2ndx.o)
                              /home/dexheimere/Firmware/build_px4fmu-v2_lpe/px4io-v2/NuttX/nuttx-export/libs/libnuttx.a(mm-mm_malloc.o) (mm_size2ndx)
/home/dexheimere/Firmware/build_px4fmu-v2_lpe/px4io-v2/NuttX/nuttx-export/libs/libnuttx.a(mm-mm_user.o)
                              /home/dexheimere/Firmware/build_px4fmu-v2_lpe/px4io-v2/NuttX/nuttx-export/libs/libnuttx.a(mm-mm_free.o) (g_mmheap)
/home/dexheimere/Firmware/build_px4fmu-v2_lpe/px4io-v2/NuttX/nuttx-export/libs/libnuttx.a(mm-mm_zalloc.o)
                              /home/dexheimere/Firmware/build_px4fmu-v2_lpe/px4io-v2/NuttX/nuttx-export/libs/libnuttx.a(mm-mm_calloc.o) (zalloc)
/home/dexheimere/Firmware/build_px4fmu-v2_lpe/px4io-v2/NuttX/nuttx-export/libs/libnuttx.a(arch-stm32_dma.o)
                              src/modules/px4iofirmware/CMakeFiles/px4io-v2.dir/serial.c.obj (stm32_dmachannel)
/home/dexheimere/Firmware/build_px4fmu-v2_lpe/px4io-v2/NuttX/nuttx-export/libs/libnuttx.a(arch-stm32_gpio.o)
                              src/modules/px4iofirmware/CMakeFiles/px4io-v2.dir/__/__/lib/rc/dsm.c.obj (stm32_configgpio)
/home/dexheimere/Firmware/build_px4fmu-v2_lpe/px4io-v2/NuttX/nuttx-export/libs/libnuttx.a(arch-stm32_irq.o)
                              /home/dexheimere/Firmware/build_px4fmu-v2_lpe/px4io-v2/NuttX/nuttx-export/libs/libnuttx.a(sched-irq_attach.o) (up_disable_irq)
/home/dexheimere/Firmware/build_px4fmu-v2_lpe/px4io-v2/NuttX/nuttx-export/libs/libnuttx.a(arch-stm32_serial.o)
                              src/modules/px4iofirmware/CMakeFiles/px4io-v2.dir/px4io.c.obj (stm32_serial_dma_poll)
/home/dexheimere/Firmware/build_px4fmu-v2_lpe/px4io-v2/NuttX/nuttx-export/libs/libnuttx.a(arch-stm32_start.o)
                              (__start)
/home/dexheimere/Firmware/build_px4fmu-v2_lpe/px4io-v2/NuttX/nuttx-export/libs/libnuttx.a(arch-up_assert.o)
                              /home/dexheimere/Firmware/build_px4fmu-v2_lpe/px4io-v2/NuttX/nuttx-export/libs/libnuttx.a(sched-irq_unexpectedisr.o) (up_assert)
/home/dexheimere/Firmware/build_px4fmu-v2_lpe/px4io-v2/NuttX/nuttx-export/libs/libnuttx.a(arch-up_hardfault.o)
                              /home/dexheimere/Firmware/build_px4fmu-v2_lpe/px4io-v2/NuttX/nuttx-export/libs/libnuttx.a(arch-stm32_irq.o) (up_hardfault)
/home/dexheimere/Firmware/build_px4fmu-v2_lpe/px4io-v2/NuttX/nuttx-export/libs/libnuttx.a(arch-up_modifyreg32.o)
                              src/modules/px4iofirmware/CMakeFiles/px4io-v2.dir/__/__/drivers/stm32/drv_hrt.c.obj (modifyreg32)
/home/dexheimere/Firmware/build_px4fmu-v2_lpe/px4io-v2/NuttX/nuttx-export/libs/libnuttx.a(arch-up_svcall.o)
                              /home/dexheimere/Firmware/build_px4fmu-v2_lpe/px4io-v2/NuttX/nuttx-export/libs/libnuttx.a(arch-stm32_irq.o) (up_svcall)
/home/dexheimere/Firmware/build_px4fmu-v2_lpe/px4io-v2/NuttX/nuttx-export/libs/libnuttx.a(arch-up_systemreset.o)
                              src/modules/px4iofirmware/CMakeFiles/px4io-v2.dir/px4io.c.obj (up_systemreset)
/home/dexheimere/Firmware/build_px4fmu-v2_lpe/px4io-v2/NuttX/nuttx-export/libs/libnuttx.a(arch-up_udelay.o)
                              src/modules/px4iofirmware/CMakeFiles/px4io-v2.dir/adc.c.obj (up_udelay)
/home/dexheimere/Firmware/build_px4fmu-v2_lpe/px4io-v2/NuttX/nuttx-export/libs/libnuttx.a(arch-up_vectors.o)
                              (_vectors)
/home/dexheimere/Firmware/build_px4fmu-v2_lpe/px4io-v2/NuttX/nuttx-export/libs/libnuttx.a(cxx-libxx_cxa_atexit.o)
                              src/modules/px4iofirmware/CMakeFiles/px4io-v2.dir/mixer.cpp.obj (__dso_handle)
/home/dexheimere/Firmware/build_px4fmu-v2_lpe/px4io-v2/NuttX/nuttx-export/libs/libnuttx.a(cxx-libxx_cxapurevirtual.o)
                              src/modules/px4iofirmware/CMakeFiles/px4io-v2.dir/__/systemlib/mixer/mixer.cpp.obj (__cxa_pure_virtual)
/home/dexheimere/Firmware/build_px4fmu-v2_lpe/px4io-v2/NuttX/nuttx-export/libs/libnuttx.a(cxx-libxx_delete.o)
                              src/modules/px4iofirmware/CMakeFiles/px4io-v2.dir/__/systemlib/mixer/mixer.cpp.obj (operator delete(void*))
/home/dexheimere/Firmware/build_px4fmu-v2_lpe/px4io-v2/NuttX/nuttx-export/libs/libnuttx.a(cxx-libxx_eabi_atexit.o)
                              src/modules/px4iofirmware/CMakeFiles/px4io-v2.dir/mixer.cpp.obj (__aeabi_atexit)
/home/dexheimere/Firmware/build_px4fmu-v2_lpe/px4io-v2/NuttX/nuttx-export/libs/libnuttx.a(cxx-libxx_new.o)
                              src/modules/px4iofirmware/CMakeFiles/px4io-v2.dir/__/systemlib/mixer/mixer.cpp.obj (operator new(unsigned int))
/home/dexheimere/Firmware/build_px4fmu-v2_lpe/px4io-v2/NuttX/nuttx-export/libs/libnuttx.a(fs-fs_ioctl.o)
                              src/modules/px4iofirmware/CMakeFiles/px4io-v2.dir/__/__/lib/rc/sbus.c.obj (ioctl)
/home/dexheimere/Firmware/build_px4fmu-v2_lpe/px4io-v2/NuttX/nuttx-export/libs/libnuttx.a(fs-fs_open.o)
                              src/modules/px4iofirmware/CMakeFiles/px4io-v2.dir/__/__/lib/rc/sbus.c.obj (open)
/home/dexheimere/Firmware/build_px4fmu-v2_lpe/px4io-v2/NuttX/nuttx-export/libs/libnuttx.a(fs-fs_read.o)
                              src/modules/px4iofirmware/CMakeFiles/px4io-v2.dir/__/__/lib/rc/sbus.c.obj (read)
/home/dexheimere/Firmware/build_px4fmu-v2_lpe/px4io-v2/NuttX/nuttx-export/libs/libnuttx.a(fs-fs_write.o)
                              src/modules/px4iofirmware/CMakeFiles/px4io-v2.dir/__/__/lib/rc/sbus.c.obj (write)
/home/dexheimere/Firmware/build_px4fmu-v2_lpe/px4io-v2/NuttX/nuttx-export/libs/libnuttx.a(drivers-serialirq.o)
                              /home/dexheimere/Firmware/build_px4fmu-v2_lpe/px4io-v2/NuttX/nuttx-export/libs/libnuttx.a(arch-stm32_serial.o) (uart_xmitchars)
/home/dexheimere/Firmware/build_px4fmu-v2_lpe/px4io-v2/NuttX/nuttx-export/libs/libnuttx.a(drivers-serial.o)
                              /home/dexheimere/Firmware/build_px4fmu-v2_lpe/px4io-v2/NuttX/nuttx-export/libs/libnuttx.a(arch-stm32_serial.o) (uart_register)
/home/dexheimere/Firmware/build_px4fmu-v2_lpe/px4io-v2/NuttX/nuttx-export/libs/libnuttx.a(sched-errno_getptr.o)
                              /home/dexheimere/Firmware/build_px4fmu-v2_lpe/px4io-v2/NuttX/nuttx-export/libs/libnuttx.a(mm-mm_sem.o) (get_errno_ptr)
/home/dexheimere/Firmware/build_px4fmu-v2_lpe/px4io-v2/NuttX/nuttx-export/libs/libnuttx.a(sched-exit.o)
                              /home/dexheimere/Firmware/build_px4fmu-v2_lpe/px4io-v2/NuttX/nuttx-export/libs/libnuttx.a(c-lib_abort.o) (exit)
/home/dexheimere/Firmware/build_px4fmu-v2_lpe/px4io-v2/NuttX/nuttx-export/libs/libnuttx.a(sched-getpid.o)
                              /home/dexheimere/Firmware/build_px4fmu-v2_lpe/px4io-v2/NuttX/nuttx-export/libs/libnuttx.a(mm-mm_sem.o) (getpid)
/home/dexheimere/Firmware/build_px4fmu-v2_lpe/px4io-v2/NuttX/nuttx-export/libs/libnuttx.a(sched-os_start.o)
                              /home/dexheimere/Firmware/build_px4fmu-v2_lpe/px4io-v2/NuttX/nuttx-export/libs/libnuttx.a(arch-stm32_start.o) (os_start)
/home/dexheimere/Firmware/build_px4fmu-v2_lpe/px4io-v2/NuttX/nuttx-export/libs/libnuttx.a(sched-sched_garbage.o)
                              /home/dexheimere/Firmware/build_px4fmu-v2_lpe/px4io-v2/NuttX/nuttx-export/libs/libnuttx.a(sched-os_start.o) (sched_garbagecollection)
/home/dexheimere/Firmware/build_px4fmu-v2_lpe/px4io-v2/NuttX/nuttx-export/libs/libnuttx.a(sched-sched_getfiles.o)
                              /home/dexheimere/Firmware/build_px4fmu-v2_lpe/px4io-v2/NuttX/nuttx-export/libs/libnuttx.a(fs-fs_ioctl.o) (sched_getfiles)
/home/dexheimere/Firmware/build_px4fmu-v2_lpe/px4io-v2/NuttX/nuttx-export/libs/libnuttx.a(sched-sem_post.o)
                              /home/dexheimere/Firmware/build_px4fmu-v2_lpe/px4io-v2/NuttX/nuttx-export/libs/libnuttx.a(mm-mm_sem.o) (sem_post)
/home/dexheimere/Firmware/build_px4fmu-v2_lpe/px4io-v2/NuttX/nuttx-export/libs/libnuttx.a(sched-sem_trywait.o)
                              /home/dexheimere/Firmware/build_px4fmu-v2_lpe/px4io-v2/NuttX/nuttx-export/libs/libnuttx.a(mm-mm_sem.o) (sem_trywait)
/home/dexheimere/Firmware/build_px4fmu-v2_lpe/px4io-v2/NuttX/nuttx-export/libs/libnuttx.a(sched-sem_wait.o)
                              /home/dexheimere/Firmware/build_px4fmu-v2_lpe/px4io-v2/NuttX/nuttx-export/libs/libnuttx.a(mm-mm_sem.o) (sem_wait)
/home/dexheimere/Firmware/build_px4fmu-v2_lpe/px4io-v2/NuttX/nuttx-export/libs/libnuttx.a(sched-task_exithook.o)
                              /home/dexheimere/Firmware/build_px4fmu-v2_lpe/px4io-v2/NuttX/nuttx-export/libs/libnuttx.a(sched-exit.o) (task_exithook)
/home/dexheimere/Firmware/build_px4fmu-v2_lpe/px4io-v2/NuttX/nuttx-export/libs/libnuttx.a(sched-task_recover.o)
                              /home/dexheimere/Firmware/build_px4fmu-v2_lpe/px4io-v2/NuttX/nuttx-export/libs/libnuttx.a(sched-task_exithook.o) (task_recover)
/home/dexheimere/Firmware/build_px4fmu-v2_lpe/px4io-v2/NuttX/nuttx-export/libs/libnuttx.a(sched-wd_cancel.o)
                              /home/dexheimere/Firmware/build_px4fmu-v2_lpe/px4io-v2/NuttX/nuttx-export/libs/libnuttx.a(sched-task_recover.o) (wd_cancel)
/home/dexheimere/Firmware/build_px4fmu-v2_lpe/px4io-v2/NuttX/nuttx-export/libs/libnuttx.a(sched-wd_delete.o)
                              /home/dexheimere/Firmware/build_px4fmu-v2_lpe/px4io-v2/NuttX/nuttx-export/libs/libnuttx.a(sched-task_recover.o) (wd_delete)
/home/dexheimere/Firmware/build_px4fmu-v2_lpe/px4io-v2/NuttX/nuttx-export/libs/libnuttx.a(sched-wd_initialize.o)
                              /home/dexheimere/Firmware/build_px4fmu-v2_lpe/px4io-v2/NuttX/nuttx-export/libs/libnuttx.a(sched-wd_cancel.o) (g_wdactivelist)
/home/dexheimere/Firmware/build_px4fmu-v2_lpe/px4io-v2/NuttX/nuttx-export/libs/libnuttx.a(c-dq_addfirst.o)
                              /home/dexheimere/Firmware/build_px4fmu-v2_lpe/px4io-v2/NuttX/nuttx-export/libs/libnuttx.a(sched-os_start.o) (dq_addfirst)
/home/dexheimere/Firmware/build_px4fmu-v2_lpe/px4io-v2/NuttX/nuttx-export/libs/libnuttx.a(c-lib_cfgetspeed.o)
                              /home/dexheimere/Firmware/build_px4fmu-v2_lpe/px4io-v2/NuttX/nuttx-export/libs/libnuttx.a(arch-stm32_serial.o) (cfgetspeed)
/home/dexheimere/Firmware/build_px4fmu-v2_lpe/px4io-v2/NuttX/nuttx-export/libs/libnuttx.a(c-lib_checkbase.o)
                              /home/dexheimere/Firmware/build_px4fmu-v2_lpe/px4io-v2/NuttX/nuttx-export/libs/libnuttx.a(c-lib_strtoul.o) (lib_checkbase)
/home/dexheimere/Firmware/build_px4fmu-v2_lpe/px4io-v2/NuttX/nuttx-export/libs/libnuttx.a(c-lib_isbasedigit.o)
                              /home/dexheimere/Firmware/build_px4fmu-v2_lpe/px4io-v2/NuttX/nuttx-export/libs/libnuttx.a(c-lib_strtoul.o) (lib_isbasedigit)
/home/dexheimere/Firmware/build_px4fmu-v2_lpe/px4io-v2/NuttX/nuttx-export/libs/libnuttx.a(c-lib_libvsprintf.o)
                              /home/dexheimere/Firmware/build_px4fmu-v2_lpe/px4io-v2/NuttX/nuttx-export/libs/libnuttx.a(c-lib_lowsyslog.o) (lib_vsprintf)
/home/dexheimere/Firmware/build_px4fmu-v2_lpe/px4io-v2/NuttX/nuttx-export/libs/libnuttx.a(c-lib_lowoutstream.o)
                              /home/dexheimere/Firmware/build_px4fmu-v2_lpe/px4io-v2/NuttX/nuttx-export/libs/libnuttx.a(c-lib_lowsyslog.o) (lib_lowoutstream)
/home/dexheimere/Firmware/build_px4fmu-v2_lpe/px4io-v2/NuttX/nuttx-export/libs/libnuttx.a(c-lib_memoutstream.o)
                              /home/dexheimere/Firmware/build_px4fmu-v2_lpe/px4io-v2/NuttX/nuttx-export/libs/libnuttx.a(c-lib_vsnprintf.o) (lib_memoutstream)
/home/dexheimere/Firmware/build_px4fmu-v2_lpe/px4io-v2/NuttX/nuttx-export/libs/libnuttx.a(c-lib_nulloutstream.o)
                              /home/dexheimere/Firmware/build_px4fmu-v2_lpe/px4io-v2/NuttX/nuttx-export/libs/libnuttx.a(c-lib_libvsprintf.o) (lib_nulloutstream)
/home/dexheimere/Firmware/build_px4fmu-v2_lpe/px4io-v2/NuttX/nuttx-export/libs/libnuttx.a(c-lib_rawoutstream.o)
                              /home/dexheimere/Firmware/build_px4fmu-v2_lpe/px4io-v2/NuttX/nuttx-export/libs/libnuttx.a(c-lib_syslog.o) (lib_rawoutstream)
/home/dexheimere/Firmware/build_px4fmu-v2_lpe/px4io-v2/NuttX/nuttx-export/libs/libnuttx.a(c-lib_skipspace.o)
                              /home/dexheimere/Firmware/build_px4fmu-v2_lpe/px4io-v2/NuttX/nuttx-export/libs/libnuttx.a(c-lib_strtol.o) (lib_skipspace)
/home/dexheimere/Firmware/build_px4fmu-v2_lpe/px4io-v2/NuttX/nuttx-export/libs/libnuttx.a(c-lib_strcpy.o)
                              /home/dexheimere/Firmware/build_px4fmu-v2_lpe/px4io-v2/NuttX/nuttx-export/libs/libnuttx.a(arch-stm32_serial.o) (strcpy)
/home/dexheimere/Firmware/build_px4fmu-v2_lpe/px4io-v2/NuttX/nuttx-export/libs/libnuttx.a(c-lib_strlen.o)
                              /home/dexheimere/Firmware/build_px4fmu-v2_lpe/px4io-v2/NuttX/nuttx-export/libs/libnuttx.a(c-lib_libvsprintf.o) (strlen)
/home/dexheimere/Firmware/build_px4fmu-v2_lpe/px4io-v2/NuttX/nuttx-export/libs/libnuttx.a(c-sem_init.o)
                              /home/dexheimere/Firmware/build_px4fmu-v2_lpe/px4io-v2/NuttX/nuttx-export/libs/libnuttx.a(mm-mm_sem.o) (sem_init)
/home/dexheimere/Firmware/build_px4fmu-v2_lpe/px4io-v2/NuttX/nuttx-export/libs/libnuttx.a(c-sq_remafter.o)
                              /home/dexheimere/Firmware/build_px4fmu-v2_lpe/px4io-v2/NuttX/nuttx-export/libs/libnuttx.a(c-sq_rem.o) (sq_remafter)
/home/dexheimere/Firmware/build_px4fmu-v2_lpe/px4io-v2/NuttX/nuttx-export/libs/libnuttx.a(c-sq_remfirst.o)
                              /home/dexheimere/Firmware/build_px4fmu-v2_lpe/px4io-v2/NuttX/nuttx-export/libs/libnuttx.a(sched-sched_garbage.o) (sq_remfirst)
/home/dexheimere/Firmware/build_px4fmu-v2_lpe/px4io-v2/NuttX/nuttx-export/libs/libnuttx.a(mm-mm_addfreechunk.o)
                              /home/dexheimere/Firmware/build_px4fmu-v2_lpe/px4io-v2/NuttX/nuttx-export/libs/libnuttx.a(mm-mm_free.o) (mm_addfreechunk)
/home/dexheimere/Firmware/build_px4fmu-v2_lpe/px4io-v2/NuttX/nuttx-export/libs/libnuttx.a(mm-mm_initialize.o)
                              /home/dexheimere/Firmware/build_px4fmu-v2_lpe/px4io-v2/NuttX/nuttx-export/libs/libnuttx.a(mm-mm_user.o) (mm_addregion)
/home/dexheimere/Firmware/build_px4fmu-v2_lpe/px4io-v2/NuttX/nuttx-export/libs/libnuttx.a(arch-stm32_allocateheap.o)
                              /home/dexheimere/Firmware/build_px4fmu-v2_lpe/px4io-v2/NuttX/nuttx-export/libs/libnuttx.a(sched-os_start.o) (up_allocate_heap)
/home/dexheimere/Firmware/build_px4fmu-v2_lpe/px4io-v2/NuttX/nuttx-export/libs/libnuttx.a(arch-stm32_idle.o)
                              /home/dexheimere/Firmware/build_px4fmu-v2_lpe/px4io-v2/NuttX/nuttx-export/libs/libnuttx.a(sched-os_start.o) (up_idle)
/home/dexheimere/Firmware/build_px4fmu-v2_lpe/px4io-v2/NuttX/nuttx-export/libs/libnuttx.a(arch-stm32_lowputc.o)
                              /home/dexheimere/Firmware/build_px4fmu-v2_lpe/px4io-v2/NuttX/nuttx-export/libs/libnuttx.a(arch-stm32_serial.o) (up_lowputc)
/home/dexheimere/Firmware/build_px4fmu-v2_lpe/px4io-v2/NuttX/nuttx-export/libs/libnuttx.a(arch-stm32_rcc.o)
                              /home/dexheimere/Firmware/build_px4fmu-v2_lpe/px4io-v2/NuttX/nuttx-export/libs/libnuttx.a(arch-stm32_start.o) (stm32_clockconfig)
/home/dexheimere/Firmware/build_px4fmu-v2_lpe/px4io-v2/NuttX/nuttx-export/libs/libnuttx.a(arch-stm32_vectors.o)
                              /home/dexheimere/Firmware/build_px4fmu-v2_lpe/px4io-v2/NuttX/nuttx-export/libs/libnuttx.a(arch-up_assert.o) (g_idle_topstack)
/home/dexheimere/Firmware/build_px4fmu-v2_lpe/px4io-v2/NuttX/nuttx-export/libs/libnuttx.a(arch-up_blocktask.o)
                              /home/dexheimere/Firmware/build_px4fmu-v2_lpe/px4io-v2/NuttX/nuttx-export/libs/libnuttx.a(sched-sem_wait.o) (up_block_task)
/home/dexheimere/Firmware/build_px4fmu-v2_lpe/px4io-v2/NuttX/nuttx-export/libs/libnuttx.a(arch-up_copystate.o)
                              /home/dexheimere/Firmware/build_px4fmu-v2_lpe/px4io-v2/NuttX/nuttx-export/libs/libnuttx.a(arch-up_blocktask.o) (up_copystate)
/home/dexheimere/Firmware/build_px4fmu-v2_lpe/px4io-v2/NuttX/nuttx-export/libs/libnuttx.a(arch-up_exception.o)
                              /home/dexheimere/Firmware/build_px4fmu-v2_lpe/px4io-v2/NuttX/nuttx-export/libs/libnuttx.a(arch-up_vectors.o) (exception_common)
/home/dexheimere/Firmware/build_px4fmu-v2_lpe/px4io-v2/NuttX/nuttx-export/libs/libnuttx.a(arch-up_exit.o)
                              /home/dexheimere/Firmware/build_px4fmu-v2_lpe/px4io-v2/NuttX/nuttx-export/libs/libnuttx.a(sched-exit.o) (_exit)
/home/dexheimere/Firmware/build_px4fmu-v2_lpe/px4io-v2/NuttX/nuttx-export/libs/libnuttx.a(arch-up_fullcontextrestore.o)
                              /home/dexheimere/Firmware/build_px4fmu-v2_lpe/px4io-v2/NuttX/nuttx-export/libs/libnuttx.a(arch-up_exit.o) (up_fullcontextrestore)
/home/dexheimere/Firmware/build_px4fmu-v2_lpe/px4io-v2/NuttX/nuttx-export/libs/libnuttx.a(arch-up_initialize.o)
                              /home/dexheimere/Firmware/build_px4fmu-v2_lpe/px4io-v2/NuttX/nuttx-export/libs/libnuttx.a(sched-os_start.o) (up_initialize)
/home/dexheimere/Firmware/build_px4fmu-v2_lpe/px4io-v2/NuttX/nuttx-export/libs/libnuttx.a(arch-up_initialstate.o)
                              /home/dexheimere/Firmware/build_px4fmu-v2_lpe/px4io-v2/NuttX/nuttx-export/libs/libnuttx.a(sched-os_start.o) (up_initial_state)
/home/dexheimere/Firmware/build_px4fmu-v2_lpe/px4io-v2/NuttX/nuttx-export/libs/libnuttx.a(arch-up_interruptcontext.o)
                              /home/dexheimere/Firmware/build_px4fmu-v2_lpe/px4io-v2/NuttX/nuttx-export/libs/libnuttx.a(drivers-serial.o) (up_interrupt_context)
/home/dexheimere/Firmware/build_px4fmu-v2_lpe/px4io-v2/NuttX/nuttx-export/libs/libnuttx.a(arch-up_mdelay.o)
                              /home/dexheimere/Firmware/build_px4fmu-v2_lpe/px4io-v2/NuttX/nuttx-export/libs/libnuttx.a(drivers-serial.o) (up_mdelay)
/home/dexheimere/Firmware/build_px4fmu-v2_lpe/px4io-v2/NuttX/nuttx-export/libs/libnuttx.a(arch-up_switchcontext.o)
                              /home/dexheimere/Firmware/build_px4fmu-v2_lpe/px4io-v2/NuttX/nuttx-export/libs/libnuttx.a(arch-up_blocktask.o) (up_switchcontext)
/home/dexheimere/Firmware/build_px4fmu-v2_lpe/px4io-v2/NuttX/nuttx-export/libs/libnuttx.a(arch-up_unblocktask.o)
                              /home/dexheimere/Firmware/build_px4fmu-v2_lpe/px4io-v2/NuttX/nuttx-export/libs/libnuttx.a(sched-sem_post.o) (up_unblock_task)
/home/dexheimere/Firmware/build_px4fmu-v2_lpe/px4io-v2/NuttX/nuttx-export/libs/libnuttx.a(fs-fs_files.o)
                              /home/dexheimere/Firmware/build_px4fmu-v2_lpe/px4io-v2/NuttX/nuttx-export/libs/libnuttx.a(fs-fs_open.o) (files_allocate)
/home/dexheimere/Firmware/build_px4fmu-v2_lpe/px4io-v2/NuttX/nuttx-export/libs/libnuttx.a(fs-fs_inodeaddref.o)
                              /home/dexheimere/Firmware/build_px4fmu-v2_lpe/px4io-v2/NuttX/nuttx-export/libs/libnuttx.a(fs-fs_files.o) (inode_addref)
/home/dexheimere/Firmware/build_px4fmu-v2_lpe/px4io-v2/NuttX/nuttx-export/libs/libnuttx.a(fs-fs_inodefind.o)
                              /home/dexheimere/Firmware/build_px4fmu-v2_lpe/px4io-v2/NuttX/nuttx-export/libs/libnuttx.a(fs-fs_open.o) (inode_find)
/home/dexheimere/Firmware/build_px4fmu-v2_lpe/px4io-v2/NuttX/nuttx-export/libs/libnuttx.a(fs-fs_inode.o)
                              /home/dexheimere/Firmware/build_px4fmu-v2_lpe/px4io-v2/NuttX/nuttx-export/libs/libnuttx.a(fs-fs_inodeaddref.o) (inode_semtake)
/home/dexheimere/Firmware/build_px4fmu-v2_lpe/px4io-v2/NuttX/nuttx-export/libs/libnuttx.a(fs-fs_inoderelease.o)
                              /home/dexheimere/Firmware/build_px4fmu-v2_lpe/px4io-v2/NuttX/nuttx-export/libs/libnuttx.a(fs-fs_open.o) (inode_release)
/home/dexheimere/Firmware/build_px4fmu-v2_lpe/px4io-v2/NuttX/nuttx-export/libs/libnuttx.a(fs-fs_registerdriver.o)
                              /home/dexheimere/Firmware/build_px4fmu-v2_lpe/px4io-v2/NuttX/nuttx-export/libs/libnuttx.a(drivers-serial.o) (register_driver)
/home/dexheimere/Firmware/build_px4fmu-v2_lpe/px4io-v2/NuttX/nuttx-export/libs/libnuttx.a(sched-group_create.o)
                              /home/dexheimere/Firmware/build_px4fmu-v2_lpe/px4io-v2/NuttX/nuttx-export/libs/libnuttx.a(sched-os_start.o) (group_allocate)
/home/dexheimere/Firmware/build_px4fmu-v2_lpe/px4io-v2/NuttX/nuttx-export/libs/libnuttx.a(sched-group_leave.o)
                              /home/dexheimere/Firmware/build_px4fmu-v2_lpe/px4io-v2/NuttX/nuttx-export/libs/libnuttx.a(sched-task_exithook.o) (group_leave)
/home/dexheimere/Firmware/build_px4fmu-v2_lpe/px4io-v2/NuttX/nuttx-export/libs/libnuttx.a(sched-group_setupidlefiles.o)
                              /home/dexheimere/Firmware/build_px4fmu-v2_lpe/px4io-v2/NuttX/nuttx-export/libs/libnuttx.a(sched-os_start.o) (group_setupidlefiles)
/home/dexheimere/Firmware/build_px4fmu-v2_lpe/px4io-v2/NuttX/nuttx-export/libs/libnuttx.a(sched-os_bringup.o)
                              /home/dexheimere/Firmware/build_px4fmu-v2_lpe/px4io-v2/NuttX/nuttx-export/libs/libnuttx.a(sched-os_start.o) (os_bringup)
/home/dexheimere/Firmware/build_px4fmu-v2_lpe/px4io-v2/NuttX/nuttx-export/libs/libnuttx.a(sched-sched_addblocked.o)
                              /home/dexheimere/Firmware/build_px4fmu-v2_lpe/px4io-v2/NuttX/nuttx-export/libs/libnuttx.a(arch-up_blocktask.o) (sched_addblocked)
/home/dexheimere/Firmware/build_px4fmu-v2_lpe/px4io-v2/NuttX/nuttx-export/libs/libnuttx.a(sched-sched_addprioritized.o)
                              /home/dexheimere/Firmware/build_px4fmu-v2_lpe/px4io-v2/NuttX/nuttx-export/libs/libnuttx.a(sched-sched_addblocked.o) (sched_addprioritized)
/home/dexheimere/Firmware/build_px4fmu-v2_lpe/px4io-v2/NuttX/nuttx-export/libs/libnuttx.a(sched-sched_addreadytorun.o)
                              /home/dexheimere/Firmware/build_px4fmu-v2_lpe/px4io-v2/NuttX/nuttx-export/libs/libnuttx.a(arch-up_unblocktask.o) (sched_addreadytorun)
/home/dexheimere/Firmware/build_px4fmu-v2_lpe/px4io-v2/NuttX/nuttx-export/libs/libnuttx.a(sched-sched_free.o)
                              /home/dexheimere/Firmware/build_px4fmu-v2_lpe/px4io-v2/NuttX/nuttx-export/libs/libnuttx.a(sched-group_leave.o) (sched_ufree)
/home/dexheimere/Firmware/build_px4fmu-v2_lpe/px4io-v2/NuttX/nuttx-export/libs/libnuttx.a(sched-sched_mergepending.o)
                              /home/dexheimere/Firmware/build_px4fmu-v2_lpe/px4io-v2/NuttX/nuttx-export/libs/libnuttx.a(arch-up_blocktask.o) (sched_mergepending)
/home/dexheimere/Firmware/build_px4fmu-v2_lpe/px4io-v2/NuttX/nuttx-export/libs/libnuttx.a(sched-sched_removeblocked.o)
                              /home/dexheimere/Firmware/build_px4fmu-v2_lpe/px4io-v2/NuttX/nuttx-export/libs/libnuttx.a(arch-up_unblocktask.o) (sched_removeblocked)
/home/dexheimere/Firmware/build_px4fmu-v2_lpe/px4io-v2/NuttX/nuttx-export/libs/libnuttx.a(sched-sched_removereadytorun.o)
                              /home/dexheimere/Firmware/build_px4fmu-v2_lpe/px4io-v2/NuttX/nuttx-export/libs/libnuttx.a(arch-up_blocktask.o) (sched_removereadytorun)
/home/dexheimere/Firmware/build_px4fmu-v2_lpe/px4io-v2/NuttX/nuttx-export/libs/libnuttx.a(sched-sem_destroy.o)
                              /home/dexheimere/Firmware/build_px4fmu-v2_lpe/px4io-v2/NuttX/nuttx-export/libs/libnuttx.a(fs-fs_files.o) (sem_destroy)
/home/dexheimere/Firmware/build_px4fmu-v2_lpe/px4io-v2/NuttX/nuttx-export/libs/libnuttx.a(sched-task_create.o)
                              /home/dexheimere/Firmware/build_px4fmu-v2_lpe/px4io-v2/NuttX/nuttx-export/libs/libnuttx.a(sched-os_bringup.o) (task_create)
/home/dexheimere/Firmware/build_px4fmu-v2_lpe/px4io-v2/NuttX/nuttx-export/libs/libnuttx.a(sched-task_exit.o)
                              /home/dexheimere/Firmware/build_px4fmu-v2_lpe/px4io-v2/NuttX/nuttx-export/libs/libnuttx.a(arch-up_exit.o) (task_exit)
/home/dexheimere/Firmware/build_px4fmu-v2_lpe/px4io-v2/NuttX/nuttx-export/libs/libnuttx.a(sched-task_setup.o)
                              /home/dexheimere/Firmware/build_px4fmu-v2_lpe/px4io-v2/NuttX/nuttx-export/libs/libnuttx.a(sched-task_create.o) (task_schedsetup)
/home/dexheimere/Firmware/build_px4fmu-v2_lpe/px4io-v2/NuttX/nuttx-export/libs/libnuttx.a(sched-task_start.o)
                              /home/dexheimere/Firmware/build_px4fmu-v2_lpe/px4io-v2/NuttX/nuttx-export/libs/libnuttx.a(sched-task_create.o) (task_start)
/home/dexheimere/Firmware/build_px4fmu-v2_lpe/px4io-v2/NuttX/nuttx-export/libs/libnuttx.a(sched-task_terminate.o)
                              /home/dexheimere/Firmware/build_px4fmu-v2_lpe/px4io-v2/NuttX/nuttx-export/libs/libnuttx.a(sched-task_exit.o) (task_terminate)
/home/dexheimere/Firmware/build_px4fmu-v2_lpe/px4io-v2/NuttX/nuttx-export/libs/libnuttx.a(c-dq_addlast.o)
                              /home/dexheimere/Firmware/build_px4fmu-v2_lpe/px4io-v2/NuttX/nuttx-export/libs/libnuttx.a(sched-sched_addblocked.o) (dq_addlast)
/home/dexheimere/Firmware/build_px4fmu-v2_lpe/px4io-v2/NuttX/nuttx-export/libs/libnuttx.a(c-dq_rem.o)
                              /home/dexheimere/Firmware/build_px4fmu-v2_lpe/px4io-v2/NuttX/nuttx-export/libs/libnuttx.a(sched-sched_removeblocked.o) (dq_rem)
/home/dexheimere/Firmware/build_px4fmu-v2_lpe/px4io-v2/NuttX/nuttx-export/libs/libnuttx.a(c-lib_strdup.o)
                              /home/dexheimere/Firmware/build_px4fmu-v2_lpe/px4io-v2/NuttX/nuttx-export/libs/libnuttx.a(sched-task_setup.o) (strdup)
/home/dexheimere/Firmware/build_px4fmu-v2_lpe/px4io-v2/NuttX/nuttx-export/libs/libnuttx.a(arch-stm32_timerisr.o)
                              /home/dexheimere/Firmware/build_px4fmu-v2_lpe/px4io-v2/NuttX/nuttx-export/libs/libnuttx.a(arch-up_initialize.o) (up_timerinit)
/home/dexheimere/Firmware/build_px4fmu-v2_lpe/px4io-v2/NuttX/nuttx-export/libs/libnuttx.a(arch-up_createstack.o)
                              /home/dexheimere/Firmware/build_px4fmu-v2_lpe/px4io-v2/NuttX/nuttx-export/libs/libnuttx.a(sched-task_create.o) (up_create_stack)
/home/dexheimere/Firmware/build_px4fmu-v2_lpe/px4io-v2/NuttX/nuttx-export/libs/libnuttx.a(arch-up_doirq.o)
                              /home/dexheimere/Firmware/build_px4fmu-v2_lpe/px4io-v2/NuttX/nuttx-export/libs/libnuttx.a(arch-up_exception.o) (up_doirq)
/home/dexheimere/Firmware/build_px4fmu-v2_lpe/px4io-v2/NuttX/nuttx-export/libs/libnuttx.a(arch-up_releasestack.o)
                              /home/dexheimere/Firmware/build_px4fmu-v2_lpe/px4io-v2/NuttX/nuttx-export/libs/libnuttx.a(arch-up_createstack.o) (up_release_stack)
/home/dexheimere/Firmware/build_px4fmu-v2_lpe/px4io-v2/NuttX/nuttx-export/libs/libnuttx.a(fs-fs_close.o)
                              /home/dexheimere/Firmware/build_px4fmu-v2_lpe/px4io-v2/NuttX/nuttx-export/libs/libnuttx.a(sched-group_setupidlefiles.o) (close)
/home/dexheimere/Firmware/build_px4fmu-v2_lpe/px4io-v2/NuttX/nuttx-export/libs/libnuttx.a(fs-fs_filedup2.o)
                              /home/dexheimere/Firmware/build_px4fmu-v2_lpe/px4io-v2/NuttX/nuttx-export/libs/libnuttx.a(sched-group_setupidlefiles.o) (dup2)
/home/dexheimere/Firmware/build_px4fmu-v2_lpe/px4io-v2/NuttX/nuttx-export/libs/libnuttx.a(fs-fs_inodereserve.o)
                              /home/dexheimere/Firmware/build_px4fmu-v2_lpe/px4io-v2/NuttX/nuttx-export/libs/libnuttx.a(fs-fs_registerdriver.o) (inode_reserve)
/home/dexheimere/Firmware/build_px4fmu-v2_lpe/px4io-v2/NuttX/nuttx-export/libs/libnuttx.a(sched-group_setuptaskfiles.o)
                              /home/dexheimere/Firmware/build_px4fmu-v2_lpe/px4io-v2/NuttX/nuttx-export/libs/libnuttx.a(sched-task_create.o) (group_setuptaskfiles)
/home/dexheimere/Firmware/build_px4fmu-v2_lpe/px4io-v2/NuttX/nuttx-export/libs/libnuttx.a(sched-irq_dispatch.o)
                              /home/dexheimere/Firmware/build_px4fmu-v2_lpe/px4io-v2/NuttX/nuttx-export/libs/libnuttx.a(arch-up_doirq.o) (irq_dispatch)
/home/dexheimere/Firmware/build_px4fmu-v2_lpe/px4io-v2/NuttX/nuttx-export/libs/libnuttx.a(sched-sched_gettcb.o)
                              /home/dexheimere/Firmware/build_px4fmu-v2_lpe/px4io-v2/NuttX/nuttx-export/libs/libnuttx.a(sched-task_terminate.o) (sched_gettcb)
/home/dexheimere/Firmware/build_px4fmu-v2_lpe/px4io-v2/NuttX/nuttx-export/libs/libnuttx.a(sched-sched_lock.o)
                              /home/dexheimere/Firmware/build_px4fmu-v2_lpe/px4io-v2/NuttX/nuttx-export/libs/libnuttx.a(sched-task_setup.o) (sched_lock)
/home/dexheimere/Firmware/build_px4fmu-v2_lpe/px4io-v2/NuttX/nuttx-export/libs/libnuttx.a(sched-sched_processtimer.o)
                              /home/dexheimere/Firmware/build_px4fmu-v2_lpe/px4io-v2/NuttX/nuttx-export/libs/libnuttx.a(arch-stm32_timerisr.o) (sched_process_timer)
/home/dexheimere/Firmware/build_px4fmu-v2_lpe/px4io-v2/NuttX/nuttx-export/libs/libnuttx.a(sched-sched_releasetcb.o)
                              /home/dexheimere/Firmware/build_px4fmu-v2_lpe/px4io-v2/NuttX/nuttx-export/libs/libnuttx.a(sched-task_create.o) (sched_releasetcb)
/home/dexheimere/Firmware/build_px4fmu-v2_lpe/px4io-v2/NuttX/nuttx-export/libs/libnuttx.a(sched-sched_unlock.o)
                              /home/dexheimere/Firmware/build_px4fmu-v2_lpe/px4io-v2/NuttX/nuttx-export/libs/libnuttx.a(sched-task_setup.o) (sched_unlock)
/home/dexheimere/Firmware/build_px4fmu-v2_lpe/px4io-v2/NuttX/nuttx-export/libs/libnuttx.a(sched-task_activate.o)
                              /home/dexheimere/Firmware/build_px4fmu-v2_lpe/px4io-v2/NuttX/nuttx-export/libs/libnuttx.a(sched-task_create.o) (task_activate)
/home/dexheimere/Firmware/build_px4fmu-v2_lpe/px4io-v2/NuttX/nuttx-export/libs/libnuttx.a(arch-up_releasepending.o)
                              /home/dexheimere/Firmware/build_px4fmu-v2_lpe/px4io-v2/NuttX/nuttx-export/libs/libnuttx.a(sched-sched_unlock.o) (up_release_pending)
/home/dexheimere/gcc-arm-none-eabi-5_4-2016q2/bin/../lib/gcc/arm-none-eabi/5.4.1/../../../../arm-none-eabi/lib/armv7-m/libm.a(lib_a-sf_fmin.o)
                              src/modules/px4iofirmware/CMakeFiles/px4io-v2.dir/__/systemlib/mixer/mixer_multirotor.cpp.obj (fminf)
/home/dexheimere/gcc-arm-none-eabi-5_4-2016q2/bin/../lib/gcc/arm-none-eabi/5.4.1/../../../../arm-none-eabi/lib/armv7-m/libm.a(lib_a-sf_fpclassify.o)
                              src/modules/px4iofirmware/CMakeFiles/px4io-v2.dir/__/systemlib/pwm_limit/pwm_limit.c.obj (__fpclassifyf)
/home/dexheimere/gcc-arm-none-eabi-5_4-2016q2/bin/../lib/gcc/arm-none-eabi/5.4.1/../../../../arm-none-eabi/lib/armv7-m/libm.a(lib_a-wf_sqrt.o)
                              src/modules/px4iofirmware/CMakeFiles/px4io-v2.dir/__/systemlib/perf_counter.c.obj (sqrtf)
/home/dexheimere/gcc-arm-none-eabi-5_4-2016q2/bin/../lib/gcc/arm-none-eabi/5.4.1/../../../../arm-none-eabi/lib/armv7-m/libm.a(lib_a-ef_sqrt.o)
                              /home/dexheimere/gcc-arm-none-eabi-5_4-2016q2/bin/../lib/gcc/arm-none-eabi/5.4.1/../../../../arm-none-eabi/lib/armv7-m/libm.a(lib_a-wf_sqrt.o) (__ieee754_sqrtf)
/home/dexheimere/gcc-arm-none-eabi-5_4-2016q2/bin/../lib/gcc/arm-none-eabi/5.4.1/../../../../arm-none-eabi/lib/armv7-m/libm.a(lib_a-s_lib_ver.o)
                              /home/dexheimere/gcc-arm-none-eabi-5_4-2016q2/bin/../lib/gcc/arm-none-eabi/5.4.1/../../../../arm-none-eabi/lib/armv7-m/libm.a(lib_a-wf_sqrt.o) (__fdlib_version)
/home/dexheimere/gcc-arm-none-eabi-5_4-2016q2/bin/../lib/gcc/arm-none-eabi/5.4.1/../../../../arm-none-eabi/lib/armv7-m/libm.a(lib_a-s_matherr.o)
                              /home/dexheimere/gcc-arm-none-eabi-5_4-2016q2/bin/../lib/gcc/arm-none-eabi/5.4.1/../../../../arm-none-eabi/lib/armv7-m/libm.a(lib_a-wf_sqrt.o) (matherr)
/home/dexheimere/gcc-arm-none-eabi-5_4-2016q2/bin/../lib/gcc/arm-none-eabi/5.4.1/armv7-m/libgcc.a(_lshrdi3.o)
                              /home/dexheimere/Firmware/build_px4fmu-v2_lpe/px4io-v2/NuttX/nuttx-export/libs/libnuttx.a(c-lib_libvsprintf.o) (__aeabi_llsr)
/home/dexheimere/gcc-arm-none-eabi-5_4-2016q2/bin/../lib/gcc/arm-none-eabi/5.4.1/armv7-m/libgcc.a(_arm_addsubdf3.o)
                              src/modules/px4iofirmware/CMakeFiles/px4io-v2.dir/__/systemlib/perf_counter.c.obj (__aeabi_f2d)
/home/dexheimere/gcc-arm-none-eabi-5_4-2016q2/bin/../lib/gcc/arm-none-eabi/5.4.1/armv7-m/libgcc.a(_arm_muldivdf3.o)
                              /home/dexheimere/gcc-arm-none-eabi-5_4-2016q2/bin/../lib/gcc/arm-none-eabi/5.4.1/../../../../arm-none-eabi/lib/armv7-m/libm.a(lib_a-wf_sqrt.o) (__aeabi_ddiv)
/home/dexheimere/gcc-arm-none-eabi-5_4-2016q2/bin/../lib/gcc/arm-none-eabi/5.4.1/armv7-m/libgcc.a(_arm_truncdfsf2.o)
                              /home/dexheimere/gcc-arm-none-eabi-5_4-2016q2/bin/../lib/gcc/arm-none-eabi/5.4.1/../../../../arm-none-eabi/lib/armv7-m/libm.a(lib_a-wf_sqrt.o) (__aeabi_d2f)
/home/dexheimere/gcc-arm-none-eabi-5_4-2016q2/bin/../lib/gcc/arm-none-eabi/5.4.1/armv7-m/libgcc.a(_arm_addsubsf3.o)
                              src/modules/px4iofirmware/CMakeFiles/px4io-v2.dir/__/systemlib/perf_counter.c.obj (__aeabi_fsub)
/home/dexheimere/gcc-arm-none-eabi-5_4-2016q2/bin/../lib/gcc/arm-none-eabi/5.4.1/armv7-m/libgcc.a(_arm_muldivsf3.o)
                              src/modules/px4iofirmware/CMakeFiles/px4io-v2.dir/controls.c.obj (__aeabi_fmul)
/home/dexheimere/gcc-arm-none-eabi-5_4-2016q2/bin/../lib/gcc/arm-none-eabi/5.4.1/armv7-m/libgcc.a(_arm_cmpsf2.o)
                              src/modules/px4iofirmware/CMakeFiles/px4io-v2.dir/mixer.cpp.obj (__aeabi_fcmplt)
/home/dexheimere/gcc-arm-none-eabi-5_4-2016q2/bin/../lib/gcc/arm-none-eabi/5.4.1/armv7-m/libgcc.a(_arm_unordsf2.o)
                              src/modules/px4iofirmware/CMakeFiles/px4io-v2.dir/__/systemlib/mixer/mixer_multirotor.cpp.obj (__aeabi_fcmpun)
/home/dexheimere/gcc-arm-none-eabi-5_4-2016q2/bin/../lib/gcc/arm-none-eabi/5.4.1/armv7-m/libgcc.a(_arm_fixsfsi.o)
                              src/modules/px4iofirmware/CMakeFiles/px4io-v2.dir/controls.c.obj (__aeabi_f2iz)
/home/dexheimere/gcc-arm-none-eabi-5_4-2016q2/bin/../lib/gcc/arm-none-eabi/5.4.1/armv7-m/libgcc.a(_arm_fixunssfsi.o)
                              src/modules/px4iofirmware/CMakeFiles/px4io-v2.dir/controls.c.obj (__aeabi_f2uiz)
/home/dexheimere/gcc-arm-none-eabi-5_4-2016q2/bin/../lib/gcc/arm-none-eabi/5.4.1/armv7-m/libgcc.a(_aeabi_uldivmod.o)
                              src/modules/px4iofirmware/CMakeFiles/px4io-v2.dir/__/systemlib/perf_counter.c.obj (__aeabi_uldivmod)
/home/dexheimere/gcc-arm-none-eabi-5_4-2016q2/bin/../lib/gcc/arm-none-eabi/5.4.1/armv7-m/libgcc.a(_udivmoddi4.o)
                              /home/dexheimere/gcc-arm-none-eabi-5_4-2016q2/bin/../lib/gcc/arm-none-eabi/5.4.1/armv7-m/libgcc.a(_aeabi_uldivmod.o) (__udivmoddi4)
/home/dexheimere/gcc-arm-none-eabi-5_4-2016q2/bin/../lib/gcc/arm-none-eabi/5.4.1/armv7-m/libgcc.a(_dvmd_tls.o)
                              /home/dexheimere/gcc-arm-none-eabi-5_4-2016q2/bin/../lib/gcc/arm-none-eabi/5.4.1/armv7-m/libgcc.a(_aeabi_uldivmod.o) (__aeabi_ldiv0)

Discarded input sections

 .group         0x00000000        0xc src/modules/px4iofirmware/CMakeFiles/px4io-v2.dir/__/systemlib/mixer/mixer.cpp.obj
 .group         0x00000000        0x8 src/modules/px4iofirmware/CMakeFiles/px4io-v2.dir/__/systemlib/mixer/mixer.cpp.obj

Memory Configuration

Name             Origin             Length             Attributes
flash            0x08001000         0x0000f000         xr
sram             0x20000000         0x00002000         xrw
*default*        0x00000000         0xffffffff

Linker script and memory map

LOAD src/modules/px4iofirmware/CMakeFiles/px4io-v2.dir/adc.c.obj
LOAD src/modules/px4iofirmware/CMakeFiles/px4io-v2.dir/controls.c.obj
LOAD src/modules/px4iofirmware/CMakeFiles/px4io-v2.dir/px4io.c.obj
LOAD src/modules/px4iofirmware/CMakeFiles/px4io-v2.dir/registers.c.obj
LOAD src/modules/px4iofirmware/CMakeFiles/px4io-v2.dir/safety.c.obj
LOAD src/modules/px4iofirmware/CMakeFiles/px4io-v2.dir/__/systemlib/up_cxxinitialize.c.obj
LOAD src/modules/px4iofirmware/CMakeFiles/px4io-v2.dir/__/systemlib/perf_counter.c.obj
LOAD src/modules/px4iofirmware/CMakeFiles/px4io-v2.dir/mixer.cpp.obj
LOAD src/modules/px4iofirmware/CMakeFiles/px4io-v2.dir/__/systemlib/mixer/mixer.cpp.obj
LOAD src/modules/px4iofirmware/CMakeFiles/px4io-v2.dir/__/systemlib/mixer/mixer_group.cpp.obj
LOAD src/modules/px4iofirmware/CMakeFiles/px4io-v2.dir/__/systemlib/mixer/mixer_multirotor.cpp.obj
LOAD src/modules/px4iofirmware/CMakeFiles/px4io-v2.dir/__/systemlib/mixer/mixer_simple.cpp.obj
LOAD src/modules/px4iofirmware/CMakeFiles/px4io-v2.dir/__/systemlib/pwm_limit/pwm_limit.c.obj
LOAD src/modules/px4iofirmware/CMakeFiles/px4io-v2.dir/__/__/lib/rc/st24.c.obj
LOAD src/modules/px4iofirmware/CMakeFiles/px4io-v2.dir/__/__/lib/rc/sumd.c.obj
LOAD src/modules/px4iofirmware/CMakeFiles/px4io-v2.dir/__/__/lib/rc/sbus.c.obj
LOAD src/modules/px4iofirmware/CMakeFiles/px4io-v2.dir/__/__/lib/rc/dsm.c.obj
LOAD src/modules/px4iofirmware/CMakeFiles/px4io-v2.dir/__/__/drivers/stm32/drv_hrt.c.obj
LOAD src/modules/px4iofirmware/CMakeFiles/px4io-v2.dir/__/__/drivers/stm32/drv_io_timer.c.obj
LOAD src/modules/px4iofirmware/CMakeFiles/px4io-v2.dir/__/__/drivers/stm32/drv_pwm_servo.c.obj
LOAD src/modules/px4iofirmware/CMakeFiles/px4io-v2.dir/__/__/drivers/boards/px4io-v2/px4io_init.c.obj
LOAD src/modules/px4iofirmware/CMakeFiles/px4io-v2.dir/__/__/drivers/boards/px4io-v2/px4io_timer_config.c.obj
LOAD src/modules/px4iofirmware/CMakeFiles/px4io-v2.dir/serial.c.obj
LOAD src/modules/px4iofirmware/CMakeFiles/px4io-v2.dir/__/systemlib/hx_stream.c.obj
START GROUP
LOAD /home/dexheimere/Firmware/build_px4fmu-v2_lpe/px4io-v2/NuttX/nuttx-export/libs/libapps.a
LOAD /home/dexheimere/Firmware/build_px4fmu-v2_lpe/px4io-v2/NuttX/nuttx-export/libs/libnuttx.a
LOAD /home/dexheimere/gcc-arm-none-eabi-5_4-2016q2/bin/../lib/gcc/arm-none-eabi/5.4.1/../../../../arm-none-eabi/lib/armv7-m/libnosys.a
LOAD /home/dexheimere/gcc-arm-none-eabi-5_4-2016q2/bin/../lib/gcc/arm-none-eabi/5.4.1/../../../../arm-none-eabi/lib/armv7-m/libm.a
LOAD /home/dexheimere/gcc-arm-none-eabi-5_4-2016q2/bin/../lib/gcc/arm-none-eabi/5.4.1/armv7-m/libgcc.a
END GROUP

.text           0x08001000     0xc628
                0x08001000                _stext = ABSOLUTE (.)
 *(.vectors)
 .vectors       0x08001000      0x134 /home/dexheimere/Firmware/build_px4fmu-v2_lpe/px4io-v2/NuttX/nuttx-export/libs/libnuttx.a(arch-up_vectors.o)
                0x08001000                _vectors
 *(.text .text.*)
 .text          0x08001134        0x0 src/modules/px4iofirmware/CMakeFiles/px4io-v2.dir/adc.c.obj
 .text.adc_init
                0x08001134       0x98 src/modules/px4iofirmware/CMakeFiles/px4io-v2.dir/adc.c.obj
                0x08001134                adc_init
 .text.adc_measure
                0x080011cc       0x80 src/modules/px4iofirmware/CMakeFiles/px4io-v2.dir/adc.c.obj
                0x080011cc                adc_measure
 .text          0x0800124c        0x0 src/modules/px4iofirmware/CMakeFiles/px4io-v2.dir/controls.c.obj
 .text.controls_init
                0x0800124c       0x90 src/modules/px4iofirmware/CMakeFiles/px4io-v2.dir/controls.c.obj
                0x0800124c                controls_init
 .text.controls_tick
                0x080012dc      0x6f8 src/modules/px4iofirmware/CMakeFiles/px4io-v2.dir/controls.c.obj
                0x080012dc                controls_tick
 .text          0x080019d4        0x0 src/modules/px4iofirmware/CMakeFiles/px4io-v2.dir/px4io.c.obj
 .text.isr_debug
                0x080019d4       0x60 src/modules/px4iofirmware/CMakeFiles/px4io-v2.dir/px4io.c.obj
                0x080019d4                isr_debug
 .text.schedule_reboot
                0x08001a34       0x1c src/modules/px4iofirmware/CMakeFiles/px4io-v2.dir/px4io.c.obj
                0x08001a34                schedule_reboot
 .text.user_start
                0x08001a50      0x354 src/modules/px4iofirmware/CMakeFiles/px4io-v2.dir/px4io.c.obj
                0x08001a50                user_start
 .text          0x08001da4        0x0 src/modules/px4iofirmware/CMakeFiles/px4io-v2.dir/registers.c.obj
 .text.pwm_configure_rates
                0x08001da4       0x90 src/modules/px4iofirmware/CMakeFiles/px4io-v2.dir/registers.c.obj
 .text.registers_set
                0x08001e34      0x680 src/modules/px4iofirmware/CMakeFiles/px4io-v2.dir/registers.c.obj
                0x08001e34                registers_set
 .text.registers_get
                0x080024b4      0x288 src/modules/px4iofirmware/CMakeFiles/px4io-v2.dir/registers.c.obj
                0x080024b4                registers_get
 .text          0x0800273c        0x0 src/modules/px4iofirmware/CMakeFiles/px4io-v2.dir/safety.c.obj
 .text.safety_check_button
                0x0800273c       0xe0 src/modules/px4iofirmware/CMakeFiles/px4io-v2.dir/safety.c.obj
 .text.failsafe_blink
                0x0800281c       0x44 src/modules/px4iofirmware/CMakeFiles/px4io-v2.dir/safety.c.obj
 .text.safety_init
                0x08002860       0x34 src/modules/px4iofirmware/CMakeFiles/px4io-v2.dir/safety.c.obj
                0x08002860                safety_init
 .text.failsafe_led_init
                0x08002894       0x34 src/modules/px4iofirmware/CMakeFiles/px4io-v2.dir/safety.c.obj
                0x08002894                failsafe_led_init
 .text          0x080028c8        0x0 src/modules/px4iofirmware/CMakeFiles/px4io-v2.dir/__/systemlib/up_cxxinitialize.c.obj
 .text.up_cxxinitialize
                0x080028c8       0x38 src/modules/px4iofirmware/CMakeFiles/px4io-v2.dir/__/systemlib/up_cxxinitialize.c.obj
                0x080028c8                up_cxxinitialize
 .text          0x08002900        0x0 src/modules/px4iofirmware/CMakeFiles/px4io-v2.dir/__/systemlib/perf_counter.c.obj
 .text.perf_alloc
                0x08002900       0x50 src/modules/px4iofirmware/CMakeFiles/px4io-v2.dir/__/systemlib/perf_counter.c.obj
                0x08002900                perf_alloc
 .text.perf_alloc_once
                0x08002950       0x3c src/modules/px4iofirmware/CMakeFiles/px4io-v2.dir/__/systemlib/perf_counter.c.obj
                0x08002950                perf_alloc_once
 .text.perf_free
                0x0800298c       0x1c src/modules/px4iofirmware/CMakeFiles/px4io-v2.dir/__/systemlib/perf_counter.c.obj
                0x0800298c                perf_free
 .text.perf_count
                0x080029a8       0xfc src/modules/px4iofirmware/CMakeFiles/px4io-v2.dir/__/systemlib/perf_counter.c.obj
                0x080029a8                perf_count
 .text.perf_begin
                0x08002aa4       0x18 src/modules/px4iofirmware/CMakeFiles/px4io-v2.dir/__/systemlib/perf_counter.c.obj
                0x08002aa4                perf_begin
 .text.perf_end
                0x08002abc       0xe0 src/modules/px4iofirmware/CMakeFiles/px4io-v2.dir/__/systemlib/perf_counter.c.obj
                0x08002abc                perf_end
 .text.perf_set
                0x08002b9c       0xcc src/modules/px4iofirmware/CMakeFiles/px4io-v2.dir/__/systemlib/perf_counter.c.obj
                0x08002b9c                perf_set
 .text.perf_cancel
                0x08002c68       0x14 src/modules/px4iofirmware/CMakeFiles/px4io-v2.dir/__/systemlib/perf_counter.c.obj
                0x08002c68                perf_cancel
 .text.perf_reset
                0x08002c7c       0x54 src/modules/px4iofirmware/CMakeFiles/px4io-v2.dir/__/systemlib/perf_counter.c.obj
                0x08002c7c                perf_reset
 .text.perf_print_counter_fd
                0x08002cd0      0x154 src/modules/px4iofirmware/CMakeFiles/px4io-v2.dir/__/systemlib/perf_counter.c.obj
                0x08002cd0                perf_print_counter_fd
 .text.perf_print_counter
                0x08002e24        0x8 src/modules/px4iofirmware/CMakeFiles/px4io-v2.dir/__/systemlib/perf_counter.c.obj
                0x08002e24                perf_print_counter
 .text.perf_event_count
                0x08002e2c       0x20 src/modules/px4iofirmware/CMakeFiles/px4io-v2.dir/__/systemlib/perf_counter.c.obj
                0x08002e2c                perf_event_count
 .text.perf_print_all
                0x08002e4c       0x20 src/modules/px4iofirmware/CMakeFiles/px4io-v2.dir/__/systemlib/perf_counter.c.obj
                0x08002e4c                perf_print_all
 .text.perf_print_latency
                0x08002e6c       0x6c src/modules/px4iofirmware/CMakeFiles/px4io-v2.dir/__/systemlib/perf_counter.c.obj
                0x08002e6c                perf_print_latency
 .text.perf_reset_all
                0x08002ed8       0x38 src/modules/px4iofirmware/CMakeFiles/px4io-v2.dir/__/systemlib/perf_counter.c.obj
                0x08002ed8                perf_reset_all
 .text          0x08002f10        0x0 src/modules/px4iofirmware/CMakeFiles/px4io-v2.dir/mixer.cpp.obj
 .text._ZL14mixer_callbackjhhRf
                0x08002f10      0x188 src/modules/px4iofirmware/CMakeFiles/px4io-v2.dir/mixer.cpp.obj
 .text.mixer_handle_text
                0x08003098      0x120 src/modules/px4iofirmware/CMakeFiles/px4io-v2.dir/mixer.cpp.obj
                0x08003098                mixer_handle_text
 .text.startup._GLOBAL__sub_I_mixer_tick
                0x080031b8       0x2c src/modules/px4iofirmware/CMakeFiles/px4io-v2.dir/mixer.cpp.obj
 .text.mixer_tick
                0x080031e4      0x458 src/modules/px4iofirmware/CMakeFiles/px4io-v2.dir/mixer.cpp.obj
                0x080031e4                mixer_tick
 .text.mixer_set_failsafe
                0x0800363c       0x80 src/modules/px4iofirmware/CMakeFiles/px4io-v2.dir/mixer.cpp.obj
                0x0800363c                mixer_set_failsafe
 .text          0x080036bc        0x0 src/modules/px4iofirmware/CMakeFiles/px4io-v2.dir/__/systemlib/mixer/mixer.cpp.obj
 .text._ZN9NullMixerD2Ev
                0x080036bc        0x4 src/modules/px4iofirmware/CMakeFiles/px4io-v2.dir/__/systemlib/mixer/mixer.cpp.obj
                0x080036bc                NullMixer::~NullMixer()
                0x080036bc                NullMixer::~NullMixer()
 .text._ZN9NullMixer3mixEPfjPt
                0x080036c0       0x10 src/modules/px4iofirmware/CMakeFiles/px4io-v2.dir/__/systemlib/mixer/mixer.cpp.obj
                0x080036c0                NullMixer::mix(float*, unsigned int, unsigned short*)
 .text._ZN9NullMixer15groups_requiredERj
                0x080036d0        0x4 src/modules/px4iofirmware/CMakeFiles/px4io-v2.dir/__/systemlib/mixer/mixer.cpp.obj
                0x080036d0                NullMixer::groups_required(unsigned int&)
 .text._ZN9NullMixerD0Ev
                0x080036d4        0xc src/modules/px4iofirmware/CMakeFiles/px4io-v2.dir/__/systemlib/mixer/mixer.cpp.obj
                0x080036d4                NullMixer::~NullMixer()
 .text._ZN5MixerC2EPFijhhRfEj
                0x080036e0       0x18 src/modules/px4iofirmware/CMakeFiles/px4io-v2.dir/__/systemlib/mixer/mixer.cpp.obj
                0x080036e0                Mixer::Mixer(int (*)(unsigned int, unsigned char, unsigned char, float&), unsigned int)
                0x080036e0                Mixer::Mixer(int (*)(unsigned int, unsigned char, unsigned char, float&), unsigned int)
 .text._ZN5Mixer11get_controlEhh
                0x080036f8       0x14 src/modules/px4iofirmware/CMakeFiles/px4io-v2.dir/__/systemlib/mixer/mixer.cpp.obj
                0x080036f8                Mixer::get_control(unsigned char, unsigned char)
 .text._ZN5Mixer5scaleERK14mixer_scaler_sf
                0x0800370c       0x54 src/modules/px4iofirmware/CMakeFiles/px4io-v2.dir/__/systemlib/mixer/mixer.cpp.obj
                0x0800370c                Mixer::scale(mixer_scaler_s const&, float)
 .text._ZN5Mixer11scale_checkER14mixer_scaler_s
                0x08003760       0x5c src/modules/px4iofirmware/CMakeFiles/px4io-v2.dir/__/systemlib/mixer/mixer.cpp.obj
                0x08003760                Mixer::scale_check(mixer_scaler_s&)
 .text._ZN5Mixer7findtagEPKcRjc
                0x080037bc       0x34 src/modules/px4iofirmware/CMakeFiles/px4io-v2.dir/__/systemlib/mixer/mixer.cpp.obj
                0x080037bc                Mixer::findtag(char const*, unsigned int&, char)
 .text._ZN5Mixer8skiplineEPKcRj
                0x080037f0       0x30 src/modules/px4iofirmware/CMakeFiles/px4io-v2.dir/__/systemlib/mixer/mixer.cpp.obj
                0x080037f0                Mixer::skipline(char const*, unsigned int&)
 .text._ZN9NullMixerC2Ev
                0x08003820       0x14 src/modules/px4iofirmware/CMakeFiles/px4io-v2.dir/__/systemlib/mixer/mixer.cpp.obj
                0x08003820                NullMixer::NullMixer()
                0x08003820                NullMixer::NullMixer()
 .text._ZN9NullMixer9from_textEPKcRj
                0x08003834       0x68 src/modules/px4iofirmware/CMakeFiles/px4io-v2.dir/__/systemlib/mixer/mixer.cpp.obj
                0x08003834                NullMixer::from_text(char const*, unsigned int&)
 .text          0x0800389c        0x0 src/modules/px4iofirmware/CMakeFiles/px4io-v2.dir/__/systemlib/mixer/mixer_group.cpp.obj
 .text._ZN10MixerGroupD2Ev
                0x0800389c       0x28 src/modules/px4iofirmware/CMakeFiles/px4io-v2.dir/__/systemlib/mixer/mixer_group.cpp.obj
                0x0800389c                MixerGroup::~MixerGroup()
                0x0800389c                MixerGroup::~MixerGroup()
 .text._ZN10MixerGroup3mixEPfjPt
                0x080038c4       0x40 src/modules/px4iofirmware/CMakeFiles/px4io-v2.dir/__/systemlib/mixer/mixer_group.cpp.obj
                0x080038c4                MixerGroup::mix(float*, unsigned int, unsigned short*)
 .text._ZN10MixerGroup15groups_requiredERj
                0x08003904       0x1c src/modules/px4iofirmware/CMakeFiles/px4io-v2.dir/__/systemlib/mixer/mixer_group.cpp.obj
                0x08003904                MixerGroup::groups_required(unsigned int&)
 .text._ZN10MixerGroupD0Ev
                0x08003920       0x2c src/modules/px4iofirmware/CMakeFiles/px4io-v2.dir/__/systemlib/mixer/mixer_group.cpp.obj
                0x08003920                MixerGroup::~MixerGroup()
 .text._ZN10MixerGroupC2EPFijhhRfEj
                0x0800394c       0x18 src/modules/px4iofirmware/CMakeFiles/px4io-v2.dir/__/systemlib/mixer/mixer_group.cpp.obj
                0x0800394c                MixerGroup::MixerGroup(int (*)(unsigned int, unsigned char, unsigned char, float&), unsigned int)
                0x0800394c                MixerGroup::MixerGroup(int (*)(unsigned int, unsigned char, unsigned char, float&), unsigned int)
 .text._ZN10MixerGroup9add_mixerEP5Mixer
                0x08003964       0x20 src/modules/px4iofirmware/CMakeFiles/px4io-v2.dir/__/systemlib/mixer/mixer_group.cpp.obj
                0x08003964                MixerGroup::add_mixer(Mixer*)
 .text._ZN10MixerGroup5resetEv
                0x08003984       0x20 src/modules/px4iofirmware/CMakeFiles/px4io-v2.dir/__/systemlib/mixer/mixer_group.cpp.obj
                0x08003984                MixerGroup::reset()
 .text._ZN10MixerGroup5countEv
                0x080039a4       0x14 src/modules/px4iofirmware/CMakeFiles/px4io-v2.dir/__/systemlib/mixer/mixer_group.cpp.obj
                0x080039a4                MixerGroup::count()
 .text._ZN10MixerGroup13load_from_bufEPKcRj
                0x080039b8       0x88 src/modules/px4iofirmware/CMakeFiles/px4io-v2.dir/__/systemlib/mixer/mixer_group.cpp.obj
                0x080039b8                MixerGroup::load_from_buf(char const*, unsigned int&)
 .text          0x08003a40        0x0 src/modules/px4iofirmware/CMakeFiles/px4io-v2.dir/__/systemlib/mixer/mixer_multirotor.cpp.obj
 .text._ZN15MultirotorMixerD2Ev
                0x08003a40        0x4 src/modules/px4iofirmware/CMakeFiles/px4io-v2.dir/__/systemlib/mixer/mixer_multirotor.cpp.obj
                0x08003a40                MultirotorMixer::~MultirotorMixer()
                0x08003a40                MultirotorMixer::~MultirotorMixer()
 .text._ZN15MultirotorMixer15groups_requiredERj
                0x08003a44        0xc src/modules/px4iofirmware/CMakeFiles/px4io-v2.dir/__/systemlib/mixer/mixer_multirotor.cpp.obj
                0x08003a44                MultirotorMixer::groups_required(unsigned int&)
 .text._ZN15MultirotorMixerD0Ev
                0x08003a50        0xc src/modules/px4iofirmware/CMakeFiles/px4io-v2.dir/__/systemlib/mixer/mixer_multirotor.cpp.obj
                0x08003a50                MultirotorMixer::~MultirotorMixer()
 .text._ZN15MultirotorMixer3mixEPfjPt
                0x08003a5c      0x6cc src/modules/px4iofirmware/CMakeFiles/px4io-v2.dir/__/systemlib/mixer/mixer_multirotor.cpp.obj
                0x08003a5c                MultirotorMixer::mix(float*, unsigned int, unsigned short*)
 .text._ZN15MultirotorMixerC2EPFijhhRfEj18MultirotorGeometryffff
                0x08004128       0x58 src/modules/px4iofirmware/CMakeFiles/px4io-v2.dir/__/systemlib/mixer/mixer_multirotor.cpp.obj
                0x08004128                MultirotorMixer::MultirotorMixer(int (*)(unsigned int, unsigned char, unsigned char, float&), unsigned int, MultirotorGeometry, float, float, float, float)
                0x08004128                MultirotorMixer::MultirotorMixer(int (*)(unsigned int, unsigned char, unsigned char, float&), unsigned int, MultirotorGeometry, float, float, float, float)
 .text._ZN15MultirotorMixer9from_textEPFijhhRfEjPKcRj
                0x08004180      0x2ac src/modules/px4iofirmware/CMakeFiles/px4io-v2.dir/__/systemlib/mixer/mixer_multirotor.cpp.obj
                0x08004180                MultirotorMixer::from_text(int (*)(unsigned int, unsigned char, unsigned char, float&), unsigned int, char const*, unsigned int&)
 .text          0x0800442c        0x0 src/modules/px4iofirmware/CMakeFiles/px4io-v2.dir/__/systemlib/mixer/mixer_simple.cpp.obj
 .text._ZN11SimpleMixer15groups_requiredERj
                0x0800442c       0x30 src/modules/px4iofirmware/CMakeFiles/px4io-v2.dir/__/systemlib/mixer/mixer_simple.cpp.obj
                0x0800442c                SimpleMixer::groups_required(unsigned int&)
 .text._ZN11SimpleMixerD2Ev
                0x0800445c       0x18 src/modules/px4iofirmware/CMakeFiles/px4io-v2.dir/__/systemlib/mixer/mixer_simple.cpp.obj
                0x0800445c                SimpleMixer::~SimpleMixer()
                0x0800445c                SimpleMixer::~SimpleMixer()
 .text._ZN11SimpleMixerD0Ev
                0x08004474       0x20 src/modules/px4iofirmware/CMakeFiles/px4io-v2.dir/__/systemlib/mixer/mixer_simple.cpp.obj
                0x08004474                SimpleMixer::~SimpleMixer()
 .text._ZN11SimpleMixer3mixEPfjPt
                0x08004494       0x78 src/modules/px4iofirmware/CMakeFiles/px4io-v2.dir/__/systemlib/mixer/mixer_simple.cpp.obj
                0x08004494                SimpleMixer::mix(float*, unsigned int, unsigned short*)
 .text._ZN11SimpleMixerC2EPFijhhRfEjP14mixer_simple_s
                0x0800450c       0x18 src/modules/px4iofirmware/CMakeFiles/px4io-v2.dir/__/systemlib/mixer/mixer_simple.cpp.obj
                0x0800450c                SimpleMixer::SimpleMixer(int (*)(unsigned int, unsigned char, unsigned char, float&), unsigned int, mixer_simple_s*)
                0x0800450c                SimpleMixer::SimpleMixer(int (*)(unsigned int, unsigned char, unsigned char, float&), unsigned int, mixer_simple_s*)
 .text._ZN11SimpleMixer19parse_output_scalerEPKcRjR14mixer_scaler_s
                0x08004524       0xa8 src/modules/px4iofirmware/CMakeFiles/px4io-v2.dir/__/systemlib/mixer/mixer_simple.cpp.obj
                0x08004524                SimpleMixer::parse_output_scaler(char const*, unsigned int&, mixer_scaler_s&)
 .text._ZN11SimpleMixer20parse_control_scalerEPKcRjR14mixer_scaler_sRhS5_
                0x080045cc       0xb8 src/modules/px4iofirmware/CMakeFiles/px4io-v2.dir/__/systemlib/mixer/mixer_simple.cpp.obj
                0x080045cc                SimpleMixer::parse_control_scaler(char const*, unsigned int&, mixer_scaler_s&, unsigned char&, unsigned char&)
 .text._ZN11SimpleMixer9from_textEPFijhhRfEjPKcRj
                0x08004684       0xb4 src/modules/px4iofirmware/CMakeFiles/px4io-v2.dir/__/systemlib/mixer/mixer_simple.cpp.obj
                0x08004684                SimpleMixer::from_text(int (*)(unsigned int, unsigned char, unsigned char, float&), unsigned int, char const*, unsigned int&)
 .text._ZN11SimpleMixer9pwm_inputEPFijhhRfEjjttt
                0x08004738       0xa4 src/modules/px4iofirmware/CMakeFiles/px4io-v2.dir/__/systemlib/mixer/mixer_simple.cpp.obj
                0x08004738                SimpleMixer::pwm_input(int (*)(unsigned int, unsigned char, unsigned char, float&), unsigned int, unsigned int, unsigned short, unsigned short, unsigned short)
 .text._ZN11SimpleMixer5checkEv
                0x080047dc       0x78 src/modules/px4iofirmware/CMakeFiles/px4io-v2.dir/__/systemlib/mixer/mixer_simple.cpp.obj
                0x080047dc                SimpleMixer::check()
 .text          0x08004854        0x0 src/modules/px4iofirmware/CMakeFiles/px4io-v2.dir/__/systemlib/pwm_limit/pwm_limit.c.obj
 .text.pwm_limit_init
                0x08004854       0x10 src/modules/px4iofirmware/CMakeFiles/px4io-v2.dir/__/systemlib/pwm_limit/pwm_limit.c.obj
                0x08004854                pwm_limit_init
 *fill*         0x08004864        0x4 
 .text.pwm_limit_calc
                0x08004868      0x2ac src/modules/px4iofirmware/CMakeFiles/px4io-v2.dir/__/systemlib/pwm_limit/pwm_limit.c.obj
                0x08004868                pwm_limit_calc
 .text          0x08004b14        0x0 src/modules/px4iofirmware/CMakeFiles/px4io-v2.dir/__/__/lib/rc/st24.c.obj
 .text.st24_common_crc8
                0x08004b14       0x44 src/modules/px4iofirmware/CMakeFiles/px4io-v2.dir/__/__/lib/rc/st24.c.obj
                0x08004b14                st24_common_crc8
 .text.st24_decode
                0x08004b58      0x24c src/modules/px4iofirmware/CMakeFiles/px4io-v2.dir/__/__/lib/rc/st24.c.obj
                0x08004b58                st24_decode
 .text          0x08004da4        0x0 src/modules/px4iofirmware/CMakeFiles/px4io-v2.dir/__/__/lib/rc/sumd.c.obj
 .text.sumd_crc16
                0x08004da4       0x20 src/modules/px4iofirmware/CMakeFiles/px4io-v2.dir/__/__/lib/rc/sumd.c.obj
                0x08004da4                sumd_crc16
 .text.sumd_crc8
                0x08004dc4        0x8 src/modules/px4iofirmware/CMakeFiles/px4io-v2.dir/__/__/lib/rc/sumd.c.obj
                0x08004dc4                sumd_crc8
 .text.sumd_decode
                0x08004dcc      0x4d8 src/modules/px4iofirmware/CMakeFiles/px4io-v2.dir/__/__/lib/rc/sumd.c.obj
                0x08004dcc                sumd_decode
 .text          0x080052a4        0x0 src/modules/px4iofirmware/CMakeFiles/px4io-v2.dir/__/__/lib/rc/sbus.c.obj
 .text.sbus_dropped_frames
                0x080052a4        0xc src/modules/px4iofirmware/CMakeFiles/px4io-v2.dir/__/__/lib/rc/sbus.c.obj
                0x080052a4                sbus_dropped_frames
 .text.sbus_config
                0x080052b0       0x64 src/modules/px4iofirmware/CMakeFiles/px4io-v2.dir/__/__/lib/rc/sbus.c.obj
                0x080052b0                sbus_config
 .text.sbus_init
                0x08005314       0x20 src/modules/px4iofirmware/CMakeFiles/px4io-v2.dir/__/__/lib/rc/sbus.c.obj
                0x08005314                sbus_init
 .text.sbus1_output
                0x08005334      0x12c src/modules/px4iofirmware/CMakeFiles/px4io-v2.dir/__/__/lib/rc/sbus.c.obj
                0x08005334                sbus1_output
 .text.sbus2_output
                0x08005460        0x4 src/modules/px4iofirmware/CMakeFiles/px4io-v2.dir/__/__/lib/rc/sbus.c.obj
                0x08005460                sbus2_output
 .text.sbus_parse
                0x08005464      0x31c src/modules/px4iofirmware/CMakeFiles/px4io-v2.dir/__/__/lib/rc/sbus.c.obj
                0x08005464                sbus_parse
 .text.sbus_input
                0x08005780       0x5c src/modules/px4iofirmware/CMakeFiles/px4io-v2.dir/__/__/lib/rc/sbus.c.obj
                0x08005780                sbus_input
 .text          0x080057dc        0x0 src/modules/px4iofirmware/CMakeFiles/px4io-v2.dir/__/__/lib/rc/dsm.c.obj
 .text.dsm_config
                0x080057dc       0x80 src/modules/px4iofirmware/CMakeFiles/px4io-v2.dir/__/__/lib/rc/dsm.c.obj
                0x080057dc                dsm_config
 .text.dsm_init
                0x0800585c       0x50 src/modules/px4iofirmware/CMakeFiles/px4io-v2.dir/__/__/lib/rc/dsm.c.obj
                0x0800585c                dsm_init
 .text.dsm_bind
                0x080058ac       0xa8 src/modules/px4iofirmware/CMakeFiles/px4io-v2.dir/__/__/lib/rc/dsm.c.obj
                0x080058ac                dsm_bind
 .text.dsm_parse
                0x08005954      0x448 src/modules/px4iofirmware/CMakeFiles/px4io-v2.dir/__/__/lib/rc/dsm.c.obj
                0x08005954                dsm_parse
 .text.dsm_input
                0x08005d9c       0x64 src/modules/px4iofirmware/CMakeFiles/px4io-v2.dir/__/__/lib/rc/dsm.c.obj
                0x08005d9c                dsm_input
 .text          0x08005e00        0x0 src/modules/px4iofirmware/CMakeFiles/px4io-v2.dir/__/__/drivers/stm32/drv_hrt.c.obj
 .text.hrt_absolute_time
                0x08005e00       0x4c src/modules/px4iofirmware/CMakeFiles/px4io-v2.dir/__/__/drivers/stm32/drv_hrt.c.obj
                0x08005e00                hrt_absolute_time
 .text.hrt_call_reschedule
                0x08005e4c       0x58 src/modules/px4iofirmware/CMakeFiles/px4io-v2.dir/__/__/drivers/stm32/drv_hrt.c.obj
 .text.hrt_call_enter
                0x08005ea4       0x50 src/modules/px4iofirmware/CMakeFiles/px4io-v2.dir/__/__/drivers/stm32/drv_hrt.c.obj
 .text.hrt_call_internal
                0x08005ef4       0x4c src/modules/px4iofirmware/CMakeFiles/px4io-v2.dir/__/__/drivers/stm32/drv_hrt.c.obj
 .text.hrt_tim_isr
                0x08005f40      0x21c src/modules/px4iofirmware/CMakeFiles/px4io-v2.dir/__/__/drivers/stm32/drv_hrt.c.obj
 .text.ts_to_abstime
                0x0800615c       0x28 src/modules/px4iofirmware/CMakeFiles/px4io-v2.dir/__/__/drivers/stm32/drv_hrt.c.obj
                0x0800615c                ts_to_abstime
 .text.abstime_to_ts
                0x08006184       0x30 src/modules/px4iofirmware/CMakeFiles/px4io-v2.dir/__/__/drivers/stm32/drv_hrt.c.obj
                0x08006184                abstime_to_ts
 .text.hrt_elapsed_time
                0x080061b4       0x24 src/modules/px4iofirmware/CMakeFiles/px4io-v2.dir/__/__/drivers/stm32/drv_hrt.c.obj
                0x080061b4                hrt_elapsed_time
 .text.hrt_store_absolute_time
                0x080061d8       0x18 src/modules/px4iofirmware/CMakeFiles/px4io-v2.dir/__/__/drivers/stm32/drv_hrt.c.obj
                0x080061d8                hrt_store_absolute_time
 .text.hrt_init
                0x080061f0       0xa8 src/modules/px4iofirmware/CMakeFiles/px4io-v2.dir/__/__/drivers/stm32/drv_hrt.c.obj
                0x080061f0                hrt_init
 .text.hrt_call_after
                0x08006298       0x38 src/modules/px4iofirmware/CMakeFiles/px4io-v2.dir/__/__/drivers/stm32/drv_hrt.c.obj
                0x08006298                hrt_call_after
 .text.hrt_call_at
                0x080062d0       0x1c src/modules/px4iofirmware/CMakeFiles/px4io-v2.dir/__/__/drivers/stm32/drv_hrt.c.obj
                0x080062d0                hrt_call_at
 .text.hrt_call_every
                0x080062ec       0x34 src/modules/px4iofirmware/CMakeFiles/px4io-v2.dir/__/__/drivers/stm32/drv_hrt.c.obj
                0x080062ec                hrt_call_every
 .text.hrt_called
                0x08006320       0x10 src/modules/px4iofirmware/CMakeFiles/px4io-v2.dir/__/__/drivers/stm32/drv_hrt.c.obj
                0x08006320                hrt_called
 .text.hrt_cancel
                0x08006330       0x2c src/modules/px4iofirmware/CMakeFiles/px4io-v2.dir/__/__/drivers/stm32/drv_hrt.c.obj
                0x08006330                hrt_cancel
 .text.hrt_call_init
                0x0800635c        0x8 src/modules/px4iofirmware/CMakeFiles/px4io-v2.dir/__/__/drivers/stm32/drv_hrt.c.obj
                0x0800635c                hrt_call_init
 .text.hrt_call_delay
                0x08006364       0x18 src/modules/px4iofirmware/CMakeFiles/px4io-v2.dir/__/__/drivers/stm32/drv_hrt.c.obj
                0x08006364                hrt_call_delay
 .text          0x0800637c        0x0 src/modules/px4iofirmware/CMakeFiles/px4io-v2.dir/__/__/drivers/stm32/drv_io_timer.c.obj
 .text.io_timer_handler
                0x0800637c       0xcc src/modules/px4iofirmware/CMakeFiles/px4io-v2.dir/__/__/drivers/stm32/drv_io_timer.c.obj
 .text.io_timer_handler0
                0x08006448        0x8 src/modules/px4iofirmware/CMakeFiles/px4io-v2.dir/__/__/drivers/stm32/drv_io_timer.c.obj
                0x08006448                io_timer_handler0
 .text.io_timer_handler1
                0x08006450        0x8 src/modules/px4iofirmware/CMakeFiles/px4io-v2.dir/__/__/drivers/stm32/drv_io_timer.c.obj
                0x08006450                io_timer_handler1
 .text.io_timer_handler2
                0x08006458        0x8 src/modules/px4iofirmware/CMakeFiles/px4io-v2.dir/__/__/drivers/stm32/drv_io_timer.c.obj
                0x08006458                io_timer_handler2
 .text.io_timer_handler3
                0x08006460        0x8 src/modules/px4iofirmware/CMakeFiles/px4io-v2.dir/__/__/drivers/stm32/drv_io_timer.c.obj
                0x08006460                io_timer_handler3
 .text.io_timer_is_channel_free
                0x08006468       0x5c src/modules/px4iofirmware/CMakeFiles/px4io-v2.dir/__/__/drivers/stm32/drv_io_timer.c.obj
                0x08006468                io_timer_is_channel_free
 .text.io_timer_validate_channel_index
                0x080064c4       0x44 src/modules/px4iofirmware/CMakeFiles/px4io-v2.dir/__/__/drivers/stm32/drv_io_timer.c.obj
                0x080064c4                io_timer_validate_channel_index
 .text.io_timer_get_mode_channels
                0x08006508       0x10 src/modules/px4iofirmware/CMakeFiles/px4io-v2.dir/__/__/drivers/stm32/drv_io_timer.c.obj
                0x08006508                io_timer_get_mode_channels
 .text.io_timer_get_channel_mode
                0x08006518       0x24 src/modules/px4iofirmware/CMakeFiles/px4io-v2.dir/__/__/drivers/stm32/drv_io_timer.c.obj
                0x08006518                io_timer_get_channel_mode
 .text.io_timer_set_rate
                0x0800653c       0x58 src/modules/px4iofirmware/CMakeFiles/px4io-v2.dir/__/__/drivers/stm32/drv_io_timer.c.obj
                0x0800653c                io_timer_set_rate
 .text.io_timer_channel_init
                0x08006594      0x224 src/modules/px4iofirmware/CMakeFiles/px4io-v2.dir/__/__/drivers/stm32/drv_io_timer.c.obj
                0x08006594                io_timer_channel_init
 .text.io_timer_set_enable
                0x080067b8      0x1d8 src/modules/px4iofirmware/CMakeFiles/px4io-v2.dir/__/__/drivers/stm32/drv_io_timer.c.obj
                0x080067b8                io_timer_set_enable
 .text.io_timer_free_channel
                0x08006990       0x94 src/modules/px4iofirmware/CMakeFiles/px4io-v2.dir/__/__/drivers/stm32/drv_io_timer.c.obj
                0x08006990                io_timer_free_channel
 .text.io_timer_set_ccr
                0x08006a24       0x78 src/modules/px4iofirmware/CMakeFiles/px4io-v2.dir/__/__/drivers/stm32/drv_io_timer.c.obj
                0x08006a24                io_timer_set_ccr
 .text.io_channel_get_ccr
                0x08006a9c       0x70 src/modules/px4iofirmware/CMakeFiles/px4io-v2.dir/__/__/drivers/stm32/drv_io_timer.c.obj
                0x08006a9c                io_channel_get_ccr
 .text.io_timer_get_group
                0x08006b0c       0x38 src/modules/px4iofirmware/CMakeFiles/px4io-v2.dir/__/__/drivers/stm32/drv_io_timer.c.obj
                0x08006b0c                io_timer_get_group
 .text          0x08006b44        0x0 src/modules/px4iofirmware/CMakeFiles/px4io-v2.dir/__/__/drivers/stm32/drv_pwm_servo.c.obj
 .text.up_pwm_servo_set
                0x08006b44        0x4 src/modules/px4iofirmware/CMakeFiles/px4io-v2.dir/__/__/drivers/stm32/drv_pwm_servo.c.obj
                0x08006b44                up_pwm_servo_set
 .text.up_pwm_servo_get
                0x08006b48        0x4 src/modules/px4iofirmware/CMakeFiles/px4io-v2.dir/__/__/drivers/stm32/drv_pwm_servo.c.obj
                0x08006b48                up_pwm_servo_get
 .text.up_pwm_servo_init
                0x08006b4c       0x78 src/modules/px4iofirmware/CMakeFiles/px4io-v2.dir/__/__/drivers/stm32/drv_pwm_servo.c.obj
                0x08006b4c                up_pwm_servo_init
 .text.up_pwm_servo_deinit
                0x08006bc4        0xc src/modules/px4iofirmware/CMakeFiles/px4io-v2.dir/__/__/drivers/stm32/drv_pwm_servo.c.obj
                0x08006bc4                up_pwm_servo_deinit
 .text.up_pwm_servo_set_rate_group_update
                0x08006bd0       0x30 src/modules/px4iofirmware/CMakeFiles/px4io-v2.dir/__/__/drivers/stm32/drv_pwm_servo.c.obj
                0x08006bd0                up_pwm_servo_set_rate_group_update
 .text.up_pwm_servo_set_rate
                0x08006c00       0x18 src/modules/px4iofirmware/CMakeFiles/px4io-v2.dir/__/__/drivers/stm32/drv_pwm_servo.c.obj
                0x08006c00                up_pwm_servo_set_rate
 .text.up_pwm_servo_get_rate_group
                0x08006c18        0x4 src/modules/px4iofirmware/CMakeFiles/px4io-v2.dir/__/__/drivers/stm32/drv_pwm_servo.c.obj
                0x08006c18                up_pwm_servo_get_rate_group
 .text.up_pwm_servo_arm
                0x08006c1c        0x8 src/modules/px4iofirmware/CMakeFiles/px4io-v2.dir/__/__/drivers/stm32/drv_pwm_servo.c.obj
                0x08006c1c                up_pwm_servo_arm
 .text          0x08006c24        0x0 src/modules/px4iofirmware/CMakeFiles/px4io-v2.dir/__/__/drivers/boards/px4io-v2/px4io_init.c.obj
 .text.stm32_boardinitialize
                0x08006c24      0x110 src/modules/px4iofirmware/CMakeFiles/px4io-v2.dir/__/__/drivers/boards/px4io-v2/px4io_init.c.obj
                0x08006c24                stm32_boardinitialize
 .text          0x08006d34        0x0 src/modules/px4iofirmware/CMakeFiles/px4io-v2.dir/__/__/drivers/boards/px4io-v2/px4io_timer_config.c.obj
 .text          0x08006d34        0x0 src/modules/px4iofirmware/CMakeFiles/px4io-v2.dir/serial.c.obj
 .text.dma_reset
                0x08006d34       0x70 src/modules/px4iofirmware/CMakeFiles/px4io-v2.dir/serial.c.obj
 .text.rx_dma_callback
                0x08006da4      0x15c src/modules/px4iofirmware/CMakeFiles/px4io-v2.dir/serial.c.obj
 .text.serial_interrupt
                0x08006f00       0xe4 src/modules/px4iofirmware/CMakeFiles/px4io-v2.dir/serial.c.obj
 .text.interface_init
                0x08006fe4       0xd0 src/modules/px4iofirmware/CMakeFiles/px4io-v2.dir/serial.c.obj
                0x08006fe4                interface_init
 .text          0x080070b4        0x0 src/modules/px4iofirmware/CMakeFiles/px4io-v2.dir/__/systemlib/hx_stream.c.obj
 .text.hx_stream_init
                0x080070b4       0x1c src/modules/px4iofirmware/CMakeFiles/px4io-v2.dir/__/systemlib/hx_stream.c.obj
                0x080070b4                hx_stream_init
 .text.hx_stream_free
                0x080070d0       0x20 src/modules/px4iofirmware/CMakeFiles/px4io-v2.dir/__/systemlib/hx_stream.c.obj
                0x080070d0                hx_stream_free
 .text.hx_stream_set_counters
                0x080070f0        0x8 src/modules/px4iofirmware/CMakeFiles/px4io-v2.dir/__/systemlib/hx_stream.c.obj
                0x080070f0                hx_stream_set_counters
 .text.hx_stream_reset
                0x080070f8       0x14 src/modules/px4iofirmware/CMakeFiles/px4io-v2.dir/__/systemlib/hx_stream.c.obj
                0x080070f8                hx_stream_reset
 .text.hx_stream_start
                0x0800710c       0x2c src/modules/px4iofirmware/CMakeFiles/px4io-v2.dir/__/systemlib/hx_stream.c.obj
                0x0800710c                hx_stream_start
 .text.hx_stream_send_next
                0x08007138       0x7c src/modules/px4iofirmware/CMakeFiles/px4io-v2.dir/__/systemlib/hx_stream.c.obj
                0x08007138                hx_stream_send_next
 .text.hx_stream_send
                0x080071b4       0x6c src/modules/px4iofirmware/CMakeFiles/px4io-v2.dir/__/systemlib/hx_stream.c.obj
                0x080071b4                hx_stream_send
 .text.hx_stream_rx
                0x08007220       0x90 src/modules/px4iofirmware/CMakeFiles/px4io-v2.dir/__/systemlib/hx_stream.c.obj
                0x08007220                hx_stream_rx
 .text          0x080072b0        0x0 /home/dexheimere/Firmware/build_px4fmu-v2_lpe/px4io-v2/NuttX/nuttx-export/libs/libnuttx.a(sched-irq_attach.o)
 .text.irq_attach
                0x080072b0       0x38 /home/dexheimere/Firmware/build_px4fmu-v2_lpe/px4io-v2/NuttX/nuttx-export/libs/libnuttx.a(sched-irq_attach.o)
                0x080072b0                irq_attach
 .text          0x080072e8        0x0 /home/dexheimere/Firmware/build_px4fmu-v2_lpe/px4io-v2/NuttX/nuttx-export/libs/libnuttx.a(sched-irq_initialize.o)
 .text.irq_initialize
                0x080072e8       0x1c /home/dexheimere/Firmware/build_px4fmu-v2_lpe/px4io-v2/NuttX/nuttx-export/libs/libnuttx.a(sched-irq_initialize.o)
                0x080072e8                irq_initialize
 .text          0x08007304        0x0 /home/dexheimere/Firmware/build_px4fmu-v2_lpe/px4io-v2/NuttX/nuttx-export/libs/libnuttx.a(sched-irq_unexpectedisr.o)
 .text.irq_unexpected_isr
                0x08007304       0x14 /home/dexheimere/Firmware/build_px4fmu-v2_lpe/px4io-v2/NuttX/nuttx-export/libs/libnuttx.a(sched-irq_unexpectedisr.o)
                0x08007304                irq_unexpected_isr
 .text          0x08007318        0x0 /home/dexheimere/Firmware/build_px4fmu-v2_lpe/px4io-v2/NuttX/nuttx-export/libs/libnuttx.a(c-lib_abort.o)
 .text.abort    0x08007318        0x8 /home/dexheimere/Firmware/build_px4fmu-v2_lpe/px4io-v2/NuttX/nuttx-export/libs/libnuttx.a(c-lib_abort.o)
                0x08007318                abort
 .text          0x08007320        0x0 /home/dexheimere/Firmware/build_px4fmu-v2_lpe/px4io-v2/NuttX/nuttx-export/libs/libnuttx.a(c-lib_cfsetspeed.o)
 .text.cfsetspeed
                0x08007320        0x6 /home/dexheimere/Firmware/build_px4fmu-v2_lpe/px4io-v2/NuttX/nuttx-export/libs/libnuttx.a(c-lib_cfsetspeed.o)
                0x08007320                cfsetspeed
 .text          0x08007326        0x0 /home/dexheimere/Firmware/build_px4fmu-v2_lpe/px4io-v2/NuttX/nuttx-export/libs/libnuttx.a(c-lib_crc32.o)
 *fill*         0x08007326        0x2 
 .text.crc32part
                0x08007328       0x24 /home/dexheimere/Firmware/build_px4fmu-v2_lpe/px4io-v2/NuttX/nuttx-export/libs/libnuttx.a(c-lib_crc32.o)
                0x08007328                crc32part
 .text.crc32    0x0800734c        0x6 /home/dexheimere/Firmware/build_px4fmu-v2_lpe/px4io-v2/NuttX/nuttx-export/libs/libnuttx.a(c-lib_crc32.o)
                0x0800734c                crc32
 .text          0x08007352        0x0 /home/dexheimere/Firmware/build_px4fmu-v2_lpe/px4io-v2/NuttX/nuttx-export/libs/libnuttx.a(c-lib_dprintf.o)
 .text.dprintf  0x08007352       0x1a /home/dexheimere/Firmware/build_px4fmu-v2_lpe/px4io-v2/NuttX/nuttx-export/libs/libnuttx.a(c-lib_dprintf.o)
                0x08007352                dprintf
 .text          0x0800736c        0x0 /home/dexheimere/Firmware/build_px4fmu-v2_lpe/px4io-v2/NuttX/nuttx-export/libs/libnuttx.a(c-lib_lowsyslog.o)
 .text.lowvsyslog
                0x0800736c       0x1a /home/dexheimere/Firmware/build_px4fmu-v2_lpe/px4io-v2/NuttX/nuttx-export/libs/libnuttx.a(c-lib_lowsyslog.o)
                0x0800736c                lowvsyslog
 .text.lowsyslog
                0x08007386       0x1a /home/dexheimere/Firmware/build_px4fmu-v2_lpe/px4io-v2/NuttX/nuttx-export/libs/libnuttx.a(c-lib_lowsyslog.o)
                0x08007386                lowsyslog
 .text          0x080073a0        0x0 /home/dexheimere/Firmware/build_px4fmu-v2_lpe/px4io-v2/NuttX/nuttx-export/libs/libnuttx.a(c-lib_memchr.o)
 .text.memchr   0x080073a0       0x1c /home/dexheimere/Firmware/build_px4fmu-v2_lpe/px4io-v2/NuttX/nuttx-export/libs/libnuttx.a(c-lib_memchr.o)
                0x080073a0                memchr
 .text          0x080073bc        0x0 /home/dexheimere/Firmware/build_px4fmu-v2_lpe/px4io-v2/NuttX/nuttx-export/libs/libnuttx.a(c-lib_memcpy.o)
 .text.memcpy   0x080073bc       0x16 /home/dexheimere/Firmware/build_px4fmu-v2_lpe/px4io-v2/NuttX/nuttx-export/libs/libnuttx.a(c-lib_memcpy.o)
                0x080073bc                memcpy
 .text          0x080073d2        0x0 /home/dexheimere/Firmware/build_px4fmu-v2_lpe/px4io-v2/NuttX/nuttx-export/libs/libnuttx.a(c-lib_memset.o)
 .text.memset   0x080073d2       0x10 /home/dexheimere/Firmware/build_px4fmu-v2_lpe/px4io-v2/NuttX/nuttx-export/libs/libnuttx.a(c-lib_memset.o)
                0x080073d2                memset
 .text          0x080073e2        0x0 /home/dexheimere/Firmware/build_px4fmu-v2_lpe/px4io-v2/NuttX/nuttx-export/libs/libnuttx.a(c-lib_printf.o)
 .text.printf   0x080073e2       0x1a /home/dexheimere/Firmware/build_px4fmu-v2_lpe/px4io-v2/NuttX/nuttx-export/libs/libnuttx.a(c-lib_printf.o)
                0x080073e2                printf
 .text          0x080073fc        0x0 /home/dexheimere/Firmware/build_px4fmu-v2_lpe/px4io-v2/NuttX/nuttx-export/libs/libnuttx.a(c-lib_sscanf.o)
 .text.findwidth
                0x080073fc       0x34 /home/dexheimere/Firmware/build_px4fmu-v2_lpe/px4io-v2/NuttX/nuttx-export/libs/libnuttx.a(c-lib_sscanf.o)
 .text.vsscanf  0x08007430      0x304 /home/dexheimere/Firmware/build_px4fmu-v2_lpe/px4io-v2/NuttX/nuttx-export/libs/libnuttx.a(c-lib_sscanf.o)
                0x08007430                vsscanf
 .text.sscanf   0x08007734       0x1a /home/dexheimere/Firmware/build_px4fmu-v2_lpe/px4io-v2/NuttX/nuttx-export/libs/libnuttx.a(c-lib_sscanf.o)
                0x08007734                sscanf
 .text          0x0800774e        0x0 /home/dexheimere/Firmware/build_px4fmu-v2_lpe/px4io-v2/NuttX/nuttx-export/libs/libnuttx.a(c-lib_strchr.o)
 .text.strchr   0x0800774e       0x16 /home/dexheimere/Firmware/build_px4fmu-v2_lpe/px4io-v2/NuttX/nuttx-export/libs/libnuttx.a(c-lib_strchr.o)
                0x0800774e                strchr
 .text          0x08007764        0x0 /home/dexheimere/Firmware/build_px4fmu-v2_lpe/px4io-v2/NuttX/nuttx-export/libs/libnuttx.a(c-lib_strcmp.o)
 .text.strcmp   0x08007764       0x16 /home/dexheimere/Firmware/build_px4fmu-v2_lpe/px4io-v2/NuttX/nuttx-export/libs/libnuttx.a(c-lib_strcmp.o)
                0x08007764                strcmp
 .text          0x0800777a        0x0 /home/dexheimere/Firmware/build_px4fmu-v2_lpe/px4io-v2/NuttX/nuttx-export/libs/libnuttx.a(c-lib_strcspn.o)
 .text.strcspn  0x0800777a       0x1e /home/dexheimere/Firmware/build_px4fmu-v2_lpe/px4io-v2/NuttX/nuttx-export/libs/libnuttx.a(c-lib_strcspn.o)
                0x0800777a                strcspn
 .text          0x08007798        0x0 /home/dexheimere/Firmware/build_px4fmu-v2_lpe/px4io-v2/NuttX/nuttx-export/libs/libnuttx.a(c-lib_strncpy.o)
 .text.strncpy  0x08007798       0x22 /home/dexheimere/Firmware/build_px4fmu-v2_lpe/px4io-v2/NuttX/nuttx-export/libs/libnuttx.a(c-lib_strncpy.o)
                0x08007798                strncpy
 .text          0x080077ba        0x0 /home/dexheimere/Firmware/build_px4fmu-v2_lpe/px4io-v2/NuttX/nuttx-export/libs/libnuttx.a(c-lib_strtol.o)
 .text.strtol   0x080077ba       0x3c /home/dexheimere/Firmware/build_px4fmu-v2_lpe/px4io-v2/NuttX/nuttx-export/libs/libnuttx.a(c-lib_strtol.o)
                0x080077ba                strtol
 .text          0x080077f6        0x0 /home/dexheimere/Firmware/build_px4fmu-v2_lpe/px4io-v2/NuttX/nuttx-export/libs/libnuttx.a(c-lib_strtoul.o)
 .text.strtoul  0x080077f6       0x48 /home/dexheimere/Firmware/build_px4fmu-v2_lpe/px4io-v2/NuttX/nuttx-export/libs/libnuttx.a(c-lib_strtoul.o)
                0x080077f6                strtoul
 .text          0x0800783e        0x0 /home/dexheimere/Firmware/build_px4fmu-v2_lpe/px4io-v2/NuttX/nuttx-export/libs/libnuttx.a(c-lib_syslog.o)
 .text.vsyslog  0x0800783e       0x1e /home/dexheimere/Firmware/build_px4fmu-v2_lpe/px4io-v2/NuttX/nuttx-export/libs/libnuttx.a(c-lib_syslog.o)
                0x0800783e                vsyslog
 .text.syslog   0x0800785c       0x1a /home/dexheimere/Firmware/build_px4fmu-v2_lpe/px4io-v2/NuttX/nuttx-export/libs/libnuttx.a(c-lib_syslog.o)
                0x0800785c                syslog
 .text          0x08007876        0x0 /home/dexheimere/Firmware/build_px4fmu-v2_lpe/px4io-v2/NuttX/nuttx-export/libs/libnuttx.a(c-lib_tcgetattr.o)
 .text.tcgetattr
                0x08007876        0xa /home/dexheimere/Firmware/build_px4fmu-v2_lpe/px4io-v2/NuttX/nuttx-export/libs/libnuttx.a(c-lib_tcgetattr.o)
                0x08007876                tcgetattr
 .text          0x08007880        0x0 /home/dexheimere/Firmware/build_px4fmu-v2_lpe/px4io-v2/NuttX/nuttx-export/libs/libnuttx.a(c-lib_tcsetattr.o)
 .text.tcsetattr
                0x08007880       0x10 /home/dexheimere/Firmware/build_px4fmu-v2_lpe/px4io-v2/NuttX/nuttx-export/libs/libnuttx.a(c-lib_tcsetattr.o)
                0x08007880                tcsetattr
 .text          0x08007890        0x0 /home/dexheimere/Firmware/build_px4fmu-v2_lpe/px4io-v2/NuttX/nuttx-export/libs/libnuttx.a(c-lib_vdprintf.o)
 .text.vdprintf
                0x08007890       0x1e /home/dexheimere/Firmware/build_px4fmu-v2_lpe/px4io-v2/NuttX/nuttx-export/libs/libnuttx.a(c-lib_vdprintf.o)
                0x08007890                vdprintf
 .text          0x080078ae        0x0 /home/dexheimere/Firmware/build_px4fmu-v2_lpe/px4io-v2/NuttX/nuttx-export/libs/libnuttx.a(c-lib_vsnprintf.o)
 .text.vsnprintf
                0x080078ae       0x20 /home/dexheimere/Firmware/build_px4fmu-v2_lpe/px4io-v2/NuttX/nuttx-export/libs/libnuttx.a(c-lib_vsnprintf.o)
                0x080078ae                vsnprintf
 .text          0x080078ce        0x0 /home/dexheimere/Firmware/build_px4fmu-v2_lpe/px4io-v2/NuttX/nuttx-export/libs/libnuttx.a(c-sq_addafter.o)
 .text.sq_addafter
                0x080078ce       0x1c /home/dexheimere/Firmware/build_px4fmu-v2_lpe/px4io-v2/NuttX/nuttx-export/libs/libnuttx.a(c-sq_addafter.o)
                0x080078ce                sq_addafter
 .text          0x080078ea        0x0 /home/dexheimere/Firmware/build_px4fmu-v2_lpe/px4io-v2/NuttX/nuttx-export/libs/libnuttx.a(c-sq_addfirst.o)
 .text.sq_addfirst
                0x080078ea        0xe /home/dexheimere/Firmware/build_px4fmu-v2_lpe/px4io-v2/NuttX/nuttx-export/libs/libnuttx.a(c-sq_addfirst.o)
                0x080078ea                sq_addfirst
 .text          0x080078f8        0x0 /home/dexheimere/Firmware/build_px4fmu-v2_lpe/px4io-v2/NuttX/nuttx-export/libs/libnuttx.a(c-sq_addlast.o)
 .text.sq_addlast
                0x080078f8       0x14 /home/dexheimere/Firmware/build_px4fmu-v2_lpe/px4io-v2/NuttX/nuttx-export/libs/libnuttx.a(c-sq_addlast.o)
                0x080078f8                sq_addlast
 .text          0x0800790c        0x0 /home/dexheimere/Firmware/build_px4fmu-v2_lpe/px4io-v2/NuttX/nuttx-export/libs/libnuttx.a(c-sq_rem.o)
 .text.sq_rem   0x0800790c       0x2c /home/dexheimere/Firmware/build_px4fmu-v2_lpe/px4io-v2/NuttX/nuttx-export/libs/libnuttx.a(c-sq_rem.o)
                0x0800790c                sq_rem
 .text          0x08007938        0x0 /home/dexheimere/Firmware/build_px4fmu-v2_lpe/px4io-v2/NuttX/nuttx-export/libs/libnuttx.a(mm-mm_calloc.o)
 .text.calloc   0x08007938        0xe /home/dexheimere/Firmware/build_px4fmu-v2_lpe/px4io-v2/NuttX/nuttx-export/libs/libnuttx.a(mm-mm_calloc.o)
                0x08007938                calloc
 .text          0x08007946        0x0 /home/dexheimere/Firmware/build_px4fmu-v2_lpe/px4io-v2/NuttX/nuttx-export/libs/libnuttx.a(mm-mm_free.o)
 *fill*         0x08007946        0x2 
 .text.free     0x08007948       0xa8 /home/dexheimere/Firmware/build_px4fmu-v2_lpe/px4io-v2/NuttX/nuttx-export/libs/libnuttx.a(mm-mm_free.o)
                0x08007948                free
 .text          0x080079f0        0x0 /home/dexheimere/Firmware/build_px4fmu-v2_lpe/px4io-v2/NuttX/nuttx-export/libs/libnuttx.a(mm-mm_mallinfo.o)
 .text.mallinfo
                0x080079f0       0x5c /home/dexheimere/Firmware/build_px4fmu-v2_lpe/px4io-v2/NuttX/nuttx-export/libs/libnuttx.a(mm-mm_mallinfo.o)
                0x080079f0                mallinfo
 .text          0x08007a4c        0x0 /home/dexheimere/Firmware/build_px4fmu-v2_lpe/px4io-v2/NuttX/nuttx-export/libs/libnuttx.a(mm-mm_malloc.o)
 .text.malloc   0x08007a4c       0x94 /home/dexheimere/Firmware/build_px4fmu-v2_lpe/px4io-v2/NuttX/nuttx-export/libs/libnuttx.a(mm-mm_malloc.o)
                0x08007a4c                malloc
 .text          0x08007ae0        0x0 /home/dexheimere/Firmware/build_px4fmu-v2_lpe/px4io-v2/NuttX/nuttx-export/libs/libnuttx.a(mm-mm_sem.o)
 .text.mm_seminitialize
                0x08007ae0       0x18 /home/dexheimere/Firmware/build_px4fmu-v2_lpe/px4io-v2/NuttX/nuttx-export/libs/libnuttx.a(mm-mm_sem.o)
                0x08007ae0                mm_seminitialize
 .text.mm_trysemaphore
                0x08007af8       0x32 /home/dexheimere/Firmware/build_px4fmu-v2_lpe/px4io-v2/NuttX/nuttx-export/libs/libnuttx.a(mm-mm_sem.o)
                0x08007af8                mm_trysemaphore
 *fill*         0x08007b2a        0x2 
 .text.mm_takesemaphore
                0x08007b2c       0x40 /home/dexheimere/Firmware/build_px4fmu-v2_lpe/px4io-v2/NuttX/nuttx-export/libs/libnuttx.a(mm-mm_sem.o)
                0x08007b2c                mm_takesemaphore
 .text.mm_givesemaphore
                0x08007b6c       0x2c /home/dexheimere/Firmware/build_px4fmu-v2_lpe/px4io-v2/NuttX/nuttx-export/libs/libnuttx.a(mm-mm_sem.o)
                0x08007b6c                mm_givesemaphore
 .text          0x08007b98        0x0 /home/dexheimere/Firmware/build_px4fmu-v2_lpe/px4io-v2/NuttX/nuttx-export/libs/libnuttx.a(mm-mm_size2ndx.o)
 .text.mm_size2ndx
                0x08007b98       0x1a /home/dexheimere/Firmware/build_px4fmu-v2_lpe/px4io-v2/NuttX/nuttx-export/libs/libnuttx.a(mm-mm_size2ndx.o)
                0x08007b98                mm_size2ndx
 .text          0x08007bb2        0x0 /home/dexheimere/Firmware/build_px4fmu-v2_lpe/px4io-v2/NuttX/nuttx-export/libs/libnuttx.a(mm-mm_user.o)
 *fill*         0x08007bb2        0x2 
 .text.umm_initialize
                0x08007bb4       0x10 /home/dexheimere/Firmware/build_px4fmu-v2_lpe/px4io-v2/NuttX/nuttx-export/libs/libnuttx.a(mm-mm_user.o)
                0x08007bb4                umm_initialize
 .text.umm_addregion
                0x08007bc4       0x10 /home/dexheimere/Firmware/build_px4fmu-v2_lpe/px4io-v2/NuttX/nuttx-export/libs/libnuttx.a(mm-mm_user.o)
                0x08007bc4                umm_addregion
 .text.umm_trysemaphore
                0x08007bd4        0xc /home/dexheimere/Firmware/build_px4fmu-v2_lpe/px4io-v2/NuttX/nuttx-export/libs/libnuttx.a(mm-mm_user.o)
                0x08007bd4                umm_trysemaphore
 .text.umm_givesemaphore
                0x08007be0        0xc /home/dexheimere/Firmware/build_px4fmu-v2_lpe/px4io-v2/NuttX/nuttx-export/libs/libnuttx.a(mm-mm_user.o)
                0x08007be0                umm_givesemaphore
 .text          0x08007bec        0x0 /home/dexheimere/Firmware/build_px4fmu-v2_lpe/px4io-v2/NuttX/nuttx-export/libs/libnuttx.a(mm-mm_zalloc.o)
 .text.zalloc   0x08007bec       0x18 /home/dexheimere/Firmware/build_px4fmu-v2_lpe/px4io-v2/NuttX/nuttx-export/libs/libnuttx.a(mm-mm_zalloc.o)
                0x08007bec                zalloc
 .text          0x08007c04        0x0 /home/dexheimere/Firmware/build_px4fmu-v2_lpe/px4io-v2/NuttX/nuttx-export/libs/libnuttx.a(arch-stm32_dma.o)
 .text.stm32_dmachandisable
                0x08007c04       0x22 /home/dexheimere/Firmware/build_px4fmu-v2_lpe/px4io-v2/NuttX/nuttx-export/libs/libnuttx.a(arch-stm32_dma.o)
 *fill*         0x08007c26        0x2 
 .text.stm32_dmainterrupt
                0x08007c28       0x54 /home/dexheimere/Firmware/build_px4fmu-v2_lpe/px4io-v2/NuttX/nuttx-export/libs/libnuttx.a(arch-stm32_dma.o)
 .text.up_dmainitialize
                0x08007c7c       0x3c /home/dexheimere/Firmware/build_px4fmu-v2_lpe/px4io-v2/NuttX/nuttx-export/libs/libnuttx.a(arch-stm32_dma.o)
                0x08007c7c                up_dmainitialize
 .text.stm32_dmachannel
                0x08007cb8       0x30 /home/dexheimere/Firmware/build_px4fmu-v2_lpe/px4io-v2/NuttX/nuttx-export/libs/libnuttx.a(arch-stm32_dma.o)
                0x08007cb8                stm32_dmachannel
 .text.stm32_dmafree
                0x08007ce8        0x6 /home/dexheimere/Firmware/build_px4fmu-v2_lpe/px4io-v2/NuttX/nuttx-export/libs/libnuttx.a(arch-stm32_dma.o)
                0x08007ce8                stm32_dmafree
 .text.stm32_dmasetup
                0x08007cee       0x2a /home/dexheimere/Firmware/build_px4fmu-v2_lpe/px4io-v2/NuttX/nuttx-export/libs/libnuttx.a(arch-stm32_dma.o)
                0x08007cee                stm32_dmasetup
 .text.stm32_dmastart
                0x08007d18       0x28 /home/dexheimere/Firmware/build_px4fmu-v2_lpe/px4io-v2/NuttX/nuttx-export/libs/libnuttx.a(arch-stm32_dma.o)
                0x08007d18                stm32_dmastart
 .text.stm32_dmastop
                0x08007d40        0x4 /home/dexheimere/Firmware/build_px4fmu-v2_lpe/px4io-v2/NuttX/nuttx-export/libs/libnuttx.a(arch-stm32_dma.o)
                0x08007d40                stm32_dmastop
 .text.stm32_dmaresidual
                0x08007d44        0x6 /home/dexheimere/Firmware/build_px4fmu-v2_lpe/px4io-v2/NuttX/nuttx-export/libs/libnuttx.a(arch-stm32_dma.o)
                0x08007d44                stm32_dmaresidual
 .text          0x08007d4a        0x0 /home/dexheimere/Firmware/build_px4fmu-v2_lpe/px4io-v2/NuttX/nuttx-export/libs/libnuttx.a(arch-stm32_gpio.o)
 *fill*         0x08007d4a        0x2 
 .text.stm32_gpioinit
                0x08007d4c       0x10 /home/dexheimere/Firmware/build_px4fmu-v2_lpe/px4io-v2/NuttX/nuttx-export/libs/libnuttx.a(arch-stm32_gpio.o)
                0x08007d4c                stm32_gpioinit
 .text.stm32_configgpio
                0x08007d5c       0xd0 /home/dexheimere/Firmware/build_px4fmu-v2_lpe/px4io-v2/NuttX/nuttx-export/libs/libnuttx.a(arch-stm32_gpio.o)
                0x08007d5c                stm32_configgpio
 .text.stm32_unconfiggpio
                0x08007e2c        0xc /home/dexheimere/Firmware/build_px4fmu-v2_lpe/px4io-v2/NuttX/nuttx-export/libs/libnuttx.a(arch-stm32_gpio.o)
                0x08007e2c                stm32_unconfiggpio
 .text.stm32_gpiowrite
                0x08007e38       0x2c /home/dexheimere/Firmware/build_px4fmu-v2_lpe/px4io-v2/NuttX/nuttx-export/libs/libnuttx.a(arch-stm32_gpio.o)
                0x08007e38                stm32_gpiowrite
 .text.stm32_gpioread
                0x08007e64       0x2c /home/dexheimere/Firmware/build_px4fmu-v2_lpe/px4io-v2/NuttX/nuttx-export/libs/libnuttx.a(arch-stm32_gpio.o)
                0x08007e64                stm32_gpioread
 .text          0x08007e90        0x0 /home/dexheimere/Firmware/build_px4fmu-v2_lpe/px4io-v2/NuttX/nuttx-export/libs/libnuttx.a(arch-stm32_irq.o)
 .text.stm32_irqinfo
                0x08007e90       0x6c /home/dexheimere/Firmware/build_px4fmu-v2_lpe/px4io-v2/NuttX/nuttx-export/libs/libnuttx.a(arch-stm32_irq.o)
 .text.up_irqinitialize
                0x08007efc       0x64 /home/dexheimere/Firmware/build_px4fmu-v2_lpe/px4io-v2/NuttX/nuttx-export/libs/libnuttx.a(arch-stm32_irq.o)
                0x08007efc                up_irqinitialize
 .text.up_disable_irq
                0x08007f60       0x1e /home/dexheimere/Firmware/build_px4fmu-v2_lpe/px4io-v2/NuttX/nuttx-export/libs/libnuttx.a(arch-stm32_irq.o)
                0x08007f60                up_disable_irq
 .text.up_enable_irq
                0x08007f7e       0x1c /home/dexheimere/Firmware/build_px4fmu-v2_lpe/px4io-v2/NuttX/nuttx-export/libs/libnuttx.a(arch-stm32_irq.o)
                0x08007f7e                up_enable_irq
 .text.up_maskack_irq
                0x08007f9a        0x4 /home/dexheimere/Firmware/build_px4fmu-v2_lpe/px4io-v2/NuttX/nuttx-export/libs/libnuttx.a(arch-stm32_irq.o)
                0x08007f9a                up_maskack_irq
 .text          0x08007f9e        0x0 /home/dexheimere/Firmware/build_px4fmu-v2_lpe/px4io-v2/NuttX/nuttx-export/libs/libnuttx.a(arch-stm32_serial.o)
 .text.up_restoreusartint
                0x08007f9e       0x26 /home/dexheimere/Firmware/build_px4fmu-v2_lpe/px4io-v2/NuttX/nuttx-export/libs/libnuttx.a(arch-stm32_serial.o)
 .text.up_set_format
                0x08007fc4       0x72 /home/dexheimere/Firmware/build_px4fmu-v2_lpe/px4io-v2/NuttX/nuttx-export/libs/libnuttx.a(arch-stm32_serial.o)
 .text.up_shutdown
                0x08008036       0x1c /home/dexheimere/Firmware/build_px4fmu-v2_lpe/px4io-v2/NuttX/nuttx-export/libs/libnuttx.a(arch-stm32_serial.o)
 .text.up_receive
                0x08008052       0x16 /home/dexheimere/Firmware/build_px4fmu-v2_lpe/px4io-v2/NuttX/nuttx-export/libs/libnuttx.a(arch-stm32_serial.o)
 .text.up_rxint
                0x08008068       0x2c /home/dexheimere/Firmware/build_px4fmu-v2_lpe/px4io-v2/NuttX/nuttx-export/libs/libnuttx.a(arch-stm32_serial.o)
 .text.up_rxavailable
                0x08008094        0xc /home/dexheimere/Firmware/build_px4fmu-v2_lpe/px4io-v2/NuttX/nuttx-export/libs/libnuttx.a(arch-stm32_serial.o)
 .text.up_dma_rxint
                0x080080a0        0x8 /home/dexheimere/Firmware/build_px4fmu-v2_lpe/px4io-v2/NuttX/nuttx-export/libs/libnuttx.a(arch-stm32_serial.o)
 .text.up_send  0x080080a8        0x8 /home/dexheimere/Firmware/build_px4fmu-v2_lpe/px4io-v2/NuttX/nuttx-export/libs/libnuttx.a(arch-stm32_serial.o)
 .text.up_txready
                0x080080b0        0xc /home/dexheimere/Firmware/build_px4fmu-v2_lpe/px4io-v2/NuttX/nuttx-export/libs/libnuttx.a(arch-stm32_serial.o)
 .text.up_txint
                0x080080bc       0x38 /home/dexheimere/Firmware/build_px4fmu-v2_lpe/px4io-v2/NuttX/nuttx-export/libs/libnuttx.a(arch-stm32_serial.o)
 .text.up_interrupt_common
                0x080080f4       0x4e /home/dexheimere/Firmware/build_px4fmu-v2_lpe/px4io-v2/NuttX/nuttx-export/libs/libnuttx.a(arch-stm32_serial.o)
 *fill*         0x08008142        0x2 
 .text.up_interrupt_usart3
                0x08008144        0xc /home/dexheimere/Firmware/build_px4fmu-v2_lpe/px4io-v2/NuttX/nuttx-export/libs/libnuttx.a(arch-stm32_serial.o)
 .text.up_interrupt_usart2
                0x08008150        0xc /home/dexheimere/Firmware/build_px4fmu-v2_lpe/px4io-v2/NuttX/nuttx-export/libs/libnuttx.a(arch-stm32_serial.o)
 .text.up_interrupt_usart1
                0x0800815c        0xc /home/dexheimere/Firmware/build_px4fmu-v2_lpe/px4io-v2/NuttX/nuttx-export/libs/libnuttx.a(arch-stm32_serial.o)
 .text.up_dma_receive
                0x08008168       0x28 /home/dexheimere/Firmware/build_px4fmu-v2_lpe/px4io-v2/NuttX/nuttx-export/libs/libnuttx.a(arch-stm32_serial.o)
 .text.up_ioctl
                0x08008190       0xa0 /home/dexheimere/Firmware/build_px4fmu-v2_lpe/px4io-v2/NuttX/nuttx-export/libs/libnuttx.a(arch-stm32_serial.o)
 .text.up_detach
                0x08008230       0x1a /home/dexheimere/Firmware/build_px4fmu-v2_lpe/px4io-v2/NuttX/nuttx-export/libs/libnuttx.a(arch-stm32_serial.o)
 .text.up_attach
                0x0800824a       0x1e /home/dexheimere/Firmware/build_px4fmu-v2_lpe/px4io-v2/NuttX/nuttx-export/libs/libnuttx.a(arch-stm32_serial.o)
 .text.up_dma_shutdown
                0x08008268       0x1a /home/dexheimere/Firmware/build_px4fmu-v2_lpe/px4io-v2/NuttX/nuttx-export/libs/libnuttx.a(arch-stm32_serial.o)
 .text.up_setup
                0x08008282       0x58 /home/dexheimere/Firmware/build_px4fmu-v2_lpe/px4io-v2/NuttX/nuttx-export/libs/libnuttx.a(arch-stm32_serial.o)
 *fill*         0x080082da        0x2 
 .text.up_dma_setup
                0x080082dc       0x50 /home/dexheimere/Firmware/build_px4fmu-v2_lpe/px4io-v2/NuttX/nuttx-export/libs/libnuttx.a(arch-stm32_serial.o)
 .text.up_dma_rxavailable
                0x0800832c       0x18 /home/dexheimere/Firmware/build_px4fmu-v2_lpe/px4io-v2/NuttX/nuttx-export/libs/libnuttx.a(arch-stm32_serial.o)
 .text.up_dma_rxcallback
                0x08008344       0x1e /home/dexheimere/Firmware/build_px4fmu-v2_lpe/px4io-v2/NuttX/nuttx-export/libs/libnuttx.a(arch-stm32_serial.o)
 *fill*         0x08008362        0x2 
 .text.up_earlyserialinit
                0x08008364       0x34 /home/dexheimere/Firmware/build_px4fmu-v2_lpe/px4io-v2/NuttX/nuttx-export/libs/libnuttx.a(arch-stm32_serial.o)
                0x08008364                up_earlyserialinit
 .text.up_serialinit
                0x08008398       0x60 /home/dexheimere/Firmware/build_px4fmu-v2_lpe/px4io-v2/NuttX/nuttx-export/libs/libnuttx.a(arch-stm32_serial.o)
                0x08008398                up_serialinit
 .text.stm32_serial_dma_poll
                0x080083f8       0x34 /home/dexheimere/Firmware/build_px4fmu-v2_lpe/px4io-v2/NuttX/nuttx-export/libs/libnuttx.a(arch-stm32_serial.o)
                0x080083f8                stm32_serial_dma_poll
 .text.up_putc  0x0800842c       0x3c /home/dexheimere/Firmware/build_px4fmu-v2_lpe/px4io-v2/NuttX/nuttx-export/libs/libnuttx.a(arch-stm32_serial.o)
                0x0800842c                up_putc
 .text          0x08008468        0x0 /home/dexheimere/Firmware/build_px4fmu-v2_lpe/px4io-v2/NuttX/nuttx-export/libs/libnuttx.a(arch-stm32_start.o)
 .text.__start  0x08008468       0x54 /home/dexheimere/Firmware/build_px4fmu-v2_lpe/px4io-v2/NuttX/nuttx-export/libs/libnuttx.a(arch-stm32_start.o)
                0x08008468                __start
 .text          0x080084bc        0x0 /home/dexheimere/Firmware/build_px4fmu-v2_lpe/px4io-v2/NuttX/nuttx-export/libs/libnuttx.a(arch-up_assert.o)
 .text.up_assert
                0x080084bc      0x140 /home/dexheimere/Firmware/build_px4fmu-v2_lpe/px4io-v2/NuttX/nuttx-export/libs/libnuttx.a(arch-up_assert.o)
                0x080084bc                up_assert
 .text          0x080085fc        0x0 /home/dexheimere/Firmware/build_px4fmu-v2_lpe/px4io-v2/NuttX/nuttx-export/libs/libnuttx.a(arch-up_hardfault.o)
 .text.up_hardfault
                0x080085fc       0x40 /home/dexheimere/Firmware/build_px4fmu-v2_lpe/px4io-v2/NuttX/nuttx-export/libs/libnuttx.a(arch-up_hardfault.o)
                0x080085fc                up_hardfault
 .text          0x0800863c        0x0 /home/dexheimere/Firmware/build_px4fmu-v2_lpe/px4io-v2/NuttX/nuttx-export/libs/libnuttx.a(arch-up_modifyreg32.o)
 .text.modifyreg32
                0x0800863c       0x1c /home/dexheimere/Firmware/build_px4fmu-v2_lpe/px4io-v2/NuttX/nuttx-export/libs/libnuttx.a(arch-up_modifyreg32.o)
                0x0800863c                modifyreg32
 .text          0x08008658        0x0 /home/dexheimere/Firmware/build_px4fmu-v2_lpe/px4io-v2/NuttX/nuttx-export/libs/libnuttx.a(arch-up_svcall.o)
 .text.up_svcall
                0x08008658       0x34 /home/dexheimere/Firmware/build_px4fmu-v2_lpe/px4io-v2/NuttX/nuttx-export/libs/libnuttx.a(arch-up_svcall.o)
                0x08008658                up_svcall
 .text          0x0800868c        0x0 /home/dexheimere/Firmware/build_px4fmu-v2_lpe/px4io-v2/NuttX/nuttx-export/libs/libnuttx.a(arch-up_systemreset.o)
 .text.up_systemreset
                0x0800868c       0x1c /home/dexheimere/Firmware/build_px4fmu-v2_lpe/px4io-v2/NuttX/nuttx-export/libs/libnuttx.a(arch-up_systemreset.o)
                0x0800868c                up_systemreset
 .text          0x080086a8        0x0 /home/dexheimere/Firmware/build_px4fmu-v2_lpe/px4io-v2/NuttX/nuttx-export/libs/libnuttx.a(arch-up_udelay.o)
 .text.up_udelay
                0x080086a8       0x72 /home/dexheimere/Firmware/build_px4fmu-v2_lpe/px4io-v2/NuttX/nuttx-export/libs/libnuttx.a(arch-up_udelay.o)
                0x080086a8                up_udelay
 .text          0x0800871a        0x0 /home/dexheimere/Firmware/build_px4fmu-v2_lpe/px4io-v2/NuttX/nuttx-export/libs/libnuttx.a(arch-up_vectors.o)
 .text          0x0800871a        0x0 /home/dexheimere/Firmware/build_px4fmu-v2_lpe/px4io-v2/NuttX/nuttx-export/libs/libnuttx.a(cxx-libxx_cxa_atexit.o)
 .text.__cxa_atexit
                0x0800871a        0x4 /home/dexheimere/Firmware/build_px4fmu-v2_lpe/px4io-v2/NuttX/nuttx-export/libs/libnuttx.a(cxx-libxx_cxa_atexit.o)
                0x0800871a                __cxa_atexit
 .text          0x0800871e        0x0 /home/dexheimere/Firmware/build_px4fmu-v2_lpe/px4io-v2/NuttX/nuttx-export/libs/libnuttx.a(cxx-libxx_cxapurevirtual.o)
 *fill*         0x0800871e        0x2 
 .text.__cxa_pure_virtual
                0x08008720       0x10 /home/dexheimere/Firmware/build_px4fmu-v2_lpe/px4io-v2/NuttX/nuttx-export/libs/libnuttx.a(cxx-libxx_cxapurevirtual.o)
                0x08008720                __cxa_pure_virtual
 .text          0x08008730        0x0 /home/dexheimere/Firmware/build_px4fmu-v2_lpe/px4io-v2/NuttX/nuttx-export/libs/libnuttx.a(cxx-libxx_delete.o)
 .text._ZdlPv   0x08008730        0x4 /home/dexheimere/Firmware/build_px4fmu-v2_lpe/px4io-v2/NuttX/nuttx-export/libs/libnuttx.a(cxx-libxx_delete.o)
                0x08008730                operator delete(void*)
 .text          0x08008734        0x0 /home/dexheimere/Firmware/build_px4fmu-v2_lpe/px4io-v2/NuttX/nuttx-export/libs/libnuttx.a(cxx-libxx_eabi_atexit.o)
 .text.__aeabi_atexit
                0x08008734        0xa /home/dexheimere/Firmware/build_px4fmu-v2_lpe/px4io-v2/NuttX/nuttx-export/libs/libnuttx.a(cxx-libxx_eabi_atexit.o)
                0x08008734                __aeabi_atexit
 .text          0x0800873e        0x0 /home/dexheimere/Firmware/build_px4fmu-v2_lpe/px4io-v2/NuttX/nuttx-export/libs/libnuttx.a(cxx-libxx_new.o)
 .text._Znwj    0x0800873e        0xa /home/dexheimere/Firmware/build_px4fmu-v2_lpe/px4io-v2/NuttX/nuttx-export/libs/libnuttx.a(cxx-libxx_new.o)
                0x0800873e                operator new(unsigned int)
 .text          0x08008748        0x0 /home/dexheimere/Firmware/build_px4fmu-v2_lpe/px4io-v2/NuttX/nuttx-export/libs/libnuttx.a(fs-fs_ioctl.o)
 .text.ioctl    0x08008748       0x48 /home/dexheimere/Firmware/build_px4fmu-v2_lpe/px4io-v2/NuttX/nuttx-export/libs/libnuttx.a(fs-fs_ioctl.o)
                0x08008748                ioctl
 .text          0x08008790        0x0 /home/dexheimere/Firmware/build_px4fmu-v2_lpe/px4io-v2/NuttX/nuttx-export/libs/libnuttx.a(fs-fs_open.o)
 .text.inode_checkflags
                0x08008790       0x28 /home/dexheimere/Firmware/build_px4fmu-v2_lpe/px4io-v2/NuttX/nuttx-export/libs/libnuttx.a(fs-fs_open.o)
                0x08008790                inode_checkflags
 .text.open     0x080087b8       0x8e /home/dexheimere/Firmware/build_px4fmu-v2_lpe/px4io-v2/NuttX/nuttx-export/libs/libnuttx.a(fs-fs_open.o)
                0x080087b8                open
 .text          0x08008846        0x0 /home/dexheimere/Firmware/build_px4fmu-v2_lpe/px4io-v2/NuttX/nuttx-export/libs/libnuttx.a(fs-fs_read.o)
 .text.read     0x08008846       0x62 /home/dexheimere/Firmware/build_px4fmu-v2_lpe/px4io-v2/NuttX/nuttx-export/libs/libnuttx.a(fs-fs_read.o)
                0x08008846                read
 .text          0x080088a8        0x0 /home/dexheimere/Firmware/build_px4fmu-v2_lpe/px4io-v2/NuttX/nuttx-export/libs/libnuttx.a(fs-fs_write.o)
 .text.write    0x080088a8       0x54 /home/dexheimere/Firmware/build_px4fmu-v2_lpe/px4io-v2/NuttX/nuttx-export/libs/libnuttx.a(fs-fs_write.o)
                0x080088a8                write
 .text          0x080088fc        0x0 /home/dexheimere/Firmware/build_px4fmu-v2_lpe/px4io-v2/NuttX/nuttx-export/libs/libnuttx.a(drivers-serialirq.o)
 .text.uart_xmitchars
                0x080088fc       0x70 /home/dexheimere/Firmware/build_px4fmu-v2_lpe/px4io-v2/NuttX/nuttx-export/libs/libnuttx.a(drivers-serialirq.o)
                0x080088fc                uart_xmitchars
 .text.uart_recvchars
                0x0800896c       0x5c /home/dexheimere/Firmware/build_px4fmu-v2_lpe/px4io-v2/NuttX/nuttx-export/libs/libnuttx.a(drivers-serialirq.o)
                0x0800896c                uart_recvchars
 .text          0x080089c8        0x0 /home/dexheimere/Firmware/build_px4fmu-v2_lpe/px4io-v2/NuttX/nuttx-export/libs/libnuttx.a(drivers-serial.o)
 .text.uart_ioctl
                0x080089c8       0xc8 /home/dexheimere/Firmware/build_px4fmu-v2_lpe/px4io-v2/NuttX/nuttx-export/libs/libnuttx.a(drivers-serial.o)
 .text.uart_takesem
                0x08008a90       0x30 /home/dexheimere/Firmware/build_px4fmu-v2_lpe/px4io-v2/NuttX/nuttx-export/libs/libnuttx.a(drivers-serial.o)
 .text.uart_putxmitchar
                0x08008ac0       0x86 /home/dexheimere/Firmware/build_px4fmu-v2_lpe/px4io-v2/NuttX/nuttx-export/libs/libnuttx.a(drivers-serial.o)
 .text.uart_write
                0x08008b46       0xe8 /home/dexheimere/Firmware/build_px4fmu-v2_lpe/px4io-v2/NuttX/nuttx-export/libs/libnuttx.a(drivers-serial.o)
 .text.uart_read
                0x08008c2e       0xf6 /home/dexheimere/Firmware/build_px4fmu-v2_lpe/px4io-v2/NuttX/nuttx-export/libs/libnuttx.a(drivers-serial.o)
 .text.uart_open
                0x08008d24       0xa2 /home/dexheimere/Firmware/build_px4fmu-v2_lpe/px4io-v2/NuttX/nuttx-export/libs/libnuttx.a(drivers-serial.o)
 .text.uart_close
                0x08008dc6       0x7e /home/dexheimere/Firmware/build_px4fmu-v2_lpe/px4io-v2/NuttX/nuttx-export/libs/libnuttx.a(drivers-serial.o)
 .text.uart_register
                0x08008e44       0x54 /home/dexheimere/Firmware/build_px4fmu-v2_lpe/px4io-v2/NuttX/nuttx-export/libs/libnuttx.a(drivers-serial.o)
                0x08008e44                uart_register
 .text.uart_datareceived
                0x08008e98       0x10 /home/dexheimere/Firmware/build_px4fmu-v2_lpe/px4io-v2/NuttX/nuttx-export/libs/libnuttx.a(drivers-serial.o)
                0x08008e98                uart_datareceived
 .text.uart_datasent
                0x08008ea8       0x10 /home/dexheimere/Firmware/build_px4fmu-v2_lpe/px4io-v2/NuttX/nuttx-export/libs/libnuttx.a(drivers-serial.o)
                0x08008ea8                uart_datasent
 .text.uart_numrxavail
                0x08008eb8       0x2a /home/dexheimere/Firmware/build_px4fmu-v2_lpe/px4io-v2/NuttX/nuttx-export/libs/libnuttx.a(drivers-serial.o)
                0x08008eb8                uart_numrxavail
 .text          0x08008ee2        0x0 /home/dexheimere/Firmware/build_px4fmu-v2_lpe/px4io-v2/NuttX/nuttx-export/libs/libnuttx.a(sched-errno_getptr.o)
 *fill*         0x08008ee2        0x2 
 .text.get_errno_ptr
                0x08008ee4       0x24 /home/dexheimere/Firmware/build_px4fmu-v2_lpe/px4io-v2/NuttX/nuttx-export/libs/libnuttx.a(sched-errno_getptr.o)
                0x08008ee4                get_errno_ptr
 .text          0x08008f08        0x0 /home/dexheimere/Firmware/build_px4fmu-v2_lpe/px4io-v2/NuttX/nuttx-export/libs/libnuttx.a(sched-exit.o)
 .text.exit     0x08008f08       0x1c /home/dexheimere/Firmware/build_px4fmu-v2_lpe/px4io-v2/NuttX/nuttx-export/libs/libnuttx.a(sched-exit.o)
                0x08008f08                exit
 .text          0x08008f24        0x0 /home/dexheimere/Firmware/build_px4fmu-v2_lpe/px4io-v2/NuttX/nuttx-export/libs/libnuttx.a(sched-getpid.o)
 .text.getpid   0x08008f24       0x10 /home/dexheimere/Firmware/build_px4fmu-v2_lpe/px4io-v2/NuttX/nuttx-export/libs/libnuttx.a(sched-getpid.o)
                0x08008f24                getpid
 .text          0x08008f34        0x0 /home/dexheimere/Firmware/build_px4fmu-v2_lpe/px4io-v2/NuttX/nuttx-export/libs/libnuttx.a(sched-os_start.o)
 .text.os_start
                0x08008f34      0x12c /home/dexheimere/Firmware/build_px4fmu-v2_lpe/px4io-v2/NuttX/nuttx-export/libs/libnuttx.a(sched-os_start.o)
                0x08008f34                os_start
 .text          0x08009060        0x0 /home/dexheimere/Firmware/build_px4fmu-v2_lpe/px4io-v2/NuttX/nuttx-export/libs/libnuttx.a(sched-sched_garbage.o)
 .text.sched_garbagecollection
                0x08009060       0x2c /home/dexheimere/Firmware/build_px4fmu-v2_lpe/px4io-v2/NuttX/nuttx-export/libs/libnuttx.a(sched-sched_garbage.o)
                0x08009060                sched_garbagecollection
 .text          0x0800908c        0x0 /home/dexheimere/Firmware/build_px4fmu-v2_lpe/px4io-v2/NuttX/nuttx-export/libs/libnuttx.a(sched-sched_getfiles.o)
 .text.sched_getfiles
                0x0800908c       0x10 /home/dexheimere/Firmware/build_px4fmu-v2_lpe/px4io-v2/NuttX/nuttx-export/libs/libnuttx.a(sched-sched_getfiles.o)
                0x0800908c                sched_getfiles
 .text          0x0800909c        0x0 /home/dexheimere/Firmware/build_px4fmu-v2_lpe/px4io-v2/NuttX/nuttx-export/libs/libnuttx.a(sched-sem_post.o)
 .text.sem_post
                0x0800909c       0x58 /home/dexheimere/Firmware/build_px4fmu-v2_lpe/px4io-v2/NuttX/nuttx-export/libs/libnuttx.a(sched-sem_post.o)
                0x0800909c                sem_post
 .text          0x080090f4        0x0 /home/dexheimere/Firmware/build_px4fmu-v2_lpe/px4io-v2/NuttX/nuttx-export/libs/libnuttx.a(sched-sem_trywait.o)
 .text.sem_trywait
                0x080090f4       0x4c /home/dexheimere/Firmware/build_px4fmu-v2_lpe/px4io-v2/NuttX/nuttx-export/libs/libnuttx.a(sched-sem_trywait.o)
                0x080090f4                sem_trywait
 .text          0x08009140        0x0 /home/dexheimere/Firmware/build_px4fmu-v2_lpe/px4io-v2/NuttX/nuttx-export/libs/libnuttx.a(sched-sem_wait.o)
 .text.sem_wait
                0x08009140       0x84 /home/dexheimere/Firmware/build_px4fmu-v2_lpe/px4io-v2/NuttX/nuttx-export/libs/libnuttx.a(sched-sem_wait.o)
                0x08009140                sem_wait
 .text          0x080091c4        0x0 /home/dexheimere/Firmware/build_px4fmu-v2_lpe/px4io-v2/NuttX/nuttx-export/libs/libnuttx.a(sched-task_exithook.o)
 .text.task_exithook
                0x080091c4       0x1e /home/dexheimere/Firmware/build_px4fmu-v2_lpe/px4io-v2/NuttX/nuttx-export/libs/libnuttx.a(sched-task_exithook.o)
                0x080091c4                task_exithook
 .text          0x080091e2        0x0 /home/dexheimere/Firmware/build_px4fmu-v2_lpe/px4io-v2/NuttX/nuttx-export/libs/libnuttx.a(sched-task_recover.o)
 .text.task_recover
                0x080091e2       0x26 /home/dexheimere/Firmware/build_px4fmu-v2_lpe/px4io-v2/NuttX/nuttx-export/libs/libnuttx.a(sched-task_recover.o)
                0x080091e2                task_recover
 .text          0x08009208        0x0 /home/dexheimere/Firmware/build_px4fmu-v2_lpe/px4io-v2/NuttX/nuttx-export/libs/libnuttx.a(sched-wd_cancel.o)
 .text.wd_cancel
                0x08009208       0x64 /home/dexheimere/Firmware/build_px4fmu-v2_lpe/px4io-v2/NuttX/nuttx-export/libs/libnuttx.a(sched-wd_cancel.o)
                0x08009208                wd_cancel
 .text          0x0800926c        0x0 /home/dexheimere/Firmware/build_px4fmu-v2_lpe/px4io-v2/NuttX/nuttx-export/libs/libnuttx.a(sched-wd_delete.o)
 .text.wd_delete
                0x0800926c       0x3c /home/dexheimere/Firmware/build_px4fmu-v2_lpe/px4io-v2/NuttX/nuttx-export/libs/libnuttx.a(sched-wd_delete.o)
                0x0800926c                wd_delete
 .text          0x080092a8        0x0 /home/dexheimere/Firmware/build_px4fmu-v2_lpe/px4io-v2/NuttX/nuttx-export/libs/libnuttx.a(sched-wd_initialize.o)
 .text.wd_initialize
                0x080092a8       0x44 /home/dexheimere/Firmware/build_px4fmu-v2_lpe/px4io-v2/NuttX/nuttx-export/libs/libnuttx.a(sched-wd_initialize.o)
                0x080092a8                wd_initialize
 .text          0x080092ec        0x0 /home/dexheimere/Firmware/build_px4fmu-v2_lpe/px4io-v2/NuttX/nuttx-export/libs/libnuttx.a(c-dq_addfirst.o)
 .text.dq_addfirst
                0x080092ec       0x18 /home/dexheimere/Firmware/build_px4fmu-v2_lpe/px4io-v2/NuttX/nuttx-export/libs/libnuttx.a(c-dq_addfirst.o)
                0x080092ec                dq_addfirst
 .text          0x08009304        0x0 /home/dexheimere/Firmware/build_px4fmu-v2_lpe/px4io-v2/NuttX/nuttx-export/libs/libnuttx.a(c-lib_cfgetspeed.o)
 .text.cfgetspeed
                0x08009304        0x4 /home/dexheimere/Firmware/build_px4fmu-v2_lpe/px4io-v2/NuttX/nuttx-export/libs/libnuttx.a(c-lib_cfgetspeed.o)
                0x08009304                cfgetspeed
 .text          0x08009308        0x0 /home/dexheimere/Firmware/build_px4fmu-v2_lpe/px4io-v2/NuttX/nuttx-export/libs/libnuttx.a(c-lib_checkbase.o)
 .text.lib_checkbase
                0x08009308       0x50 /home/dexheimere/Firmware/build_px4fmu-v2_lpe/px4io-v2/NuttX/nuttx-export/libs/libnuttx.a(c-lib_checkbase.o)
                0x08009308                lib_checkbase
 .text          0x08009358        0x0 /home/dexheimere/Firmware/build_px4fmu-v2_lpe/px4io-v2/NuttX/nuttx-export/libs/libnuttx.a(c-lib_isbasedigit.o)
 .text.lib_isbasedigit
                0x08009358       0x4e /home/dexheimere/Firmware/build_px4fmu-v2_lpe/px4io-v2/NuttX/nuttx-export/libs/libnuttx.a(c-lib_isbasedigit.o)
                0x08009358                lib_isbasedigit
 .text          0x080093a6        0x0 /home/dexheimere/Firmware/build_px4fmu-v2_lpe/px4io-v2/NuttX/nuttx-export/libs/libnuttx.a(c-lib_libvsprintf.o)
 .text.utodec   0x080093a6       0x24 /home/dexheimere/Firmware/build_px4fmu-v2_lpe/px4io-v2/NuttX/nuttx-export/libs/libnuttx.a(c-lib_libvsprintf.o)
 .text.utooct   0x080093ca       0x1e /home/dexheimere/Firmware/build_px4fmu-v2_lpe/px4io-v2/NuttX/nuttx-export/libs/libnuttx.a(c-lib_libvsprintf.o)
 .text.utobin   0x080093e8       0x1e /home/dexheimere/Firmware/build_px4fmu-v2_lpe/px4io-v2/NuttX/nuttx-export/libs/libnuttx.a(c-lib_libvsprintf.o)
 .text.llutodec
                0x08009406       0x42 /home/dexheimere/Firmware/build_px4fmu-v2_lpe/px4io-v2/NuttX/nuttx-export/libs/libnuttx.a(c-lib_libvsprintf.o)
 .text.llutooct
                0x08009448       0x2e /home/dexheimere/Firmware/build_px4fmu-v2_lpe/px4io-v2/NuttX/nuttx-export/libs/libnuttx.a(c-lib_libvsprintf.o)
 .text.llutobin
                0x08009476       0x26 /home/dexheimere/Firmware/build_px4fmu-v2_lpe/px4io-v2/NuttX/nuttx-export/libs/libnuttx.a(c-lib_libvsprintf.o)
 .text.prejustify
                0x0800949c       0x8c /home/dexheimere/Firmware/build_px4fmu-v2_lpe/px4io-v2/NuttX/nuttx-export/libs/libnuttx.a(c-lib_libvsprintf.o)
 .text.llutohex
                0x08009528       0x5a /home/dexheimere/Firmware/build_px4fmu-v2_lpe/px4io-v2/NuttX/nuttx-export/libs/libnuttx.a(c-lib_libvsprintf.o)
 .text.llutoascii
                0x08009582       0x98 /home/dexheimere/Firmware/build_px4fmu-v2_lpe/px4io-v2/NuttX/nuttx-export/libs/libnuttx.a(c-lib_libvsprintf.o)
 .text.postjustify
                0x0800961a       0x26 /home/dexheimere/Firmware/build_px4fmu-v2_lpe/px4io-v2/NuttX/nuttx-export/libs/libnuttx.a(c-lib_libvsprintf.o)
 .text.utohex   0x08009640       0x4a /home/dexheimere/Firmware/build_px4fmu-v2_lpe/px4io-v2/NuttX/nuttx-export/libs/libnuttx.a(c-lib_libvsprintf.o)
 .text.utoascii
                0x0800968a       0x8c /home/dexheimere/Firmware/build_px4fmu-v2_lpe/px4io-v2/NuttX/nuttx-export/libs/libnuttx.a(c-lib_libvsprintf.o)
 *fill*         0x08009716        0x2 
 .text.lib_vsprintf
                0x08009718      0x29c /home/dexheimere/Firmware/build_px4fmu-v2_lpe/px4io-v2/NuttX/nuttx-export/libs/libnuttx.a(c-lib_libvsprintf.o)
                0x08009718                lib_vsprintf
 .text          0x080099b4        0x0 /home/dexheimere/Firmware/build_px4fmu-v2_lpe/px4io-v2/NuttX/nuttx-export/libs/libnuttx.a(c-lib_lowoutstream.o)
 .text.lowoutstream_putc
                0x080099b4       0x16 /home/dexheimere/Firmware/build_px4fmu-v2_lpe/px4io-v2/NuttX/nuttx-export/libs/libnuttx.a(c-lib_lowoutstream.o)
 *fill*         0x080099ca        0x2 
 .text.lib_lowoutstream
                0x080099cc       0x10 /home/dexheimere/Firmware/build_px4fmu-v2_lpe/px4io-v2/NuttX/nuttx-export/libs/libnuttx.a(c-lib_lowoutstream.o)
                0x080099cc                lib_lowoutstream
 .text          0x080099dc        0x0 /home/dexheimere/Firmware/build_px4fmu-v2_lpe/px4io-v2/NuttX/nuttx-export/libs/libnuttx.a(c-lib_memoutstream.o)
 .text.memoutstream_putc
                0x080099dc       0x1a /home/dexheimere/Firmware/build_px4fmu-v2_lpe/px4io-v2/NuttX/nuttx-export/libs/libnuttx.a(c-lib_memoutstream.o)
 *fill*         0x080099f6        0x2 
 .text.lib_memoutstream
                0x080099f8       0x18 /home/dexheimere/Firmware/build_px4fmu-v2_lpe/px4io-v2/NuttX/nuttx-export/libs/libnuttx.a(c-lib_memoutstream.o)
                0x080099f8                lib_memoutstream
 .text          0x08009a10        0x0 /home/dexheimere/Firmware/build_px4fmu-v2_lpe/px4io-v2/NuttX/nuttx-export/libs/libnuttx.a(c-lib_nulloutstream.o)
 .text.nulloutstream_putc
                0x08009a10        0x8 /home/dexheimere/Firmware/build_px4fmu-v2_lpe/px4io-v2/NuttX/nuttx-export/libs/libnuttx.a(c-lib_nulloutstream.o)
 .text.lib_nulloutstream
                0x08009a18       0x10 /home/dexheimere/Firmware/build_px4fmu-v2_lpe/px4io-v2/NuttX/nuttx-export/libs/libnuttx.a(c-lib_nulloutstream.o)
                0x08009a18                lib_nulloutstream
 .text          0x08009a28        0x0 /home/dexheimere/Firmware/build_px4fmu-v2_lpe/px4io-v2/NuttX/nuttx-export/libs/libnuttx.a(c-lib_rawoutstream.o)
 .text.rawoutstream_putc
                0x08009a28       0x2e /home/dexheimere/Firmware/build_px4fmu-v2_lpe/px4io-v2/NuttX/nuttx-export/libs/libnuttx.a(c-lib_rawoutstream.o)
 *fill*         0x08009a56        0x2 
 .text.lib_rawoutstream
                0x08009a58       0x10 /home/dexheimere/Firmware/build_px4fmu-v2_lpe/px4io-v2/NuttX/nuttx-export/libs/libnuttx.a(c-lib_rawoutstream.o)
                0x08009a58                lib_rawoutstream
 .text          0x08009a68        0x0 /home/dexheimere/Firmware/build_px4fmu-v2_lpe/px4io-v2/NuttX/nuttx-export/libs/libnuttx.a(c-lib_skipspace.o)
 .text.lib_skipspace
                0x08009a68       0x16 /home/dexheimere/Firmware/build_px4fmu-v2_lpe/px4io-v2/NuttX/nuttx-export/libs/libnuttx.a(c-lib_skipspace.o)
                0x08009a68                lib_skipspace
 .text          0x08009a7e        0x0 /home/dexheimere/Firmware/build_px4fmu-v2_lpe/px4io-v2/NuttX/nuttx-export/libs/libnuttx.a(c-lib_strcpy.o)
 .text.strcpy   0x08009a7e       0x10 /home/dexheimere/Firmware/build_px4fmu-v2_lpe/px4io-v2/NuttX/nuttx-export/libs/libnuttx.a(c-lib_strcpy.o)
                0x08009a7e                strcpy
 .text          0x08009a8e        0x0 /home/dexheimere/Firmware/build_px4fmu-v2_lpe/px4io-v2/NuttX/nuttx-export/libs/libnuttx.a(c-lib_strlen.o)
 .text.strlen   0x08009a8e       0x10 /home/dexheimere/Firmware/build_px4fmu-v2_lpe/px4io-v2/NuttX/nuttx-export/libs/libnuttx.a(c-lib_strlen.o)
                0x08009a8e                strlen
 .text          0x08009a9e        0x0 /home/dexheimere/Firmware/build_px4fmu-v2_lpe/px4io-v2/NuttX/nuttx-export/libs/libnuttx.a(c-sem_init.o)
 .text.sem_init
                0x08009a9e       0x1e /home/dexheimere/Firmware/build_px4fmu-v2_lpe/px4io-v2/NuttX/nuttx-export/libs/libnuttx.a(c-sem_init.o)
                0x08009a9e                sem_init
 .text          0x08009abc        0x0 /home/dexheimere/Firmware/build_px4fmu-v2_lpe/px4io-v2/NuttX/nuttx-export/libs/libnuttx.a(c-sq_remafter.o)
 .text.sq_remafter
                0x08009abc       0x22 /home/dexheimere/Firmware/build_px4fmu-v2_lpe/px4io-v2/NuttX/nuttx-export/libs/libnuttx.a(c-sq_remafter.o)
                0x08009abc                sq_remafter
 .text          0x08009ade        0x0 /home/dexheimere/Firmware/build_px4fmu-v2_lpe/px4io-v2/NuttX/nuttx-export/libs/libnuttx.a(c-sq_remfirst.o)
 .text.sq_remfirst
                0x08009ade       0x14 /home/dexheimere/Firmware/build_px4fmu-v2_lpe/px4io-v2/NuttX/nuttx-export/libs/libnuttx.a(c-sq_remfirst.o)
                0x08009ade                sq_remfirst
 .text          0x08009af2        0x0 /home/dexheimere/Firmware/build_px4fmu-v2_lpe/px4io-v2/NuttX/nuttx-export/libs/libnuttx.a(mm-mm_addfreechunk.o)
 .text.mm_addfreechunk
                0x08009af2       0x36 /home/dexheimere/Firmware/build_px4fmu-v2_lpe/px4io-v2/NuttX/nuttx-export/libs/libnuttx.a(mm-mm_addfreechunk.o)
                0x08009af2                mm_addfreechunk
 .text          0x08009b28        0x0 /home/dexheimere/Firmware/build_px4fmu-v2_lpe/px4io-v2/NuttX/nuttx-export/libs/libnuttx.a(mm-mm_initialize.o)
 .text.mm_addregion
                0x08009b28       0x50 /home/dexheimere/Firmware/build_px4fmu-v2_lpe/px4io-v2/NuttX/nuttx-export/libs/libnuttx.a(mm-mm_initialize.o)
                0x08009b28                mm_addregion
 .text.mm_initialize
                0x08009b78       0x40 /home/dexheimere/Firmware/build_px4fmu-v2_lpe/px4io-v2/NuttX/nuttx-export/libs/libnuttx.a(mm-mm_initialize.o)
                0x08009b78                mm_initialize
 .text          0x08009bb8        0x0 /home/dexheimere/Firmware/build_px4fmu-v2_lpe/px4io-v2/NuttX/nuttx-export/libs/libnuttx.a(arch-stm32_allocateheap.o)
 .text.up_allocate_heap
                0x08009bb8       0x14 /home/dexheimere/Firmware/build_px4fmu-v2_lpe/px4io-v2/NuttX/nuttx-export/libs/libnuttx.a(arch-stm32_allocateheap.o)
                0x08009bb8                up_allocate_heap
 .text          0x08009bcc        0x0 /home/dexheimere/Firmware/build_px4fmu-v2_lpe/px4io-v2/NuttX/nuttx-export/libs/libnuttx.a(arch-stm32_idle.o)
 .text.up_idle  0x08009bcc        0x4 /home/dexheimere/Firmware/build_px4fmu-v2_lpe/px4io-v2/NuttX/nuttx-export/libs/libnuttx.a(arch-stm32_idle.o)
                0x08009bcc                up_idle
 .text          0x08009bd0        0x0 /home/dexheimere/Firmware/build_px4fmu-v2_lpe/px4io-v2/NuttX/nuttx-export/libs/libnuttx.a(arch-stm32_lowputc.o)
 .text.up_lowputc
                0x08009bd0       0x18 /home/dexheimere/Firmware/build_px4fmu-v2_lpe/px4io-v2/NuttX/nuttx-export/libs/libnuttx.a(arch-stm32_lowputc.o)
                0x08009bd0                up_lowputc
 .text.stm32_lowsetup
                0x08009be8       0x6c /home/dexheimere/Firmware/build_px4fmu-v2_lpe/px4io-v2/NuttX/nuttx-export/libs/libnuttx.a(arch-stm32_lowputc.o)
                0x08009be8                stm32_lowsetup
 .text          0x08009c54        0x0 /home/dexheimere/Firmware/build_px4fmu-v2_lpe/px4io-v2/NuttX/nuttx-export/libs/libnuttx.a(arch-stm32_rcc.o)
 .text.stm32_clockconfig
                0x08009c54       0xe8 /home/dexheimere/Firmware/build_px4fmu-v2_lpe/px4io-v2/NuttX/nuttx-export/libs/libnuttx.a(arch-stm32_rcc.o)
                0x08009c54                stm32_clockconfig
 .text          0x08009d3c        0x0 /home/dexheimere/Firmware/build_px4fmu-v2_lpe/px4io-v2/NuttX/nuttx-export/libs/libnuttx.a(arch-stm32_vectors.o)
 .text          0x08009d3c        0x0 /home/dexheimere/Firmware/build_px4fmu-v2_lpe/px4io-v2/NuttX/nuttx-export/libs/libnuttx.a(arch-up_blocktask.o)
 .text.up_block_task
                0x08009d3c       0x74 /home/dexheimere/Firmware/build_px4fmu-v2_lpe/px4io-v2/NuttX/nuttx-export/libs/libnuttx.a(arch-up_blocktask.o)
                0x08009d3c                up_block_task
 .text          0x08009db0        0x0 /home/dexheimere/Firmware/build_px4fmu-v2_lpe/px4io-v2/NuttX/nuttx-export/libs/libnuttx.a(arch-up_copystate.o)
 .text.up_copystate
                0x08009db0       0x18 /home/dexheimere/Firmware/build_px4fmu-v2_lpe/px4io-v2/NuttX/nuttx-export/libs/libnuttx.a(arch-up_copystate.o)
                0x08009db0                up_copystate
 .text          0x08009dc8       0x5e /home/dexheimere/Firmware/build_px4fmu-v2_lpe/px4io-v2/NuttX/nuttx-export/libs/libnuttx.a(arch-up_exception.o)
                0x08009dc8                exception_common
 .text          0x08009e26        0x0 /home/dexheimere/Firmware/build_px4fmu-v2_lpe/px4io-v2/NuttX/nuttx-export/libs/libnuttx.a(arch-up_exit.o)
 *fill*         0x08009e26        0x2 
 .text._exit    0x08009e28       0x1c /home/dexheimere/Firmware/build_px4fmu-v2_lpe/px4io-v2/NuttX/nuttx-export/libs/libnuttx.a(arch-up_exit.o)
                0x08009e28                _exit
 .text          0x08009e44        0xa /home/dexheimere/Firmware/build_px4fmu-v2_lpe/px4io-v2/NuttX/nuttx-export/libs/libnuttx.a(arch-up_fullcontextrestore.o)
                0x08009e44                up_fullcontextrestore
 .text          0x08009e4e        0x0 /home/dexheimere/Firmware/build_px4fmu-v2_lpe/px4io-v2/NuttX/nuttx-export/libs/libnuttx.a(arch-up_initialize.o)
 *fill*         0x08009e4e        0x2 
 .text.up_initialize
                0x08009e50       0x28 /home/dexheimere/Firmware/build_px4fmu-v2_lpe/px4io-v2/NuttX/nuttx-export/libs/libnuttx.a(arch-up_initialize.o)
                0x08009e50                up_initialize
 .text          0x08009e78        0x0 /home/dexheimere/Firmware/build_px4fmu-v2_lpe/px4io-v2/NuttX/nuttx-export/libs/libnuttx.a(arch-up_initialstate.o)
 .text.up_initial_state
                0x08009e78       0x34 /home/dexheimere/Firmware/build_px4fmu-v2_lpe/px4io-v2/NuttX/nuttx-export/libs/libnuttx.a(arch-up_initialstate.o)
                0x08009e78                up_initial_state
 .text          0x08009eac        0x0 /home/dexheimere/Firmware/build_px4fmu-v2_lpe/px4io-v2/NuttX/nuttx-export/libs/libnuttx.a(arch-up_interruptcontext.o)
 .text.up_interrupt_context
                0x08009eac       0x10 /home/dexheimere/Firmware/build_px4fmu-v2_lpe/px4io-v2/NuttX/nuttx-export/libs/libnuttx.a(arch-up_interruptcontext.o)
                0x08009eac                up_interrupt_context
 .text          0x08009ebc        0x0 /home/dexheimere/Firmware/build_px4fmu-v2_lpe/px4io-v2/NuttX/nuttx-export/libs/libnuttx.a(arch-up_mdelay.o)
 .text.up_mdelay
                0x08009ebc       0x2a /home/dexheimere/Firmware/build_px4fmu-v2_lpe/px4io-v2/NuttX/nuttx-export/libs/libnuttx.a(arch-up_mdelay.o)
                0x08009ebc                up_mdelay
 .text          0x08009ee6        0xc /home/dexheimere/Firmware/build_px4fmu-v2_lpe/px4io-v2/NuttX/nuttx-export/libs/libnuttx.a(arch-up_switchcontext.o)
                0x08009ee6                up_switchcontext
 .text          0x08009ef2        0x0 /home/dexheimere/Firmware/build_px4fmu-v2_lpe/px4io-v2/NuttX/nuttx-export/libs/libnuttx.a(arch-up_unblocktask.o)
 *fill*         0x08009ef2        0x2 
 .text.up_unblock_task
                0x08009ef4       0x54 /home/dexheimere/Firmware/build_px4fmu-v2_lpe/px4io-v2/NuttX/nuttx-export/libs/libnuttx.a(arch-up_unblocktask.o)
                0x08009ef4                up_unblock_task
 .text          0x08009f48        0x0 /home/dexheimere/Firmware/build_px4fmu-v2_lpe/px4io-v2/NuttX/nuttx-export/libs/libnuttx.a(fs-fs_files.o)
 .text._files_close
                0x08009f48       0x2a /home/dexheimere/Firmware/build_px4fmu-v2_lpe/px4io-v2/NuttX/nuttx-export/libs/libnuttx.a(fs-fs_files.o)
 *fill*         0x08009f72        0x2 
 .text._files_semtake
                0x08009f74       0x24 /home/dexheimere/Firmware/build_px4fmu-v2_lpe/px4io-v2/NuttX/nuttx-export/libs/libnuttx.a(fs-fs_files.o)
 .text.files_initialize
                0x08009f98        0x2 /home/dexheimere/Firmware/build_px4fmu-v2_lpe/px4io-v2/NuttX/nuttx-export/libs/libnuttx.a(fs-fs_files.o)
                0x08009f98                files_initialize
 .text.files_initlist
                0x08009f9a        0x8 /home/dexheimere/Firmware/build_px4fmu-v2_lpe/px4io-v2/NuttX/nuttx-export/libs/libnuttx.a(fs-fs_files.o)
                0x08009f9a                files_initlist
 .text.files_releaselist
                0x08009fa2       0x20 /home/dexheimere/Firmware/build_px4fmu-v2_lpe/px4io-v2/NuttX/nuttx-export/libs/libnuttx.a(fs-fs_files.o)
                0x08009fa2                files_releaselist
 .text.files_dup
                0x08009fc2       0x80 /home/dexheimere/Firmware/build_px4fmu-v2_lpe/px4io-v2/NuttX/nuttx-export/libs/libnuttx.a(fs-fs_files.o)
                0x08009fc2                files_dup
 .text.files_allocate
                0x0800a042       0x54 /home/dexheimere/Firmware/build_px4fmu-v2_lpe/px4io-v2/NuttX/nuttx-export/libs/libnuttx.a(fs-fs_files.o)
                0x0800a042                files_allocate
 .text.files_close
                0x0800a096       0x3a /home/dexheimere/Firmware/build_px4fmu-v2_lpe/px4io-v2/NuttX/nuttx-export/libs/libnuttx.a(fs-fs_files.o)
                0x0800a096                files_close
 .text.files_release
                0x0800a0d0       0x2c /home/dexheimere/Firmware/build_px4fmu-v2_lpe/px4io-v2/NuttX/nuttx-export/libs/libnuttx.a(fs-fs_files.o)
                0x0800a0d0                files_release
 .text          0x0800a0fc        0x0 /home/dexheimere/Firmware/build_px4fmu-v2_lpe/px4io-v2/NuttX/nuttx-export/libs/libnuttx.a(fs-fs_inodeaddref.o)
 .text.inode_addref
                0x0800a0fc       0x1a /home/dexheimere/Firmware/build_px4fmu-v2_lpe/px4io-v2/NuttX/nuttx-export/libs/libnuttx.a(fs-fs_inodeaddref.o)
                0x0800a0fc                inode_addref
 .text          0x0800a116        0x0 /home/dexheimere/Firmware/build_px4fmu-v2_lpe/px4io-v2/NuttX/nuttx-export/libs/libnuttx.a(fs-fs_inodefind.o)
 .text.inode_find
                0x0800a116       0x34 /home/dexheimere/Firmware/build_px4fmu-v2_lpe/px4io-v2/NuttX/nuttx-export/libs/libnuttx.a(fs-fs_inodefind.o)
                0x0800a116                inode_find
 .text          0x0800a14a        0x0 /home/dexheimere/Firmware/build_px4fmu-v2_lpe/px4io-v2/NuttX/nuttx-export/libs/libnuttx.a(fs-fs_inode.o)
 *fill*         0x0800a14a        0x2 
 .text.fs_initialize
                0x0800a14c       0x20 /home/dexheimere/Firmware/build_px4fmu-v2_lpe/px4io-v2/NuttX/nuttx-export/libs/libnuttx.a(fs-fs_inode.o)
                0x0800a14c                fs_initialize
 .text.inode_semtake
                0x0800a16c       0x28 /home/dexheimere/Firmware/build_px4fmu-v2_lpe/px4io-v2/NuttX/nuttx-export/libs/libnuttx.a(fs-fs_inode.o)
                0x0800a16c                inode_semtake
 .text.inode_semgive
                0x0800a194        0xc /home/dexheimere/Firmware/build_px4fmu-v2_lpe/px4io-v2/NuttX/nuttx-export/libs/libnuttx.a(fs-fs_inode.o)
                0x0800a194                inode_semgive
 .text.inode_free
                0x0800a1a0       0x1e /home/dexheimere/Firmware/build_px4fmu-v2_lpe/px4io-v2/NuttX/nuttx-export/libs/libnuttx.a(fs-fs_inode.o)
                0x0800a1a0                inode_free
 .text.inode_nextname
                0x0800a1be       0x12 /home/dexheimere/Firmware/build_px4fmu-v2_lpe/px4io-v2/NuttX/nuttx-export/libs/libnuttx.a(fs-fs_inode.o)
                0x0800a1be                inode_nextname
 .text.inode_search
                0x0800a1d0       0xa0 /home/dexheimere/Firmware/build_px4fmu-v2_lpe/px4io-v2/NuttX/nuttx-export/libs/libnuttx.a(fs-fs_inode.o)
                0x0800a1d0                inode_search
 .text          0x0800a270        0x0 /home/dexheimere/Firmware/build_px4fmu-v2_lpe/px4io-v2/NuttX/nuttx-export/libs/libnuttx.a(fs-fs_inoderelease.o)
 .text.inode_release
                0x0800a270       0x40 /home/dexheimere/Firmware/build_px4fmu-v2_lpe/px4io-v2/NuttX/nuttx-export/libs/libnuttx.a(fs-fs_inoderelease.o)
                0x0800a270                inode_release
 .text          0x0800a2b0        0x0 /home/dexheimere/Firmware/build_px4fmu-v2_lpe/px4io-v2/NuttX/nuttx-export/libs/libnuttx.a(fs-fs_registerdriver.o)
 .text.register_driver
                0x0800a2b0       0x32 /home/dexheimere/Firmware/build_px4fmu-v2_lpe/px4io-v2/NuttX/nuttx-export/libs/libnuttx.a(fs-fs_registerdriver.o)
                0x0800a2b0                register_driver
 .text          0x0800a2e2        0x0 /home/dexheimere/Firmware/build_px4fmu-v2_lpe/px4io-v2/NuttX/nuttx-export/libs/libnuttx.a(sched-group_create.o)
 .text.group_allocate
                0x0800a2e2       0x18 /home/dexheimere/Firmware/build_px4fmu-v2_lpe/px4io-v2/NuttX/nuttx-export/libs/libnuttx.a(sched-group_create.o)
                0x0800a2e2                group_allocate
 .text.group_initialize
                0x0800a2fa        0xa /home/dexheimere/Firmware/build_px4fmu-v2_lpe/px4io-v2/NuttX/nuttx-export/libs/libnuttx.a(sched-group_create.o)
                0x0800a2fa                group_initialize
 .text          0x0800a304        0x0 /home/dexheimere/Firmware/build_px4fmu-v2_lpe/px4io-v2/NuttX/nuttx-export/libs/libnuttx.a(sched-group_leave.o)
 .text.group_leave
                0x0800a304       0x26 /home/dexheimere/Firmware/build_px4fmu-v2_lpe/px4io-v2/NuttX/nuttx-export/libs/libnuttx.a(sched-group_leave.o)
                0x0800a304                group_leave
 .text          0x0800a32a        0x0 /home/dexheimere/Firmware/build_px4fmu-v2_lpe/px4io-v2/NuttX/nuttx-export/libs/libnuttx.a(sched-group_setupidlefiles.o)
 *fill*         0x0800a32a        0x2 
 .text.group_setupidlefiles
                0x0800a32c       0x38 /home/dexheimere/Firmware/build_px4fmu-v2_lpe/px4io-v2/NuttX/nuttx-export/libs/libnuttx.a(sched-group_setupidlefiles.o)
                0x0800a32c                group_setupidlefiles
 .text          0x0800a364        0x0 /home/dexheimere/Firmware/build_px4fmu-v2_lpe/px4io-v2/NuttX/nuttx-export/libs/libnuttx.a(sched-os_bringup.o)
 .text.os_bringup
                0x0800a364       0x34 /home/dexheimere/Firmware/build_px4fmu-v2_lpe/px4io-v2/NuttX/nuttx-export/libs/libnuttx.a(sched-os_bringup.o)
                0x0800a364                os_bringup
 .text          0x0800a398        0x0 /home/dexheimere/Firmware/build_px4fmu-v2_lpe/px4io-v2/NuttX/nuttx-export/libs/libnuttx.a(sched-sched_addblocked.o)
 .text.sched_addblocked
                0x0800a398       0x38 /home/dexheimere/Firmware/build_px4fmu-v2_lpe/px4io-v2/NuttX/nuttx-export/libs/libnuttx.a(sched-sched_addblocked.o)
                0x0800a398                sched_addblocked
 .text          0x0800a3d0        0x0 /home/dexheimere/Firmware/build_px4fmu-v2_lpe/px4io-v2/NuttX/nuttx-export/libs/libnuttx.a(sched-sched_addprioritized.o)
 .text.sched_addprioritized
                0x0800a3d0       0x58 /home/dexheimere/Firmware/build_px4fmu-v2_lpe/px4io-v2/NuttX/nuttx-export/libs/libnuttx.a(sched-sched_addprioritized.o)
                0x0800a3d0                sched_addprioritized
 .text          0x0800a428        0x0 /home/dexheimere/Firmware/build_px4fmu-v2_lpe/px4io-v2/NuttX/nuttx-export/libs/libnuttx.a(sched-sched_addreadytorun.o)
 .text.sched_addreadytorun
                0x0800a428       0x60 /home/dexheimere/Firmware/build_px4fmu-v2_lpe/px4io-v2/NuttX/nuttx-export/libs/libnuttx.a(sched-sched_addreadytorun.o)
                0x0800a428                sched_addreadytorun
 .text          0x0800a488        0x0 /home/dexheimere/Firmware/build_px4fmu-v2_lpe/px4io-v2/NuttX/nuttx-export/libs/libnuttx.a(sched-sched_free.o)
 .text.sched_ufree
                0x0800a488       0x3c /home/dexheimere/Firmware/build_px4fmu-v2_lpe/px4io-v2/NuttX/nuttx-export/libs/libnuttx.a(sched-sched_free.o)
                0x0800a488                sched_ufree
 .text          0x0800a4c4        0x0 /home/dexheimere/Firmware/build_px4fmu-v2_lpe/px4io-v2/NuttX/nuttx-export/libs/libnuttx.a(sched-sched_mergepending.o)
 .text.sched_mergepending
                0x0800a4c4       0x68 /home/dexheimere/Firmware/build_px4fmu-v2_lpe/px4io-v2/NuttX/nuttx-export/libs/libnuttx.a(sched-sched_mergepending.o)
                0x0800a4c4                sched_mergepending
 .text          0x0800a52c        0x0 /home/dexheimere/Firmware/build_px4fmu-v2_lpe/px4io-v2/NuttX/nuttx-export/libs/libnuttx.a(sched-sched_removeblocked.o)
 .text.sched_removeblocked
                0x0800a52c       0x2c /home/dexheimere/Firmware/build_px4fmu-v2_lpe/px4io-v2/NuttX/nuttx-export/libs/libnuttx.a(sched-sched_removeblocked.o)
                0x0800a52c                sched_removeblocked
 .text          0x0800a558        0x0 /home/dexheimere/Firmware/build_px4fmu-v2_lpe/px4io-v2/NuttX/nuttx-export/libs/libnuttx.a(sched-sched_removereadytorun.o)
 .text.sched_removereadytorun
                0x0800a558       0x38 /home/dexheimere/Firmware/build_px4fmu-v2_lpe/px4io-v2/NuttX/nuttx-export/libs/libnuttx.a(sched-sched_removereadytorun.o)
                0x0800a558                sched_removereadytorun
 .text          0x0800a590        0x0 /home/dexheimere/Firmware/build_px4fmu-v2_lpe/px4io-v2/NuttX/nuttx-export/libs/libnuttx.a(sched-sem_destroy.o)
 .text.sem_destroy
                0x0800a590       0x26 /home/dexheimere/Firmware/build_px4fmu-v2_lpe/px4io-v2/NuttX/nuttx-export/libs/libnuttx.a(sched-sem_destroy.o)
                0x0800a590                sem_destroy
 .text          0x0800a5b6        0x0 /home/dexheimere/Firmware/build_px4fmu-v2_lpe/px4io-v2/NuttX/nuttx-export/libs/libnuttx.a(sched-task_create.o)
 *fill*         0x0800a5b6        0x2 
 .text.thread_create
                0x0800a5b8       0xa8 /home/dexheimere/Firmware/build_px4fmu-v2_lpe/px4io-v2/NuttX/nuttx-export/libs/libnuttx.a(sched-task_create.o)
 .text.task_create
                0x0800a660       0x16 /home/dexheimere/Firmware/build_px4fmu-v2_lpe/px4io-v2/NuttX/nuttx-export/libs/libnuttx.a(sched-task_create.o)
                0x0800a660                task_create
 .text.kernel_thread
                0x0800a676       0x16 /home/dexheimere/Firmware/build_px4fmu-v2_lpe/px4io-v2/NuttX/nuttx-export/libs/libnuttx.a(sched-task_create.o)
                0x0800a676                kernel_thread
 .text          0x0800a68c        0x0 /home/dexheimere/Firmware/build_px4fmu-v2_lpe/px4io-v2/NuttX/nuttx-export/libs/libnuttx.a(sched-task_exit.o)
 .text.task_exit
                0x0800a68c       0x4c /home/dexheimere/Firmware/build_px4fmu-v2_lpe/px4io-v2/NuttX/nuttx-export/libs/libnuttx.a(sched-task_exit.o)
                0x0800a68c                task_exit
 .text          0x0800a6d8        0x0 /home/dexheimere/Firmware/build_px4fmu-v2_lpe/px4io-v2/NuttX/nuttx-export/libs/libnuttx.a(sched-task_setup.o)
 .text.task_schedsetup
                0x0800a6d8       0xac /home/dexheimere/Firmware/build_px4fmu-v2_lpe/px4io-v2/NuttX/nuttx-export/libs/libnuttx.a(sched-task_setup.o)
                0x0800a6d8                task_schedsetup
 .text.task_argsetup
                0x0800a784       0x64 /home/dexheimere/Firmware/build_px4fmu-v2_lpe/px4io-v2/NuttX/nuttx-export/libs/libnuttx.a(sched-task_setup.o)
                0x0800a784                task_argsetup
 .text          0x0800a7e8        0x0 /home/dexheimere/Firmware/build_px4fmu-v2_lpe/px4io-v2/NuttX/nuttx-export/libs/libnuttx.a(sched-task_start.o)
 .text.task_start
                0x0800a7e8       0x28 /home/dexheimere/Firmware/build_px4fmu-v2_lpe/px4io-v2/NuttX/nuttx-export/libs/libnuttx.a(sched-task_start.o)
                0x0800a7e8                task_start
 .text          0x0800a810        0x0 /home/dexheimere/Firmware/build_px4fmu-v2_lpe/px4io-v2/NuttX/nuttx-export/libs/libnuttx.a(sched-task_terminate.o)
 .text.task_terminate
                0x0800a810       0x78 /home/dexheimere/Firmware/build_px4fmu-v2_lpe/px4io-v2/NuttX/nuttx-export/libs/libnuttx.a(sched-task_terminate.o)
                0x0800a810                task_terminate
 .text          0x0800a888        0x0 /home/dexheimere/Firmware/build_px4fmu-v2_lpe/px4io-v2/NuttX/nuttx-export/libs/libnuttx.a(c-dq_addlast.o)
 .text.dq_addlast
                0x0800a888       0x18 /home/dexheimere/Firmware/build_px4fmu-v2_lpe/px4io-v2/NuttX/nuttx-export/libs/libnuttx.a(c-dq_addlast.o)
                0x0800a888                dq_addlast
 .text          0x0800a8a0        0x0 /home/dexheimere/Firmware/build_px4fmu-v2_lpe/px4io-v2/NuttX/nuttx-export/libs/libnuttx.a(c-dq_rem.o)
 .text.dq_rem   0x0800a8a0       0x1c /home/dexheimere/Firmware/build_px4fmu-v2_lpe/px4io-v2/NuttX/nuttx-export/libs/libnuttx.a(c-dq_rem.o)
                0x0800a8a0                dq_rem
 .text          0x0800a8bc        0x0 /home/dexheimere/Firmware/build_px4fmu-v2_lpe/px4io-v2/NuttX/nuttx-export/libs/libnuttx.a(c-lib_strdup.o)
 .text.strdup   0x0800a8bc       0x1c /home/dexheimere/Firmware/build_px4fmu-v2_lpe/px4io-v2/NuttX/nuttx-export/libs/libnuttx.a(c-lib_strdup.o)
                0x0800a8bc                strdup
 .text          0x0800a8d8        0x0 /home/dexheimere/Firmware/build_px4fmu-v2_lpe/px4io-v2/NuttX/nuttx-export/libs/libnuttx.a(arch-stm32_timerisr.o)
 .text.up_timerisr
                0x0800a8d8        0xa /home/dexheimere/Firmware/build_px4fmu-v2_lpe/px4io-v2/NuttX/nuttx-export/libs/libnuttx.a(arch-stm32_timerisr.o)
                0x0800a8d8                up_timerisr
 *fill*         0x0800a8e2        0x2 
 .text.up_timerinit
                0x0800a8e4       0x40 /home/dexheimere/Firmware/build_px4fmu-v2_lpe/px4io-v2/NuttX/nuttx-export/libs/libnuttx.a(arch-stm32_timerisr.o)
                0x0800a8e4                up_timerinit
 .text          0x0800a924        0x0 /home/dexheimere/Firmware/build_px4fmu-v2_lpe/px4io-v2/NuttX/nuttx-export/libs/libnuttx.a(arch-up_createstack.o)
 .text.up_create_stack
                0x0800a924       0x42 /home/dexheimere/Firmware/build_px4fmu-v2_lpe/px4io-v2/NuttX/nuttx-export/libs/libnuttx.a(arch-up_createstack.o)
                0x0800a924                up_create_stack
 .text          0x0800a966        0x0 /home/dexheimere/Firmware/build_px4fmu-v2_lpe/px4io-v2/NuttX/nuttx-export/libs/libnuttx.a(arch-up_doirq.o)
 *fill*         0x0800a966        0x2 
 .text.up_doirq
                0x0800a968       0x2c /home/dexheimere/Firmware/build_px4fmu-v2_lpe/px4io-v2/NuttX/nuttx-export/libs/libnuttx.a(arch-up_doirq.o)
                0x0800a968                up_doirq
 .text          0x0800a994        0x0 /home/dexheimere/Firmware/build_px4fmu-v2_lpe/px4io-v2/NuttX/nuttx-export/libs/libnuttx.a(arch-up_releasestack.o)
 .text.up_release_stack
                0x0800a994       0x16 /home/dexheimere/Firmware/build_px4fmu-v2_lpe/px4io-v2/NuttX/nuttx-export/libs/libnuttx.a(arch-up_releasestack.o)
                0x0800a994                up_release_stack
 .text          0x0800a9aa        0x0 /home/dexheimere/Firmware/build_px4fmu-v2_lpe/px4io-v2/NuttX/nuttx-export/libs/libnuttx.a(fs-fs_close.o)
 .text.close    0x0800a9aa       0x24 /home/dexheimere/Firmware/build_px4fmu-v2_lpe/px4io-v2/NuttX/nuttx-export/libs/libnuttx.a(fs-fs_close.o)
                0x0800a9aa                close
 .text          0x0800a9ce        0x0 /home/dexheimere/Firmware/build_px4fmu-v2_lpe/px4io-v2/NuttX/nuttx-export/libs/libnuttx.a(fs-fs_filedup2.o)
 .text.dup2     0x0800a9ce       0x4a /home/dexheimere/Firmware/build_px4fmu-v2_lpe/px4io-v2/NuttX/nuttx-export/libs/libnuttx.a(fs-fs_filedup2.o)
                0x0800a9ce                dup2
 .text          0x0800aa18        0x0 /home/dexheimere/Firmware/build_px4fmu-v2_lpe/px4io-v2/NuttX/nuttx-export/libs/libnuttx.a(fs-fs_inodereserve.o)
 .text.inode_alloc
                0x0800aa18       0x3c /home/dexheimere/Firmware/build_px4fmu-v2_lpe/px4io-v2/NuttX/nuttx-export/libs/libnuttx.a(fs-fs_inodereserve.o)
 .text.inode_reserve
                0x0800aa54       0x9c /home/dexheimere/Firmware/build_px4fmu-v2_lpe/px4io-v2/NuttX/nuttx-export/libs/libnuttx.a(fs-fs_inodereserve.o)
                0x0800aa54                inode_reserve
 .text          0x0800aaf0        0x0 /home/dexheimere/Firmware/build_px4fmu-v2_lpe/px4io-v2/NuttX/nuttx-export/libs/libnuttx.a(sched-group_setuptaskfiles.o)
 .text.group_setuptaskfiles
                0x0800aaf0        0xe /home/dexheimere/Firmware/build_px4fmu-v2_lpe/px4io-v2/NuttX/nuttx-export/libs/libnuttx.a(sched-group_setuptaskfiles.o)
                0x0800aaf0                group_setuptaskfiles
 .text          0x0800aafe        0x0 /home/dexheimere/Firmware/build_px4fmu-v2_lpe/px4io-v2/NuttX/nuttx-export/libs/libnuttx.a(sched-irq_dispatch.o)
 *fill*         0x0800aafe        0x2 
 .text.irq_dispatch
                0x0800ab00       0x20 /home/dexheimere/Firmware/build_px4fmu-v2_lpe/px4io-v2/NuttX/nuttx-export/libs/libnuttx.a(sched-irq_dispatch.o)
                0x0800ab00                irq_dispatch
 .text          0x0800ab20        0x0 /home/dexheimere/Firmware/build_px4fmu-v2_lpe/px4io-v2/NuttX/nuttx-export/libs/libnuttx.a(sched-sched_gettcb.o)
 .text.sched_gettcb
                0x0800ab20       0x24 /home/dexheimere/Firmware/build_px4fmu-v2_lpe/px4io-v2/NuttX/nuttx-export/libs/libnuttx.a(sched-sched_gettcb.o)
                0x0800ab20                sched_gettcb
 .text          0x0800ab44        0x0 /home/dexheimere/Firmware/build_px4fmu-v2_lpe/px4io-v2/NuttX/nuttx-export/libs/libnuttx.a(sched-sched_lock.o)
 .text.sched_lock
                0x0800ab44       0x30 /home/dexheimere/Firmware/build_px4fmu-v2_lpe/px4io-v2/NuttX/nuttx-export/libs/libnuttx.a(sched-sched_lock.o)
                0x0800ab44                sched_lock
 .text          0x0800ab74        0x0 /home/dexheimere/Firmware/build_px4fmu-v2_lpe/px4io-v2/NuttX/nuttx-export/libs/libnuttx.a(sched-sched_processtimer.o)
 .text.sched_process_timer
                0x0800ab74       0x1c /home/dexheimere/Firmware/build_px4fmu-v2_lpe/px4io-v2/NuttX/nuttx-export/libs/libnuttx.a(sched-sched_processtimer.o)
                0x0800ab74                sched_process_timer
 .text          0x0800ab90        0x0 /home/dexheimere/Firmware/build_px4fmu-v2_lpe/px4io-v2/NuttX/nuttx-export/libs/libnuttx.a(sched-sched_releasetcb.o)
 .text.sched_releasetcb
                0x0800ab90       0x58 /home/dexheimere/Firmware/build_px4fmu-v2_lpe/px4io-v2/NuttX/nuttx-export/libs/libnuttx.a(sched-sched_releasetcb.o)
                0x0800ab90                sched_releasetcb
 .text          0x0800abe8        0x0 /home/dexheimere/Firmware/build_px4fmu-v2_lpe/px4io-v2/NuttX/nuttx-export/libs/libnuttx.a(sched-sched_unlock.o)
 .text.sched_unlock
                0x0800abe8       0x48 /home/dexheimere/Firmware/build_px4fmu-v2_lpe/px4io-v2/NuttX/nuttx-export/libs/libnuttx.a(sched-sched_unlock.o)
                0x0800abe8                sched_unlock
 .text          0x0800ac30        0x0 /home/dexheimere/Firmware/build_px4fmu-v2_lpe/px4io-v2/NuttX/nuttx-export/libs/libnuttx.a(sched-task_activate.o)
 .text.task_activate
                0x0800ac30       0x18 /home/dexheimere/Firmware/build_px4fmu-v2_lpe/px4io-v2/NuttX/nuttx-export/libs/libnuttx.a(sched-task_activate.o)
                0x0800ac30                task_activate
 .text          0x0800ac48        0x0 /home/dexheimere/Firmware/build_px4fmu-v2_lpe/px4io-v2/NuttX/nuttx-export/libs/libnuttx.a(arch-up_releasepending.o)
 .text.up_release_pending
                0x0800ac48       0x38 /home/dexheimere/Firmware/build_px4fmu-v2_lpe/px4io-v2/NuttX/nuttx-export/libs/libnuttx.a(arch-up_releasepending.o)
                0x0800ac48                up_release_pending
 .text          0x0800ac80        0x0 /home/dexheimere/gcc-arm-none-eabi-5_4-2016q2/bin/../lib/gcc/arm-none-eabi/5.4.1/../../../../arm-none-eabi/lib/armv7-m/libm.a(lib_a-sf_fmin.o)
 .text.fminf    0x0800ac80       0x28 /home/dexheimere/gcc-arm-none-eabi-5_4-2016q2/bin/../lib/gcc/arm-none-eabi/5.4.1/../../../../arm-none-eabi/lib/armv7-m/libm.a(lib_a-sf_fmin.o)
                0x0800ac80                fminf
 .text          0x0800aca8        0x0 /home/dexheimere/gcc-arm-none-eabi-5_4-2016q2/bin/../lib/gcc/arm-none-eabi/5.4.1/../../../../arm-none-eabi/lib/armv7-m/libm.a(lib_a-sf_fpclassify.o)
 .text.__fpclassifyf
                0x0800aca8       0x34 /home/dexheimere/gcc-arm-none-eabi-5_4-2016q2/bin/../lib/gcc/arm-none-eabi/5.4.1/../../../../arm-none-eabi/lib/armv7-m/libm.a(lib_a-sf_fpclassify.o)
                0x0800aca8                __fpclassifyf
 .text          0x0800acdc        0x0 /home/dexheimere/gcc-arm-none-eabi-5_4-2016q2/bin/../lib/gcc/arm-none-eabi/5.4.1/../../../../arm-none-eabi/lib/armv7-m/libm.a(lib_a-wf_sqrt.o)
 .text.sqrtf    0x0800acdc       0x9c /home/dexheimere/gcc-arm-none-eabi-5_4-2016q2/bin/../lib/gcc/arm-none-eabi/5.4.1/../../../../arm-none-eabi/lib/armv7-m/libm.a(lib_a-wf_sqrt.o)
                0x0800acdc                sqrtf
 .text          0x0800ad78        0x0 /home/dexheimere/gcc-arm-none-eabi-5_4-2016q2/bin/../lib/gcc/arm-none-eabi/5.4.1/../../../../arm-none-eabi/lib/armv7-m/libm.a(lib_a-ef_sqrt.o)
 .text.__ieee754_sqrtf
                0x0800ad78       0xa8 /home/dexheimere/gcc-arm-none-eabi-5_4-2016q2/bin/../lib/gcc/arm-none-eabi/5.4.1/../../../../arm-none-eabi/lib/armv7-m/libm.a(lib_a-ef_sqrt.o)
                0x0800ad78                __ieee754_sqrtf
 .text          0x0800ae20        0x0 /home/dexheimere/gcc-arm-none-eabi-5_4-2016q2/bin/../lib/gcc/arm-none-eabi/5.4.1/../../../../arm-none-eabi/lib/armv7-m/libm.a(lib_a-s_lib_ver.o)
 .text          0x0800ae20        0x0 /home/dexheimere/gcc-arm-none-eabi-5_4-2016q2/bin/../lib/gcc/arm-none-eabi/5.4.1/../../../../arm-none-eabi/lib/armv7-m/libm.a(lib_a-s_matherr.o)
 .text.matherr  0x0800ae20        0x4 /home/dexheimere/gcc-arm-none-eabi-5_4-2016q2/bin/../lib/gcc/arm-none-eabi/5.4.1/../../../../arm-none-eabi/lib/armv7-m/libm.a(lib_a-s_matherr.o)
                0x0800ae20                matherr
 .text          0x0800ae24       0x18 /home/dexheimere/gcc-arm-none-eabi-5_4-2016q2/bin/../lib/gcc/arm-none-eabi/5.4.1/armv7-m/libgcc.a(_lshrdi3.o)
                0x0800ae24                __aeabi_llsr
                0x0800ae24                __lshrdi3
 .text          0x0800ae3c      0x370 /home/dexheimere/gcc-arm-none-eabi-5_4-2016q2/bin/../lib/gcc/arm-none-eabi/5.4.1/armv7-m/libgcc.a(_arm_addsubdf3.o)
                0x0800ae3c                __aeabi_drsub
                0x0800ae44                __aeabi_dsub
                0x0800ae44                __subdf3
                0x0800ae48                __adddf3
                0x0800ae48                __aeabi_dadd
                0x0800b0c0                __aeabi_ui2d
                0x0800b0c0                __floatunsidf
                0x0800b0e0                __floatsidf
                0x0800b0e0                __aeabi_i2d
                0x0800b104                __extendsfdf2
                0x0800b104                __aeabi_f2d
                0x0800b140                __aeabi_ul2d
                0x0800b140                __floatundidf
                0x0800b150                __floatdidf
                0x0800b150                __aeabi_l2d
 .text          0x0800b1ac      0x424 /home/dexheimere/gcc-arm-none-eabi-5_4-2016q2/bin/../lib/gcc/arm-none-eabi/5.4.1/armv7-m/libgcc.a(_arm_muldivdf3.o)
                0x0800b1ac                __aeabi_dmul
                0x0800b1ac                __muldf3
                0x0800b400                __aeabi_ddiv
                0x0800b400                __divdf3
 .text          0x0800b5d0       0xa0 /home/dexheimere/gcc-arm-none-eabi-5_4-2016q2/bin/../lib/gcc/arm-none-eabi/5.4.1/armv7-m/libgcc.a(_arm_truncdfsf2.o)
                0x0800b5d0                __aeabi_d2f
                0x0800b5d0                __truncdfsf2
 .text          0x0800b670      0x21c /home/dexheimere/gcc-arm-none-eabi-5_4-2016q2/bin/../lib/gcc/arm-none-eabi/5.4.1/armv7-m/libgcc.a(_arm_addsubsf3.o)
                0x0800b670                __aeabi_frsub
                0x0800b678                __subsf3
                0x0800b678                __aeabi_fsub
                0x0800b67c                __aeabi_fadd
                0x0800b67c                __addsf3
                0x0800b7dc                __aeabi_ui2f
                0x0800b7dc                __floatunsisf
                0x0800b7e4                __aeabi_i2f
                0x0800b7e4                __floatsisf
                0x0800b800                __floatundisf
                0x0800b800                __aeabi_ul2f
                0x0800b810                __floatdisf
                0x0800b810                __aeabi_l2f
 .text          0x0800b88c      0x2a0 /home/dexheimere/gcc-arm-none-eabi-5_4-2016q2/bin/../lib/gcc/arm-none-eabi/5.4.1/armv7-m/libgcc.a(_arm_muldivsf3.o)
                0x0800b88c                __mulsf3
                0x0800b88c                __aeabi_fmul
                0x0800b9f4                __divsf3
                0x0800b9f4                __aeabi_fdiv
 .text          0x0800bb2c       0xec /home/dexheimere/gcc-arm-none-eabi-5_4-2016q2/bin/../lib/gcc/arm-none-eabi/5.4.1/armv7-m/libgcc.a(_arm_cmpsf2.o)
                0x0800bb2c                __gtsf2
                0x0800bb2c                __gesf2
                0x0800bb34                __lesf2
                0x0800bb34                __ltsf2
                0x0800bb3c                __nesf2
                0x0800bb3c                __eqsf2
                0x0800bb3c                __cmpsf2
                0x0800bb9c                __aeabi_cfrcmple
                0x0800bba4                __aeabi_cfcmple
                0x0800bba4                __aeabi_cfcmpeq
                0x0800bbb4                __aeabi_fcmpeq
                0x0800bbc8                __aeabi_fcmplt
                0x0800bbdc                __aeabi_fcmple
                0x0800bbf0                __aeabi_fcmpge
                0x0800bc04                __aeabi_fcmpgt
 .text          0x0800bc18       0x2c /home/dexheimere/gcc-arm-none-eabi-5_4-2016q2/bin/../lib/gcc/arm-none-eabi/5.4.1/armv7-m/libgcc.a(_arm_unordsf2.o)
                0x0800bc18                __aeabi_fcmpun
                0x0800bc18                __unordsf2
 .text          0x0800bc44       0x4c /home/dexheimere/gcc-arm-none-eabi-5_4-2016q2/bin/../lib/gcc/arm-none-eabi/5.4.1/armv7-m/libgcc.a(_arm_fixsfsi.o)
                0x0800bc44                __fixsfsi
                0x0800bc44                __aeabi_f2iz
 .text          0x0800bc90       0x40 /home/dexheimere/gcc-arm-none-eabi-5_4-2016q2/bin/../lib/gcc/arm-none-eabi/5.4.1/armv7-m/libgcc.a(_arm_fixunssfsi.o)
                0x0800bc90                __aeabi_f2uiz
                0x0800bc90                __fixunssfsi
 .text          0x0800bcd0       0x30 /home/dexheimere/gcc-arm-none-eabi-5_4-2016q2/bin/../lib/gcc/arm-none-eabi/5.4.1/armv7-m/libgcc.a(_aeabi_uldivmod.o)
                0x0800bcd0                __aeabi_uldivmod
 .text          0x0800bd00      0x2ec /home/dexheimere/gcc-arm-none-eabi-5_4-2016q2/bin/../lib/gcc/arm-none-eabi/5.4.1/armv7-m/libgcc.a(_udivmoddi4.o)
                0x0800bd00                __udivmoddi4
 .text          0x0800bfec        0x4 /home/dexheimere/gcc-arm-none-eabi-5_4-2016q2/bin/../lib/gcc/arm-none-eabi/5.4.1/armv7-m/libgcc.a(_dvmd_tls.o)
                0x0800bfec                __aeabi_ldiv0
                0x0800bfec                __aeabi_idiv0
 *(.fixup)
 *(.gnu.warning)
 *(.rodata .rodata.*)
 .rodata.str1.4
                0x0800bff0       0x17 src/modules/px4iofirmware/CMakeFiles/px4io-v2.dir/controls.c.obj
 *fill*         0x0800c007        0x1 
 .rodata.str1.4
                0x0800c008       0x68 src/modules/px4iofirmware/CMakeFiles/px4io-v2.dir/px4io.c.obj
 .rodata.r_page_config
                0x0800c070       0x12 src/modules/px4iofirmware/CMakeFiles/px4io-v2.dir/registers.c.obj
 *fill*         0x0800c082        0x2 
 .rodata.str1.4
                0x0800c084       0x35 src/modules/px4iofirmware/CMakeFiles/px4io-v2.dir/registers.c.obj
 *fill*         0x0800c0b9        0x3 
 .rodata.str1.4
                0x0800c0bc       0xe1 src/modules/px4iofirmware/CMakeFiles/px4io-v2.dir/__/systemlib/perf_counter.c.obj
 *fill*         0x0800c19d        0x3 
 .rodata.str1.4
                0x0800c1a0       0x63 src/modules/px4iofirmware/CMakeFiles/px4io-v2.dir/mixer.cpp.obj
 *fill*         0x0800c203        0x1 
 .rodata._ZTV5Mixer
                0x0800c204       0x18 src/modules/px4iofirmware/CMakeFiles/px4io-v2.dir/__/systemlib/mixer/mixer.cpp.obj
                0x0800c204                vtable for Mixer
 .rodata._ZTV9NullMixer
                0x0800c21c       0x18 src/modules/px4iofirmware/CMakeFiles/px4io-v2.dir/__/systemlib/mixer/mixer.cpp.obj
                0x0800c21c                vtable for NullMixer
 .rodata._ZTV10MixerGroup
                0x0800c234       0x18 src/modules/px4iofirmware/CMakeFiles/px4io-v2.dir/__/systemlib/mixer/mixer_group.cpp.obj
                0x0800c234                vtable for MixerGroup
 .rodata._ZN12_GLOBAL__N_1L15_config_hex_coxE
                0x0800c24c       0x60 src/modules/px4iofirmware/CMakeFiles/px4io-v2.dir/__/systemlib/mixer/mixer_multirotor.cpp.obj
 .rodata._ZN12_GLOBAL__N_1L19_config_twin_engineE
                0x0800c2ac       0x20 src/modules/px4iofirmware/CMakeFiles/px4io-v2.dir/__/systemlib/mixer/mixer_multirotor.cpp.obj
 .rodata._ZN12_GLOBAL__N_1L13_config_hex_xE
                0x0800c2cc       0x60 src/modules/px4iofirmware/CMakeFiles/px4io-v2.dir/__/systemlib/mixer/mixer_multirotor.cpp.obj
 .rodata._ZN12_GLOBAL__N_1L13_config_tri_yE
                0x0800c32c       0x30 src/modules/px4iofirmware/CMakeFiles/px4io-v2.dir/__/systemlib/mixer/mixer_multirotor.cpp.obj
 .rodata._ZN12_GLOBAL__N_1L14_config_quad_hE
                0x0800c35c       0x40 src/modules/px4iofirmware/CMakeFiles/px4io-v2.dir/__/systemlib/mixer/mixer_multirotor.cpp.obj
 .rodata.str1.4
                0x0800c39c       0x4b src/modules/px4iofirmware/CMakeFiles/px4io-v2.dir/__/systemlib/mixer/mixer_multirotor.cpp.obj
 *fill*         0x0800c3e7        0x1 
 .rodata._ZN12_GLOBAL__N_1L21_config_octa_cox_wideE
                0x0800c3e8       0x80 src/modules/px4iofirmware/CMakeFiles/px4io-v2.dir/__/systemlib/mixer/mixer_multirotor.cpp.obj
 .rodata._ZN12_GLOBAL__N_1L14_config_octa_xE
                0x0800c468       0x80 src/modules/px4iofirmware/CMakeFiles/px4io-v2.dir/__/systemlib/mixer/mixer_multirotor.cpp.obj
 .rodata._ZN12_GLOBAL__N_1L19_config_rotor_countE
                0x0800c4e8       0x3c src/modules/px4iofirmware/CMakeFiles/px4io-v2.dir/__/systemlib/mixer/mixer_multirotor.cpp.obj
 .rodata._ZN12_GLOBAL__N_1L20_config_quad_deadcatE
                0x0800c524       0x40 src/modules/px4iofirmware/CMakeFiles/px4io-v2.dir/__/systemlib/mixer/mixer_multirotor.cpp.obj
 .rodata._ZN12_GLOBAL__N_1L14_config_quad_vE
                0x0800c564       0x40 src/modules/px4iofirmware/CMakeFiles/px4io-v2.dir/__/systemlib/mixer/mixer_multirotor.cpp.obj
 .rodata._ZN12_GLOBAL__N_1L16_config_hex_plusE
                0x0800c5a4       0x60 src/modules/px4iofirmware/CMakeFiles/px4io-v2.dir/__/systemlib/mixer/mixer_multirotor.cpp.obj
 .rodata._ZN12_GLOBAL__N_1L17_config_octa_plusE
                0x0800c604       0x80 src/modules/px4iofirmware/CMakeFiles/px4io-v2.dir/__/systemlib/mixer/mixer_multirotor.cpp.obj
 .rodata._ZN12_GLOBAL__N_1L17_config_quad_plusE
                0x0800c684       0x40 src/modules/px4iofirmware/CMakeFiles/px4io-v2.dir/__/systemlib/mixer/mixer_multirotor.cpp.obj
 .rodata._ZN12_GLOBAL__N_113_config_indexE
                0x0800c6c4       0x3c src/modules/px4iofirmware/CMakeFiles/px4io-v2.dir/__/systemlib/mixer/mixer_multirotor.cpp.obj
 .rodata._ZN12_GLOBAL__N_1L17_config_quad_wideE
                0x0800c700       0x40 src/modules/px4iofirmware/CMakeFiles/px4io-v2.dir/__/systemlib/mixer/mixer_multirotor.cpp.obj
 .rodata._ZN12_GLOBAL__N_1L16_config_octa_coxE
                0x0800c740       0x80 src/modules/px4iofirmware/CMakeFiles/px4io-v2.dir/__/systemlib/mixer/mixer_multirotor.cpp.obj
 .rodata._ZN12_GLOBAL__N_1L14_config_quad_xE
                0x0800c7c0       0x40 src/modules/px4iofirmware/CMakeFiles/px4io-v2.dir/__/systemlib/mixer/mixer_multirotor.cpp.obj
 .rodata._ZTV15MultirotorMixer
                0x0800c800       0x18 src/modules/px4iofirmware/CMakeFiles/px4io-v2.dir/__/systemlib/mixer/mixer_multirotor.cpp.obj
                0x0800c800                vtable for MultirotorMixer
 .rodata._ZTV11SimpleMixer
                0x0800c818       0x18 src/modules/px4iofirmware/CMakeFiles/px4io-v2.dir/__/systemlib/mixer/mixer_simple.cpp.obj
                0x0800c818                vtable for SimpleMixer
 .rodata.str1.4
                0x0800c830       0x38 src/modules/px4iofirmware/CMakeFiles/px4io-v2.dir/__/systemlib/mixer/mixer_simple.cpp.obj
 .rodata.str1.4
                0x0800c868       0x41 src/modules/px4iofirmware/CMakeFiles/px4io-v2.dir/__/__/lib/rc/st24.c.obj
 *fill*         0x0800c8a9        0x3 
 .rodata.str1.4
                0x0800c8ac      0x24a src/modules/px4iofirmware/CMakeFiles/px4io-v2.dir/__/__/lib/rc/sumd.c.obj
 *fill*         0x0800caf6        0x2 
 .rodata.sbus_decoder
                0x0800caf8       0xc0 src/modules/px4iofirmware/CMakeFiles/px4io-v2.dir/__/__/lib/rc/sbus.c.obj
 .rodata.masks.6935
                0x0800cbb8       0x1c src/modules/px4iofirmware/CMakeFiles/px4io-v2.dir/__/__/lib/rc/dsm.c.obj
 .rodata.latency_bucket_count
                0x0800cbd4        0x2 src/modules/px4iofirmware/CMakeFiles/px4io-v2.dir/__/__/drivers/stm32/drv_hrt.c.obj
                0x0800cbd4                latency_bucket_count
 *fill*         0x0800cbd6        0x2 
 .rodata.latency_buckets
                0x0800cbd8       0x10 src/modules/px4iofirmware/CMakeFiles/px4io-v2.dir/__/__/drivers/stm32/drv_hrt.c.obj
                0x0800cbd8                latency_buckets
 .rodata.io_timers
                0x0800cbe8       0x80 src/modules/px4iofirmware/CMakeFiles/px4io-v2.dir/__/__/drivers/boards/px4io-v2/px4io_timer_config.c.obj
                0x0800cbe8                io_timers
 .rodata.timer_io_channels
                0x0800cc68       0x80 src/modules/px4iofirmware/CMakeFiles/px4io-v2.dir/__/__/drivers/boards/px4io-v2/px4io_timer_config.c.obj
                0x0800cc68                timer_io_channels
 .rodata.crc8_tab
                0x0800cce8      0x100 src/modules/px4iofirmware/CMakeFiles/px4io-v2.dir/serial.c.obj
 .rodata.str1.1
                0x0800cde8       0x14 /home/dexheimere/Firmware/build_px4fmu-v2_lpe/px4io-v2/NuttX/nuttx-export/libs/libnuttx.a(sched-irq_unexpectedisr.o)
 .rodata.crc32_tab
                0x0800cdfc      0x400 /home/dexheimere/Firmware/build_px4fmu-v2_lpe/px4io-v2/NuttX/nuttx-export/libs/libnuttx.a(c-lib_crc32.o)
 .rodata.str1.1
                0x0800d1fc       0x14 /home/dexheimere/Firmware/build_px4fmu-v2_lpe/px4io-v2/NuttX/nuttx-export/libs/libnuttx.a(c-lib_sscanf.o)
 .rodata.spaces
                0x0800d210        0x7 /home/dexheimere/Firmware/build_px4fmu-v2_lpe/px4io-v2/NuttX/nuttx-export/libs/libnuttx.a(c-lib_sscanf.o)
 .rodata.str1.1
                0x0800d217        0x9 /home/dexheimere/Firmware/build_px4fmu-v2_lpe/px4io-v2/NuttX/nuttx-export/libs/libnuttx.a(mm-mm_sem.o)
 .rodata.str1.1
                0x0800d220       0x17 /home/dexheimere/Firmware/build_px4fmu-v2_lpe/px4io-v2/NuttX/nuttx-export/libs/libnuttx.a(arch-stm32_dma.o)
 *fill*         0x0800d237        0x1 
 .rodata.g_gpiobase
                0x0800d238       0x10 /home/dexheimere/Firmware/build_px4fmu-v2_lpe/px4io-v2/NuttX/nuttx-export/libs/libnuttx.a(arch-stm32_gpio.o)
                0x0800d238                g_gpiobase
 .rodata.str1.1
                0x0800d248       0x23 /home/dexheimere/Firmware/build_px4fmu-v2_lpe/px4io-v2/NuttX/nuttx-export/libs/libnuttx.a(arch-stm32_serial.o)
 *fill*         0x0800d26b        0x1 
 .rodata.uart_devs
                0x0800d26c        0xc /home/dexheimere/Firmware/build_px4fmu-v2_lpe/px4io-v2/NuttX/nuttx-export/libs/libnuttx.a(arch-stm32_serial.o)
 .rodata.g_uart_ops
                0x0800d278       0x34 /home/dexheimere/Firmware/build_px4fmu-v2_lpe/px4io-v2/NuttX/nuttx-export/libs/libnuttx.a(arch-stm32_serial.o)
 .rodata.g_uart_dma_ops
                0x0800d2ac       0x34 /home/dexheimere/Firmware/build_px4fmu-v2_lpe/px4io-v2/NuttX/nuttx-export/libs/libnuttx.a(arch-stm32_serial.o)
 .rodata.str1.1
                0x0800d2e0      0x160 /home/dexheimere/Firmware/build_px4fmu-v2_lpe/px4io-v2/NuttX/nuttx-export/libs/libnuttx.a(arch-up_assert.o)
 .rodata.str1.1
                0x0800d440       0x17 /home/dexheimere/Firmware/build_px4fmu-v2_lpe/px4io-v2/NuttX/nuttx-export/libs/libnuttx.a(arch-up_hardfault.o)
 .rodata.str1.1
                0x0800d457       0x19 /home/dexheimere/Firmware/build_px4fmu-v2_lpe/px4io-v2/NuttX/nuttx-export/libs/libnuttx.a(cxx-libxx_cxapurevirtual.o)
 .rodata.str1.1
                0x0800d470       0x10 /home/dexheimere/Firmware/build_px4fmu-v2_lpe/px4io-v2/NuttX/nuttx-export/libs/libnuttx.a(drivers-serial.o)
 .rodata.g_serialops
                0x0800d480       0x18 /home/dexheimere/Firmware/build_px4fmu-v2_lpe/px4io-v2/NuttX/nuttx-export/libs/libnuttx.a(drivers-serial.o)
 .rodata.g_idlename
                0x0800d498        0xa /home/dexheimere/Firmware/build_px4fmu-v2_lpe/px4io-v2/NuttX/nuttx-export/libs/libnuttx.a(sched-os_start.o)
 *fill*         0x0800d4a2        0x2 
 .rodata.g_tasklisttable
                0x0800d4a4       0x30 /home/dexheimere/Firmware/build_px4fmu-v2_lpe/px4io-v2/NuttX/nuttx-export/libs/libnuttx.a(sched-os_start.o)
                0x0800d4a4                g_tasklisttable
 .rodata.str1.1
                0x0800d4d4        0xb /home/dexheimere/Firmware/build_px4fmu-v2_lpe/px4io-v2/NuttX/nuttx-export/libs/libnuttx.a(sched-sem_post.o)
 .rodata.str1.1
                0x0800d4df        0xb /home/dexheimere/Firmware/build_px4fmu-v2_lpe/px4io-v2/NuttX/nuttx-export/libs/libnuttx.a(sched-sem_wait.o)
 .rodata.str1.1
                0x0800d4ea        0xc /home/dexheimere/Firmware/build_px4fmu-v2_lpe/px4io-v2/NuttX/nuttx-export/libs/libnuttx.a(sched-wd_cancel.o)
 .rodata.g_nullstring
                0x0800d4f6        0x7 /home/dexheimere/Firmware/build_px4fmu-v2_lpe/px4io-v2/NuttX/nuttx-export/libs/libnuttx.a(c-lib_libvsprintf.o)
 .rodata.str1.1
                0x0800d4fd       0x1c /home/dexheimere/Firmware/build_px4fmu-v2_lpe/px4io-v2/NuttX/nuttx-export/libs/libnuttx.a(c-lib_libvsprintf.o)
 .rodata        0x0800d519        0x4 /home/dexheimere/Firmware/build_px4fmu-v2_lpe/px4io-v2/NuttX/nuttx-export/libs/libnuttx.a(arch-stm32_vectors.o)
                0x0800d519                g_idle_topstack
 .rodata.str1.1
                0x0800d51d       0x17 /home/dexheimere/Firmware/build_px4fmu-v2_lpe/px4io-v2/NuttX/nuttx-export/libs/libnuttx.a(arch-up_blocktask.o)
 .rodata.str1.1
                0x0800d534       0x19 /home/dexheimere/Firmware/build_px4fmu-v2_lpe/px4io-v2/NuttX/nuttx-export/libs/libnuttx.a(arch-up_unblocktask.o)
 .rodata.str1.1
                0x0800d54d        0xb /home/dexheimere/Firmware/build_px4fmu-v2_lpe/px4io-v2/NuttX/nuttx-export/libs/libnuttx.a(fs-fs_files.o)
 .rodata.str1.1
                0x0800d558        0xb /home/dexheimere/Firmware/build_px4fmu-v2_lpe/px4io-v2/NuttX/nuttx-export/libs/libnuttx.a(fs-fs_inode.o)
 .rodata.str1.1
                0x0800d563        0xd /home/dexheimere/Firmware/build_px4fmu-v2_lpe/px4io-v2/NuttX/nuttx-export/libs/libnuttx.a(sched-group_setupidlefiles.o)
 .rodata.str1.1
                0x0800d563       0x12 /home/dexheimere/Firmware/build_px4fmu-v2_lpe/px4io-v2/NuttX/nuttx-export/libs/libnuttx.a(sched-os_bringup.o)
 .rodata.str1.1
                0x0800d575       0x13 /home/dexheimere/Firmware/build_px4fmu-v2_lpe/px4io-v2/NuttX/nuttx-export/libs/libnuttx.a(sched-sched_addblocked.o)
 .rodata.str1.1
                0x0800d588       0x17 /home/dexheimere/Firmware/build_px4fmu-v2_lpe/px4io-v2/NuttX/nuttx-export/libs/libnuttx.a(sched-sched_addprioritized.o)
 .rodata.str1.1
                0x0800d59f       0x16 /home/dexheimere/Firmware/build_px4fmu-v2_lpe/px4io-v2/NuttX/nuttx-export/libs/libnuttx.a(sched-sched_addreadytorun.o)
 .rodata.str1.1
                0x0800d5b5       0x15 /home/dexheimere/Firmware/build_px4fmu-v2_lpe/px4io-v2/NuttX/nuttx-export/libs/libnuttx.a(sched-sched_mergepending.o)
 .rodata.str1.1
                0x0800d5ca       0x16 /home/dexheimere/Firmware/build_px4fmu-v2_lpe/px4io-v2/NuttX/nuttx-export/libs/libnuttx.a(sched-sched_removeblocked.o)
 .rodata.str1.1
                0x0800d5e0       0x19 /home/dexheimere/Firmware/build_px4fmu-v2_lpe/px4io-v2/NuttX/nuttx-export/libs/libnuttx.a(sched-sched_removereadytorun.o)
 .rodata.g_noname
                0x0800d5f9        0x9 /home/dexheimere/Firmware/build_px4fmu-v2_lpe/px4io-v2/NuttX/nuttx-export/libs/libnuttx.a(sched-task_setup.o)
 .rodata.str1.1
                0x0800d602       0x11 /home/dexheimere/Firmware/build_px4fmu-v2_lpe/px4io-v2/NuttX/nuttx-export/libs/libnuttx.a(sched-task_terminate.o)
 .rodata.str1.1
                0x0800d613        0xd /home/dexheimere/Firmware/build_px4fmu-v2_lpe/px4io-v2/NuttX/nuttx-export/libs/libnuttx.a(sched-sched_lock.o)
 .rodata.str1.4
                0x0800d620        0x8 /home/dexheimere/gcc-arm-none-eabi-5_4-2016q2/bin/../lib/gcc/arm-none-eabi/5.4.1/../../../../arm-none-eabi/lib/armv7-m/libm.a(lib_a-wf_sqrt.o)
                                  0x6 (size before relaxing)
 *(.gnu.linkonce.t.*)
 *(.glue_7)
 .glue_7        0x0800d628        0x0 linker stubs
 *(.glue_7t)
 .glue_7t       0x0800d628        0x0 linker stubs
 *(.got)
 *(.gcc_except_table)
 *(.gnu.linkonce.r.*)
                0x0800d628                _etext = ABSOLUTE (.)
                0x08008ee4                __errno = get_errno_ptr

.vfp11_veneer   0x0800d628        0x0
 .vfp11_veneer  0x0800d628        0x0 linker stubs

.v4_bx          0x0800d628        0x0
 .v4_bx         0x0800d628        0x0 linker stubs

.iplt           0x0800d628        0x0
 .iplt          0x0800d628        0x0 src/modules/px4iofirmware/CMakeFiles/px4io-v2.dir/adc.c.obj

.init_section   0x0800d628        0x4
                0x0800d628                _sinit = ABSOLUTE (.)
 *(.init_array .init_array.*)
 .init_array    0x0800d628        0x4 src/modules/px4iofirmware/CMakeFiles/px4io-v2.dir/mixer.cpp.obj
                0x0800d62c                _einit = ABSOLUTE (.)

.ARM.extab      0x0800d62c        0x0
 *(.ARM.extab*)
 .ARM.extab     0x0800d62c        0x0 /home/dexheimere/gcc-arm-none-eabi-5_4-2016q2/bin/../lib/gcc/arm-none-eabi/5.4.1/armv7-m/libgcc.a(_udivmoddi4.o)
                0x0800d62c                __exidx_start = ABSOLUTE (.)

.ARM.exidx      0x0800d62c        0x8
 *(.ARM.exidx*)
 .ARM.exidx     0x0800d62c        0x8 /home/dexheimere/gcc-arm-none-eabi-5_4-2016q2/bin/../lib/gcc/arm-none-eabi/5.4.1/armv7-m/libgcc.a(_udivmoddi4.o)
                0x0800d634                __exidx_end = ABSOLUTE (.)
                0x0800d634                _eronly = ABSOLUTE (.)

.rel.dyn        0x0800d634        0x0
 .rel.iplt      0x0800d634        0x0 src/modules/px4iofirmware/CMakeFiles/px4io-v2.dir/adc.c.obj

.data           0x20000000      0x230 load address 0x0800d634
                0x20000000                _sdata = ABSOLUTE (.)
 *(.data .data.*)
 .data          0x20000000        0x0 src/modules/px4iofirmware/CMakeFiles/px4io-v2.dir/adc.c.obj
 .data          0x20000000        0x0 src/modules/px4iofirmware/CMakeFiles/px4io-v2.dir/controls.c.obj
 .data._dsm_fd  0x20000000        0x4 src/modules/px4iofirmware/CMakeFiles/px4io-v2.dir/controls.c.obj
 .data._sbus_fd
                0x20000004        0x4 src/modules/px4iofirmware/CMakeFiles/px4io-v2.dir/controls.c.obj
                0x20000004                _sbus_fd
 .data          0x20000008        0x0 src/modules/px4iofirmware/CMakeFiles/px4io-v2.dir/px4io.c.obj
 .data.brightness.7246
                0x20000008        0x4 src/modules/px4iofirmware/CMakeFiles/px4io-v2.dir/px4io.c.obj
 .data          0x2000000c        0x0 src/modules/px4iofirmware/CMakeFiles/px4io-v2.dir/registers.c.obj
 .data.r_page_servo_control_min
                0x2000000c       0x10 src/modules/px4iofirmware/CMakeFiles/px4io-v2.dir/registers.c.obj
                0x2000000c                r_page_servo_control_min
 .data.r_page_servo_control_max
                0x2000001c       0x10 src/modules/px4iofirmware/CMakeFiles/px4io-v2.dir/registers.c.obj
                0x2000001c                r_page_servo_control_max
 .data.r_page_setup
                0x2000002c       0x26 src/modules/px4iofirmware/CMakeFiles/px4io-v2.dir/registers.c.obj
                0x2000002c                r_page_setup
 .data          0x20000052        0x0 src/modules/px4iofirmware/CMakeFiles/px4io-v2.dir/safety.c.obj
 .data          0x20000052        0x0 src/modules/px4iofirmware/CMakeFiles/px4io-v2.dir/__/systemlib/up_cxxinitialize.c.obj
 .data          0x20000052        0x0 src/modules/px4iofirmware/CMakeFiles/px4io-v2.dir/__/systemlib/perf_counter.c.obj
 .data          0x20000052        0x0 src/modules/px4iofirmware/CMakeFiles/px4io-v2.dir/mixer.cpp.obj
 .data          0x20000052        0x0 src/modules/px4iofirmware/CMakeFiles/px4io-v2.dir/__/systemlib/mixer/mixer.cpp.obj
 .data          0x20000052        0x0 src/modules/px4iofirmware/CMakeFiles/px4io-v2.dir/__/systemlib/mixer/mixer_group.cpp.obj
 .data          0x20000052        0x0 src/modules/px4iofirmware/CMakeFiles/px4io-v2.dir/__/systemlib/mixer/mixer_multirotor.cpp.obj
 .data          0x20000052        0x0 src/modules/px4iofirmware/CMakeFiles/px4io-v2.dir/__/systemlib/mixer/mixer_simple.cpp.obj
 .data          0x20000052        0x0 src/modules/px4iofirmware/CMakeFiles/px4io-v2.dir/__/systemlib/pwm_limit/pwm_limit.c.obj
 .data          0x20000052        0x0 src/modules/px4iofirmware/CMakeFiles/px4io-v2.dir/__/__/lib/rc/st24.c.obj
 *fill*         0x20000052        0x2 
 .data.decode_states
                0x20000054       0x18 src/modules/px4iofirmware/CMakeFiles/px4io-v2.dir/__/__/lib/rc/st24.c.obj
                0x20000054                decode_states
 .data          0x2000006c        0x0 src/modules/px4iofirmware/CMakeFiles/px4io-v2.dir/__/__/lib/rc/sumd.c.obj
 .data._sumd    0x2000006c        0x1 src/modules/px4iofirmware/CMakeFiles/px4io-v2.dir/__/__/lib/rc/sumd.c.obj
                0x2000006c                _sumd
 .data          0x2000006d        0x0 src/modules/px4iofirmware/CMakeFiles/px4io-v2.dir/__/__/lib/rc/sbus.c.obj
 *fill*         0x2000006d        0x1 
 .data.sbus_decode_state
                0x2000006e        0x2 src/modules/px4iofirmware/CMakeFiles/px4io-v2.dir/__/__/lib/rc/sbus.c.obj
 .data          0x20000070        0x0 src/modules/px4iofirmware/CMakeFiles/px4io-v2.dir/__/__/lib/rc/dsm.c.obj
 .data.dsm_fd   0x20000070        0x4 src/modules/px4iofirmware/CMakeFiles/px4io-v2.dir/__/__/lib/rc/dsm.c.obj
 .data          0x20000074        0x0 src/modules/px4iofirmware/CMakeFiles/px4io-v2.dir/__/__/drivers/stm32/drv_hrt.c.obj
 .data          0x20000074        0x0 src/modules/px4iofirmware/CMakeFiles/px4io-v2.dir/__/__/drivers/stm32/drv_io_timer.c.obj
 .data.channel_allocations
                0x20000074        0x4 src/modules/px4iofirmware/CMakeFiles/px4io-v2.dir/__/__/drivers/stm32/drv_io_timer.c.obj
                0x20000074                channel_allocations
 .data          0x20000078        0x0 src/modules/px4iofirmware/CMakeFiles/px4io-v2.dir/__/__/drivers/stm32/drv_pwm_servo.c.obj
 .data          0x20000078        0x0 src/modules/px4iofirmware/CMakeFiles/px4io-v2.dir/__/__/drivers/boards/px4io-v2/px4io_init.c.obj
 .data          0x20000078        0x0 src/modules/px4iofirmware/CMakeFiles/px4io-v2.dir/__/__/drivers/boards/px4io-v2/px4io_timer_config.c.obj
 .data          0x20000078        0x0 src/modules/px4iofirmware/CMakeFiles/px4io-v2.dir/serial.c.obj
 .data          0x20000078        0x0 src/modules/px4iofirmware/CMakeFiles/px4io-v2.dir/__/systemlib/hx_stream.c.obj
 .data          0x20000078        0x0 /home/dexheimere/Firmware/build_px4fmu-v2_lpe/px4io-v2/NuttX/nuttx-export/libs/libnuttx.a(sched-irq_attach.o)
 .data          0x20000078        0x0 /home/dexheimere/Firmware/build_px4fmu-v2_lpe/px4io-v2/NuttX/nuttx-export/libs/libnuttx.a(sched-irq_initialize.o)
 .data          0x20000078        0x0 /home/dexheimere/Firmware/build_px4fmu-v2_lpe/px4io-v2/NuttX/nuttx-export/libs/libnuttx.a(sched-irq_unexpectedisr.o)
 .data          0x20000078        0x0 /home/dexheimere/Firmware/build_px4fmu-v2_lpe/px4io-v2/NuttX/nuttx-export/libs/libnuttx.a(c-lib_abort.o)
 .data          0x20000078        0x0 /home/dexheimere/Firmware/build_px4fmu-v2_lpe/px4io-v2/NuttX/nuttx-export/libs/libnuttx.a(c-lib_cfsetspeed.o)
 .data          0x20000078        0x0 /home/dexheimere/Firmware/build_px4fmu-v2_lpe/px4io-v2/NuttX/nuttx-export/libs/libnuttx.a(c-lib_crc32.o)
 .data          0x20000078        0x0 /home/dexheimere/Firmware/build_px4fmu-v2_lpe/px4io-v2/NuttX/nuttx-export/libs/libnuttx.a(c-lib_dprintf.o)
 .data          0x20000078        0x0 /home/dexheimere/Firmware/build_px4fmu-v2_lpe/px4io-v2/NuttX/nuttx-export/libs/libnuttx.a(c-lib_lowsyslog.o)
 .data          0x20000078        0x0 /home/dexheimere/Firmware/build_px4fmu-v2_lpe/px4io-v2/NuttX/nuttx-export/libs/libnuttx.a(c-lib_memchr.o)
 .data          0x20000078        0x0 /home/dexheimere/Firmware/build_px4fmu-v2_lpe/px4io-v2/NuttX/nuttx-export/libs/libnuttx.a(c-lib_memcpy.o)
 .data          0x20000078        0x0 /home/dexheimere/Firmware/build_px4fmu-v2_lpe/px4io-v2/NuttX/nuttx-export/libs/libnuttx.a(c-lib_memset.o)
 .data          0x20000078        0x0 /home/dexheimere/Firmware/build_px4fmu-v2_lpe/px4io-v2/NuttX/nuttx-export/libs/libnuttx.a(c-lib_printf.o)
 .data          0x20000078        0x0 /home/dexheimere/Firmware/build_px4fmu-v2_lpe/px4io-v2/NuttX/nuttx-export/libs/libnuttx.a(c-lib_sscanf.o)
 .data          0x20000078        0x0 /home/dexheimere/Firmware/build_px4fmu-v2_lpe/px4io-v2/NuttX/nuttx-export/libs/libnuttx.a(c-lib_strchr.o)
 .data          0x20000078        0x0 /home/dexheimere/Firmware/build_px4fmu-v2_lpe/px4io-v2/NuttX/nuttx-export/libs/libnuttx.a(c-lib_strcmp.o)
 .data          0x20000078        0x0 /home/dexheimere/Firmware/build_px4fmu-v2_lpe/px4io-v2/NuttX/nuttx-export/libs/libnuttx.a(c-lib_strcspn.o)
 .data          0x20000078        0x0 /home/dexheimere/Firmware/build_px4fmu-v2_lpe/px4io-v2/NuttX/nuttx-export/libs/libnuttx.a(c-lib_strncpy.o)
 .data          0x20000078        0x0 /home/dexheimere/Firmware/build_px4fmu-v2_lpe/px4io-v2/NuttX/nuttx-export/libs/libnuttx.a(c-lib_strtol.o)
 .data          0x20000078        0x0 /home/dexheimere/Firmware/build_px4fmu-v2_lpe/px4io-v2/NuttX/nuttx-export/libs/libnuttx.a(c-lib_strtoul.o)
 .data          0x20000078        0x0 /home/dexheimere/Firmware/build_px4fmu-v2_lpe/px4io-v2/NuttX/nuttx-export/libs/libnuttx.a(c-lib_syslog.o)
 .data          0x20000078        0x0 /home/dexheimere/Firmware/build_px4fmu-v2_lpe/px4io-v2/NuttX/nuttx-export/libs/libnuttx.a(c-lib_tcgetattr.o)
 .data          0x20000078        0x0 /home/dexheimere/Firmware/build_px4fmu-v2_lpe/px4io-v2/NuttX/nuttx-export/libs/libnuttx.a(c-lib_tcsetattr.o)
 .data          0x20000078        0x0 /home/dexheimere/Firmware/build_px4fmu-v2_lpe/px4io-v2/NuttX/nuttx-export/libs/libnuttx.a(c-lib_vdprintf.o)
 .data          0x20000078        0x0 /home/dexheimere/Firmware/build_px4fmu-v2_lpe/px4io-v2/NuttX/nuttx-export/libs/libnuttx.a(c-lib_vsnprintf.o)
 .data          0x20000078        0x0 /home/dexheimere/Firmware/build_px4fmu-v2_lpe/px4io-v2/NuttX/nuttx-export/libs/libnuttx.a(c-sq_addafter.o)
 .data          0x20000078        0x0 /home/dexheimere/Firmware/build_px4fmu-v2_lpe/px4io-v2/NuttX/nuttx-export/libs/libnuttx.a(c-sq_addfirst.o)
 .data          0x20000078        0x0 /home/dexheimere/Firmware/build_px4fmu-v2_lpe/px4io-v2/NuttX/nuttx-export/libs/libnuttx.a(c-sq_addlast.o)
 .data          0x20000078        0x0 /home/dexheimere/Firmware/build_px4fmu-v2_lpe/px4io-v2/NuttX/nuttx-export/libs/libnuttx.a(c-sq_rem.o)
 .data          0x20000078        0x0 /home/dexheimere/Firmware/build_px4fmu-v2_lpe/px4io-v2/NuttX/nuttx-export/libs/libnuttx.a(mm-mm_calloc.o)
 .data          0x20000078        0x0 /home/dexheimere/Firmware/build_px4fmu-v2_lpe/px4io-v2/NuttX/nuttx-export/libs/libnuttx.a(mm-mm_free.o)
 .data          0x20000078        0x0 /home/dexheimere/Firmware/build_px4fmu-v2_lpe/px4io-v2/NuttX/nuttx-export/libs/libnuttx.a(mm-mm_mallinfo.o)
 .data          0x20000078        0x0 /home/dexheimere/Firmware/build_px4fmu-v2_lpe/px4io-v2/NuttX/nuttx-export/libs/libnuttx.a(mm-mm_malloc.o)
 .data          0x20000078        0x0 /home/dexheimere/Firmware/build_px4fmu-v2_lpe/px4io-v2/NuttX/nuttx-export/libs/libnuttx.a(mm-mm_sem.o)
 .data          0x20000078        0x0 /home/dexheimere/Firmware/build_px4fmu-v2_lpe/px4io-v2/NuttX/nuttx-export/libs/libnuttx.a(mm-mm_size2ndx.o)
 .data          0x20000078        0x0 /home/dexheimere/Firmware/build_px4fmu-v2_lpe/px4io-v2/NuttX/nuttx-export/libs/libnuttx.a(mm-mm_user.o)
 .data          0x20000078        0x0 /home/dexheimere/Firmware/build_px4fmu-v2_lpe/px4io-v2/NuttX/nuttx-export/libs/libnuttx.a(mm-mm_zalloc.o)
 .data          0x20000078        0x0 /home/dexheimere/Firmware/build_px4fmu-v2_lpe/px4io-v2/NuttX/nuttx-export/libs/libnuttx.a(arch-stm32_dma.o)
 .data.g_dma    0x20000078       0x70 /home/dexheimere/Firmware/build_px4fmu-v2_lpe/px4io-v2/NuttX/nuttx-export/libs/libnuttx.a(arch-stm32_dma.o)
 .data          0x200000e8        0x0 /home/dexheimere/Firmware/build_px4fmu-v2_lpe/px4io-v2/NuttX/nuttx-export/libs/libnuttx.a(arch-stm32_gpio.o)
 .data          0x200000e8        0x0 /home/dexheimere/Firmware/build_px4fmu-v2_lpe/px4io-v2/NuttX/nuttx-export/libs/libnuttx.a(arch-stm32_irq.o)
 .data          0x200000e8        0x0 /home/dexheimere/Firmware/build_px4fmu-v2_lpe/px4io-v2/NuttX/nuttx-export/libs/libnuttx.a(arch-stm32_serial.o)
 .data.g_usart1priv
                0x200000e8       0x6c /home/dexheimere/Firmware/build_px4fmu-v2_lpe/px4io-v2/NuttX/nuttx-export/libs/libnuttx.a(arch-stm32_serial.o)
 .data.g_usart2priv
                0x20000154       0x6c /home/dexheimere/Firmware/build_px4fmu-v2_lpe/px4io-v2/NuttX/nuttx-export/libs/libnuttx.a(arch-stm32_serial.o)
 .data.g_usart3priv
                0x200001c0       0x6c /home/dexheimere/Firmware/build_px4fmu-v2_lpe/px4io-v2/NuttX/nuttx-export/libs/libnuttx.a(arch-stm32_serial.o)
 .data          0x2000022c        0x0 /home/dexheimere/Firmware/build_px4fmu-v2_lpe/px4io-v2/NuttX/nuttx-export/libs/libnuttx.a(arch-stm32_start.o)
 .data          0x2000022c        0x0 /home/dexheimere/Firmware/build_px4fmu-v2_lpe/px4io-v2/NuttX/nuttx-export/libs/libnuttx.a(arch-up_assert.o)
 .data          0x2000022c        0x0 /home/dexheimere/Firmware/build_px4fmu-v2_lpe/px4io-v2/NuttX/nuttx-export/libs/libnuttx.a(arch-up_hardfault.o)
 .data          0x2000022c        0x0 /home/dexheimere/Firmware/build_px4fmu-v2_lpe/px4io-v2/NuttX/nuttx-export/libs/libnuttx.a(arch-up_modifyreg32.o)
 .data          0x2000022c        0x0 /home/dexheimere/Firmware/build_px4fmu-v2_lpe/px4io-v2/NuttX/nuttx-export/libs/libnuttx.a(arch-up_svcall.o)
 .data          0x2000022c        0x0 /home/dexheimere/Firmware/build_px4fmu-v2_lpe/px4io-v2/NuttX/nuttx-export/libs/libnuttx.a(arch-up_systemreset.o)
 .data          0x2000022c        0x0 /home/dexheimere/Firmware/build_px4fmu-v2_lpe/px4io-v2/NuttX/nuttx-export/libs/libnuttx.a(arch-up_udelay.o)
 .data          0x2000022c        0x0 /home/dexheimere/Firmware/build_px4fmu-v2_lpe/px4io-v2/NuttX/nuttx-export/libs/libnuttx.a(arch-up_vectors.o)
 .data          0x2000022c        0x0 /home/dexheimere/Firmware/build_px4fmu-v2_lpe/px4io-v2/NuttX/nuttx-export/libs/libnuttx.a(cxx-libxx_cxa_atexit.o)
 .data          0x2000022c        0x0 /home/dexheimere/Firmware/build_px4fmu-v2_lpe/px4io-v2/NuttX/nuttx-export/libs/libnuttx.a(cxx-libxx_cxapurevirtual.o)
 .data          0x2000022c        0x0 /home/dexheimere/Firmware/build_px4fmu-v2_lpe/px4io-v2/NuttX/nuttx-export/libs/libnuttx.a(cxx-libxx_delete.o)
 .data          0x2000022c        0x0 /home/dexheimere/Firmware/build_px4fmu-v2_lpe/px4io-v2/NuttX/nuttx-export/libs/libnuttx.a(cxx-libxx_eabi_atexit.o)
 .data          0x2000022c        0x0 /home/dexheimere/Firmware/build_px4fmu-v2_lpe/px4io-v2/NuttX/nuttx-export/libs/libnuttx.a(cxx-libxx_new.o)
 .data          0x2000022c        0x0 /home/dexheimere/Firmware/build_px4fmu-v2_lpe/px4io-v2/NuttX/nuttx-export/libs/libnuttx.a(fs-fs_ioctl.o)
 .data          0x2000022c        0x0 /home/dexheimere/Firmware/build_px4fmu-v2_lpe/px4io-v2/NuttX/nuttx-export/libs/libnuttx.a(fs-fs_open.o)
 .data          0x2000022c        0x0 /home/dexheimere/Firmware/build_px4fmu-v2_lpe/px4io-v2/NuttX/nuttx-export/libs/libnuttx.a(fs-fs_read.o)
 .data          0x2000022c        0x0 /home/dexheimere/Firmware/build_px4fmu-v2_lpe/px4io-v2/NuttX/nuttx-export/libs/libnuttx.a(fs-fs_write.o)
 .data          0x2000022c        0x0 /home/dexheimere/Firmware/build_px4fmu-v2_lpe/px4io-v2/NuttX/nuttx-export/libs/libnuttx.a(drivers-serialirq.o)
 .data          0x2000022c        0x0 /home/dexheimere/Firmware/build_px4fmu-v2_lpe/px4io-v2/NuttX/nuttx-export/libs/libnuttx.a(drivers-serial.o)
 .data          0x2000022c        0x0 /home/dexheimere/Firmware/build_px4fmu-v2_lpe/px4io-v2/NuttX/nuttx-export/libs/libnuttx.a(sched-errno_getptr.o)
 .data          0x2000022c        0x0 /home/dexheimere/Firmware/build_px4fmu-v2_lpe/px4io-v2/NuttX/nuttx-export/libs/libnuttx.a(sched-exit.o)
 .data          0x2000022c        0x0 /home/dexheimere/Firmware/build_px4fmu-v2_lpe/px4io-v2/NuttX/nuttx-export/libs/libnuttx.a(sched-getpid.o)
 .data          0x2000022c        0x0 /home/dexheimere/Firmware/build_px4fmu-v2_lpe/px4io-v2/NuttX/nuttx-export/libs/libnuttx.a(sched-os_start.o)
 .data          0x2000022c        0x0 /home/dexheimere/Firmware/build_px4fmu-v2_lpe/px4io-v2/NuttX/nuttx-export/libs/libnuttx.a(sched-sched_garbage.o)
 .data          0x2000022c        0x0 /home/dexheimere/Firmware/build_px4fmu-v2_lpe/px4io-v2/NuttX/nuttx-export/libs/libnuttx.a(sched-sched_getfiles.o)
 .data          0x2000022c        0x0 /home/dexheimere/Firmware/build_px4fmu-v2_lpe/px4io-v2/NuttX/nuttx-export/libs/libnuttx.a(sched-sem_post.o)
 .data          0x2000022c        0x0 /home/dexheimere/Firmware/build_px4fmu-v2_lpe/px4io-v2/NuttX/nuttx-export/libs/libnuttx.a(sched-sem_trywait.o)
 .data          0x2000022c        0x0 /home/dexheimere/Firmware/build_px4fmu-v2_lpe/px4io-v2/NuttX/nuttx-export/libs/libnuttx.a(sched-sem_wait.o)
 .data          0x2000022c        0x0 /home/dexheimere/Firmware/build_px4fmu-v2_lpe/px4io-v2/NuttX/nuttx-export/libs/libnuttx.a(sched-task_exithook.o)
 .data          0x2000022c        0x0 /home/dexheimere/Firmware/build_px4fmu-v2_lpe/px4io-v2/NuttX/nuttx-export/libs/libnuttx.a(sched-task_recover.o)
 .data          0x2000022c        0x0 /home/dexheimere/Firmware/build_px4fmu-v2_lpe/px4io-v2/NuttX/nuttx-export/libs/libnuttx.a(sched-wd_cancel.o)
 .data          0x2000022c        0x0 /home/dexheimere/Firmware/build_px4fmu-v2_lpe/px4io-v2/NuttX/nuttx-export/libs/libnuttx.a(sched-wd_delete.o)
 .data          0x2000022c        0x0 /home/dexheimere/Firmware/build_px4fmu-v2_lpe/px4io-v2/NuttX/nuttx-export/libs/libnuttx.a(sched-wd_initialize.o)
 .data          0x2000022c        0x0 /home/dexheimere/Firmware/build_px4fmu-v2_lpe/px4io-v2/NuttX/nuttx-export/libs/libnuttx.a(c-dq_addfirst.o)
 .data          0x2000022c        0x0 /home/dexheimere/Firmware/build_px4fmu-v2_lpe/px4io-v2/NuttX/nuttx-export/libs/libnuttx.a(c-lib_cfgetspeed.o)
 .data          0x2000022c        0x0 /home/dexheimere/Firmware/build_px4fmu-v2_lpe/px4io-v2/NuttX/nuttx-export/libs/libnuttx.a(c-lib_checkbase.o)
 .data          0x2000022c        0x0 /home/dexheimere/Firmware/build_px4fmu-v2_lpe/px4io-v2/NuttX/nuttx-export/libs/libnuttx.a(c-lib_isbasedigit.o)
 .data          0x2000022c        0x0 /home/dexheimere/Firmware/build_px4fmu-v2_lpe/px4io-v2/NuttX/nuttx-export/libs/libnuttx.a(c-lib_libvsprintf.o)
 .data          0x2000022c        0x0 /home/dexheimere/Firmware/build_px4fmu-v2_lpe/px4io-v2/NuttX/nuttx-export/libs/libnuttx.a(c-lib_lowoutstream.o)
 .data          0x2000022c        0x0 /home/dexheimere/Firmware/build_px4fmu-v2_lpe/px4io-v2/NuttX/nuttx-export/libs/libnuttx.a(c-lib_memoutstream.o)
 .data          0x2000022c        0x0 /home/dexheimere/Firmware/build_px4fmu-v2_lpe/px4io-v2/NuttX/nuttx-export/libs/libnuttx.a(c-lib_nulloutstream.o)
 .data          0x2000022c        0x0 /home/dexheimere/Firmware/build_px4fmu-v2_lpe/px4io-v2/NuttX/nuttx-export/libs/libnuttx.a(c-lib_rawoutstream.o)
 .data          0x2000022c        0x0 /home/dexheimere/Firmware/build_px4fmu-v2_lpe/px4io-v2/NuttX/nuttx-export/libs/libnuttx.a(c-lib_skipspace.o)
 .data          0x2000022c        0x0 /home/dexheimere/Firmware/build_px4fmu-v2_lpe/px4io-v2/NuttX/nuttx-export/libs/libnuttx.a(c-lib_strcpy.o)
 .data          0x2000022c        0x0 /home/dexheimere/Firmware/build_px4fmu-v2_lpe/px4io-v2/NuttX/nuttx-export/libs/libnuttx.a(c-lib_strlen.o)
 .data          0x2000022c        0x0 /home/dexheimere/Firmware/build_px4fmu-v2_lpe/px4io-v2/NuttX/nuttx-export/libs/libnuttx.a(c-sem_init.o)
 .data          0x2000022c        0x0 /home/dexheimere/Firmware/build_px4fmu-v2_lpe/px4io-v2/NuttX/nuttx-export/libs/libnuttx.a(c-sq_remafter.o)
 .data          0x2000022c        0x0 /home/dexheimere/Firmware/build_px4fmu-v2_lpe/px4io-v2/NuttX/nuttx-export/libs/libnuttx.a(c-sq_remfirst.o)
 .data          0x2000022c        0x0 /home/dexheimere/Firmware/build_px4fmu-v2_lpe/px4io-v2/NuttX/nuttx-export/libs/libnuttx.a(mm-mm_addfreechunk.o)
 .data          0x2000022c        0x0 /home/dexheimere/Firmware/build_px4fmu-v2_lpe/px4io-v2/NuttX/nuttx-export/libs/libnuttx.a(mm-mm_initialize.o)
 .data          0x2000022c        0x0 /home/dexheimere/Firmware/build_px4fmu-v2_lpe/px4io-v2/NuttX/nuttx-export/libs/libnuttx.a(arch-stm32_allocateheap.o)
 .data          0x2000022c        0x0 /home/dexheimere/Firmware/build_px4fmu-v2_lpe/px4io-v2/NuttX/nuttx-export/libs/libnuttx.a(arch-stm32_idle.o)
 .data          0x2000022c        0x0 /home/dexheimere/Firmware/build_px4fmu-v2_lpe/px4io-v2/NuttX/nuttx-export/libs/libnuttx.a(arch-stm32_lowputc.o)
 .data          0x2000022c        0x0 /home/dexheimere/Firmware/build_px4fmu-v2_lpe/px4io-v2/NuttX/nuttx-export/libs/libnuttx.a(arch-stm32_rcc.o)
 .data          0x2000022c        0x0 /home/dexheimere/Firmware/build_px4fmu-v2_lpe/px4io-v2/NuttX/nuttx-export/libs/libnuttx.a(arch-stm32_vectors.o)
 .data          0x2000022c        0x0 /home/dexheimere/Firmware/build_px4fmu-v2_lpe/px4io-v2/NuttX/nuttx-export/libs/libnuttx.a(arch-up_blocktask.o)
 .data          0x2000022c        0x0 /home/dexheimere/Firmware/build_px4fmu-v2_lpe/px4io-v2/NuttX/nuttx-export/libs/libnuttx.a(arch-up_copystate.o)
 .data          0x2000022c        0x0 /home/dexheimere/Firmware/build_px4fmu-v2_lpe/px4io-v2/NuttX/nuttx-export/libs/libnuttx.a(arch-up_exception.o)
 .data          0x2000022c        0x0 /home/dexheimere/Firmware/build_px4fmu-v2_lpe/px4io-v2/NuttX/nuttx-export/libs/libnuttx.a(arch-up_exit.o)
 .data          0x2000022c        0x0 /home/dexheimere/Firmware/build_px4fmu-v2_lpe/px4io-v2/NuttX/nuttx-export/libs/libnuttx.a(arch-up_fullcontextrestore.o)
 .data          0x2000022c        0x0 /home/dexheimere/Firmware/build_px4fmu-v2_lpe/px4io-v2/NuttX/nuttx-export/libs/libnuttx.a(arch-up_initialize.o)
 .data          0x2000022c        0x0 /home/dexheimere/Firmware/build_px4fmu-v2_lpe/px4io-v2/NuttX/nuttx-export/libs/libnuttx.a(arch-up_initialstate.o)
 .data          0x2000022c        0x0 /home/dexheimere/Firmware/build_px4fmu-v2_lpe/px4io-v2/NuttX/nuttx-export/libs/libnuttx.a(arch-up_interruptcontext.o)
 .data          0x2000022c        0x0 /home/dexheimere/Firmware/build_px4fmu-v2_lpe/px4io-v2/NuttX/nuttx-export/libs/libnuttx.a(arch-up_mdelay.o)
 .data          0x2000022c        0x0 /home/dexheimere/Firmware/build_px4fmu-v2_lpe/px4io-v2/NuttX/nuttx-export/libs/libnuttx.a(arch-up_switchcontext.o)
 .data          0x2000022c        0x0 /home/dexheimere/Firmware/build_px4fmu-v2_lpe/px4io-v2/NuttX/nuttx-export/libs/libnuttx.a(arch-up_unblocktask.o)
 .data          0x2000022c        0x0 /home/dexheimere/Firmware/build_px4fmu-v2_lpe/px4io-v2/NuttX/nuttx-export/libs/libnuttx.a(fs-fs_files.o)
 .data          0x2000022c        0x0 /home/dexheimere/Firmware/build_px4fmu-v2_lpe/px4io-v2/NuttX/nuttx-export/libs/libnuttx.a(fs-fs_inodeaddref.o)
 .data          0x2000022c        0x0 /home/dexheimere/Firmware/build_px4fmu-v2_lpe/px4io-v2/NuttX/nuttx-export/libs/libnuttx.a(fs-fs_inodefind.o)
 .data          0x2000022c        0x0 /home/dexheimere/Firmware/build_px4fmu-v2_lpe/px4io-v2/NuttX/nuttx-export/libs/libnuttx.a(fs-fs_inode.o)
 .data          0x2000022c        0x0 /home/dexheimere/Firmware/build_px4fmu-v2_lpe/px4io-v2/NuttX/nuttx-export/libs/libnuttx.a(fs-fs_inoderelease.o)
 .data          0x2000022c        0x0 /home/dexheimere/Firmware/build_px4fmu-v2_lpe/px4io-v2/NuttX/nuttx-export/libs/libnuttx.a(fs-fs_registerdriver.o)
 .data          0x2000022c        0x0 /home/dexheimere/Firmware/build_px4fmu-v2_lpe/px4io-v2/NuttX/nuttx-export/libs/libnuttx.a(sched-group_create.o)
 .data          0x2000022c        0x0 /home/dexheimere/Firmware/build_px4fmu-v2_lpe/px4io-v2/NuttX/nuttx-export/libs/libnuttx.a(sched-group_leave.o)
 .data          0x2000022c        0x0 /home/dexheimere/Firmware/build_px4fmu-v2_lpe/px4io-v2/NuttX/nuttx-export/libs/libnuttx.a(sched-group_setupidlefiles.o)
 .data          0x2000022c        0x0 /home/dexheimere/Firmware/build_px4fmu-v2_lpe/px4io-v2/NuttX/nuttx-export/libs/libnuttx.a(sched-os_bringup.o)
 .data          0x2000022c        0x0 /home/dexheimere/Firmware/build_px4fmu-v2_lpe/px4io-v2/NuttX/nuttx-export/libs/libnuttx.a(sched-sched_addblocked.o)
 .data          0x2000022c        0x0 /home/dexheimere/Firmware/build_px4fmu-v2_lpe/px4io-v2/NuttX/nuttx-export/libs/libnuttx.a(sched-sched_addprioritized.o)
 .data          0x2000022c        0x0 /home/dexheimere/Firmware/build_px4fmu-v2_lpe/px4io-v2/NuttX/nuttx-export/libs/libnuttx.a(sched-sched_addreadytorun.o)
 .data          0x2000022c        0x0 /home/dexheimere/Firmware/build_px4fmu-v2_lpe/px4io-v2/NuttX/nuttx-export/libs/libnuttx.a(sched-sched_free.o)
 .data          0x2000022c        0x0 /home/dexheimere/Firmware/build_px4fmu-v2_lpe/px4io-v2/NuttX/nuttx-export/libs/libnuttx.a(sched-sched_mergepending.o)
 .data          0x2000022c        0x0 /home/dexheimere/Firmware/build_px4fmu-v2_lpe/px4io-v2/NuttX/nuttx-export/libs/libnuttx.a(sched-sched_removeblocked.o)
 .data          0x2000022c        0x0 /home/dexheimere/Firmware/build_px4fmu-v2_lpe/px4io-v2/NuttX/nuttx-export/libs/libnuttx.a(sched-sched_removereadytorun.o)
 .data          0x2000022c        0x0 /home/dexheimere/Firmware/build_px4fmu-v2_lpe/px4io-v2/NuttX/nuttx-export/libs/libnuttx.a(sched-sem_destroy.o)
 .data          0x2000022c        0x0 /home/dexheimere/Firmware/build_px4fmu-v2_lpe/px4io-v2/NuttX/nuttx-export/libs/libnuttx.a(sched-task_create.o)
 .data          0x2000022c        0x0 /home/dexheimere/Firmware/build_px4fmu-v2_lpe/px4io-v2/NuttX/nuttx-export/libs/libnuttx.a(sched-task_exit.o)
 .data          0x2000022c        0x0 /home/dexheimere/Firmware/build_px4fmu-v2_lpe/px4io-v2/NuttX/nuttx-export/libs/libnuttx.a(sched-task_setup.o)
 .data          0x2000022c        0x0 /home/dexheimere/Firmware/build_px4fmu-v2_lpe/px4io-v2/NuttX/nuttx-export/libs/libnuttx.a(sched-task_start.o)
 .data          0x2000022c        0x0 /home/dexheimere/Firmware/build_px4fmu-v2_lpe/px4io-v2/NuttX/nuttx-export/libs/libnuttx.a(sched-task_terminate.o)
 .data          0x2000022c        0x0 /home/dexheimere/Firmware/build_px4fmu-v2_lpe/px4io-v2/NuttX/nuttx-export/libs/libnuttx.a(c-dq_addlast.o)
 .data          0x2000022c        0x0 /home/dexheimere/Firmware/build_px4fmu-v2_lpe/px4io-v2/NuttX/nuttx-export/libs/libnuttx.a(c-dq_rem.o)
 .data          0x2000022c        0x0 /home/dexheimere/Firmware/build_px4fmu-v2_lpe/px4io-v2/NuttX/nuttx-export/libs/libnuttx.a(c-lib_strdup.o)
 .data          0x2000022c        0x0 /home/dexheimere/Firmware/build_px4fmu-v2_lpe/px4io-v2/NuttX/nuttx-export/libs/libnuttx.a(arch-stm32_timerisr.o)
 .data          0x2000022c        0x0 /home/dexheimere/Firmware/build_px4fmu-v2_lpe/px4io-v2/NuttX/nuttx-export/libs/libnuttx.a(arch-up_createstack.o)
 .data          0x2000022c        0x0 /home/dexheimere/Firmware/build_px4fmu-v2_lpe/px4io-v2/NuttX/nuttx-export/libs/libnuttx.a(arch-up_doirq.o)
 .data          0x2000022c        0x0 /home/dexheimere/Firmware/build_px4fmu-v2_lpe/px4io-v2/NuttX/nuttx-export/libs/libnuttx.a(arch-up_releasestack.o)
 .data          0x2000022c        0x0 /home/dexheimere/Firmware/build_px4fmu-v2_lpe/px4io-v2/NuttX/nuttx-export/libs/libnuttx.a(fs-fs_close.o)
 .data          0x2000022c        0x0 /home/dexheimere/Firmware/build_px4fmu-v2_lpe/px4io-v2/NuttX/nuttx-export/libs/libnuttx.a(fs-fs_filedup2.o)
 .data          0x2000022c        0x0 /home/dexheimere/Firmware/build_px4fmu-v2_lpe/px4io-v2/NuttX/nuttx-export/libs/libnuttx.a(fs-fs_inodereserve.o)
 .data          0x2000022c        0x0 /home/dexheimere/Firmware/build_px4fmu-v2_lpe/px4io-v2/NuttX/nuttx-export/libs/libnuttx.a(sched-group_setuptaskfiles.o)
 .data          0x2000022c        0x0 /home/dexheimere/Firmware/build_px4fmu-v2_lpe/px4io-v2/NuttX/nuttx-export/libs/libnuttx.a(sched-irq_dispatch.o)
 .data          0x2000022c        0x0 /home/dexheimere/Firmware/build_px4fmu-v2_lpe/px4io-v2/NuttX/nuttx-export/libs/libnuttx.a(sched-sched_gettcb.o)
 .data          0x2000022c        0x0 /home/dexheimere/Firmware/build_px4fmu-v2_lpe/px4io-v2/NuttX/nuttx-export/libs/libnuttx.a(sched-sched_lock.o)
 .data          0x2000022c        0x0 /home/dexheimere/Firmware/build_px4fmu-v2_lpe/px4io-v2/NuttX/nuttx-export/libs/libnuttx.a(sched-sched_processtimer.o)
 .data          0x2000022c        0x0 /home/dexheimere/Firmware/build_px4fmu-v2_lpe/px4io-v2/NuttX/nuttx-export/libs/libnuttx.a(sched-sched_releasetcb.o)
 .data          0x2000022c        0x0 /home/dexheimere/Firmware/build_px4fmu-v2_lpe/px4io-v2/NuttX/nuttx-export/libs/libnuttx.a(sched-sched_unlock.o)
 .data          0x2000022c        0x0 /home/dexheimere/Firmware/build_px4fmu-v2_lpe/px4io-v2/NuttX/nuttx-export/libs/libnuttx.a(sched-task_activate.o)
 .data          0x2000022c        0x0 /home/dexheimere/Firmware/build_px4fmu-v2_lpe/px4io-v2/NuttX/nuttx-export/libs/libnuttx.a(arch-up_releasepending.o)
 .data          0x2000022c        0x0 /home/dexheimere/gcc-arm-none-eabi-5_4-2016q2/bin/../lib/gcc/arm-none-eabi/5.4.1/../../../../arm-none-eabi/lib/armv7-m/libm.a(lib_a-sf_fmin.o)
 .data          0x2000022c        0x0 /home/dexheimere/gcc-arm-none-eabi-5_4-2016q2/bin/../lib/gcc/arm-none-eabi/5.4.1/../../../../arm-none-eabi/lib/armv7-m/libm.a(lib_a-sf_fpclassify.o)
 .data          0x2000022c        0x0 /home/dexheimere/gcc-arm-none-eabi-5_4-2016q2/bin/../lib/gcc/arm-none-eabi/5.4.1/../../../../arm-none-eabi/lib/armv7-m/libm.a(lib_a-wf_sqrt.o)
 .data          0x2000022c        0x0 /home/dexheimere/gcc-arm-none-eabi-5_4-2016q2/bin/../lib/gcc/arm-none-eabi/5.4.1/../../../../arm-none-eabi/lib/armv7-m/libm.a(lib_a-ef_sqrt.o)
 .data          0x2000022c        0x0 /home/dexheimere/gcc-arm-none-eabi-5_4-2016q2/bin/../lib/gcc/arm-none-eabi/5.4.1/../../../../arm-none-eabi/lib/armv7-m/libm.a(lib_a-s_lib_ver.o)
 .data.__fdlib_version
                0x2000022c        0x1 /home/dexheimere/gcc-arm-none-eabi-5_4-2016q2/bin/../lib/gcc/arm-none-eabi/5.4.1/../../../../arm-none-eabi/lib/armv7-m/libm.a(lib_a-s_lib_ver.o)
                0x2000022c                __fdlib_version
 .data          0x2000022d        0x0 /home/dexheimere/gcc-arm-none-eabi-5_4-2016q2/bin/../lib/gcc/arm-none-eabi/5.4.1/../../../../arm-none-eabi/lib/armv7-m/libm.a(lib_a-s_matherr.o)
 .data          0x2000022d        0x0 /home/dexheimere/gcc-arm-none-eabi-5_4-2016q2/bin/../lib/gcc/arm-none-eabi/5.4.1/armv7-m/libgcc.a(_lshrdi3.o)
 .data          0x2000022d        0x0 /home/dexheimere/gcc-arm-none-eabi-5_4-2016q2/bin/../lib/gcc/arm-none-eabi/5.4.1/armv7-m/libgcc.a(_arm_addsubdf3.o)
 .data          0x2000022d        0x0 /home/dexheimere/gcc-arm-none-eabi-5_4-2016q2/bin/../lib/gcc/arm-none-eabi/5.4.1/armv7-m/libgcc.a(_arm_muldivdf3.o)
 .data          0x2000022d        0x0 /home/dexheimere/gcc-arm-none-eabi-5_4-2016q2/bin/../lib/gcc/arm-none-eabi/5.4.1/armv7-m/libgcc.a(_arm_truncdfsf2.o)
 .data          0x2000022d        0x0 /home/dexheimere/gcc-arm-none-eabi-5_4-2016q2/bin/../lib/gcc/arm-none-eabi/5.4.1/armv7-m/libgcc.a(_arm_addsubsf3.o)
 .data          0x2000022d        0x0 /home/dexheimere/gcc-arm-none-eabi-5_4-2016q2/bin/../lib/gcc/arm-none-eabi/5.4.1/armv7-m/libgcc.a(_arm_muldivsf3.o)
 .data          0x2000022d        0x0 /home/dexheimere/gcc-arm-none-eabi-5_4-2016q2/bin/../lib/gcc/arm-none-eabi/5.4.1/armv7-m/libgcc.a(_arm_cmpsf2.o)
 .data          0x2000022d        0x0 /home/dexheimere/gcc-arm-none-eabi-5_4-2016q2/bin/../lib/gcc/arm-none-eabi/5.4.1/armv7-m/libgcc.a(_arm_unordsf2.o)
 .data          0x2000022d        0x0 /home/dexheimere/gcc-arm-none-eabi-5_4-2016q2/bin/../lib/gcc/arm-none-eabi/5.4.1/armv7-m/libgcc.a(_arm_fixsfsi.o)
 .data          0x2000022d        0x0 /home/dexheimere/gcc-arm-none-eabi-5_4-2016q2/bin/../lib/gcc/arm-none-eabi/5.4.1/armv7-m/libgcc.a(_arm_fixunssfsi.o)
 .data          0x2000022d        0x0 /home/dexheimere/gcc-arm-none-eabi-5_4-2016q2/bin/../lib/gcc/arm-none-eabi/5.4.1/armv7-m/libgcc.a(_aeabi_uldivmod.o)
 .data          0x2000022d        0x0 /home/dexheimere/gcc-arm-none-eabi-5_4-2016q2/bin/../lib/gcc/arm-none-eabi/5.4.1/armv7-m/libgcc.a(_udivmoddi4.o)
 .data          0x2000022d        0x0 /home/dexheimere/gcc-arm-none-eabi-5_4-2016q2/bin/../lib/gcc/arm-none-eabi/5.4.1/armv7-m/libgcc.a(_dvmd_tls.o)
 *(.gnu.linkonce.d.*)
                0x2000022d                _edata = ABSOLUTE (.)
                0x20000230                . = ALIGN (0x4)
 *fill*         0x2000022d        0x3 

.igot.plt       0x20000230        0x0 load address 0x0800d864
 .igot.plt      0x20000230        0x0 src/modules/px4iofirmware/CMakeFiles/px4io-v2.dir/adc.c.obj

.bss            0x20000230      0xb62 load address 0x0800d864
                0x20000230                _sbss = ABSOLUTE (.)
 *(.bss .bss.*)
 .bss           0x20000230        0x0 src/modules/px4iofirmware/CMakeFiles/px4io-v2.dir/adc.c.obj
 .bss.adc_perf  0x20000230        0x4 src/modules/px4iofirmware/CMakeFiles/px4io-v2.dir/adc.c.obj
                0x20000230                adc_perf
 .bss           0x20000234        0x0 src/modules/px4iofirmware/CMakeFiles/px4io-v2.dir/controls.c.obj
 .bss.c_gather_dsm
                0x20000234        0x4 src/modules/px4iofirmware/CMakeFiles/px4io-v2.dir/controls.c.obj
 .bss._rssi_adc_counts
                0x20000238        0x4 src/modules/px4iofirmware/CMakeFiles/px4io-v2.dir/controls.c.obj
 .bss.c_gather_ppm
                0x2000023c        0x4 src/modules/px4iofirmware/CMakeFiles/px4io-v2.dir/controls.c.obj
 .bss.rc_value_override
                0x20000240        0x2 src/modules/px4iofirmware/CMakeFiles/px4io-v2.dir/controls.c.obj
 *fill*         0x20000242        0x2 
 .bss.c_gather_sbus
                0x20000244        0x4 src/modules/px4iofirmware/CMakeFiles/px4io-v2.dir/controls.c.obj
 .bss           0x20000248        0x0 src/modules/px4iofirmware/CMakeFiles/px4io-v2.dir/px4io.c.obj
 .bss.last_msg_counter
                0x20000248        0x4 src/modules/px4iofirmware/CMakeFiles/px4io-v2.dir/px4io.c.obj
 *fill*         0x2000024c        0x4 
 .bss.system_state
                0x20000250       0x18 src/modules/px4iofirmware/CMakeFiles/px4io-v2.dir/px4io.c.obj
                0x20000250                system_state
 .bss.msg_next_out
                0x20000268        0x1 src/modules/px4iofirmware/CMakeFiles/px4io-v2.dir/px4io.c.obj
 *fill*         0x20000269        0x7 
 .bss.serial_dma_call
                0x20000270       0x20 src/modules/px4iofirmware/CMakeFiles/px4io-v2.dir/px4io.c.obj
 .bss.heartbeat.7240
                0x20000290        0x1 src/modules/px4iofirmware/CMakeFiles/px4io-v2.dir/px4io.c.obj
 *fill*         0x20000291        0x3 
 .bss.msg_counter
                0x20000294        0x4 src/modules/px4iofirmware/CMakeFiles/px4io-v2.dir/px4io.c.obj
 .bss.msg       0x20000298       0x28 src/modules/px4iofirmware/CMakeFiles/px4io-v2.dir/px4io.c.obj
 .bss.msg_next_in
                0x200002c0        0x1 src/modules/px4iofirmware/CMakeFiles/px4io-v2.dir/px4io.c.obj
 *fill*         0x200002c1        0x3 
 .bss.on_counter.7248
                0x200002c4        0x4 src/modules/px4iofirmware/CMakeFiles/px4io-v2.dir/px4io.c.obj
 .bss.pwm_limit
                0x200002c8       0x10 src/modules/px4iofirmware/CMakeFiles/px4io-v2.dir/px4io.c.obj
                0x200002c8                pwm_limit
 .bss.brightness_counter.7247
                0x200002d8        0x4 src/modules/px4iofirmware/CMakeFiles/px4io-v2.dir/px4io.c.obj
 .bss.counter.7245
                0x200002dc        0x4 src/modules/px4iofirmware/CMakeFiles/px4io-v2.dir/px4io.c.obj
 .bss.reboot_time
                0x200002e0        0x8 src/modules/px4iofirmware/CMakeFiles/px4io-v2.dir/px4io.c.obj
 .bss           0x200002e8        0x0 src/modules/px4iofirmware/CMakeFiles/px4io-v2.dir/registers.c.obj
 .bss.r_page_rc_input
                0x200002e8       0x14 src/modules/px4iofirmware/CMakeFiles/px4io-v2.dir/registers.c.obj
                0x200002e8                r_page_rc_input
 .bss.r_page_scratch
                0x200002fc       0x40 src/modules/px4iofirmware/CMakeFiles/px4io-v2.dir/registers.c.obj
                0x200002fc                r_page_scratch
 .bss.r_page_servos
                0x2000033c       0x10 src/modules/px4iofirmware/CMakeFiles/px4io-v2.dir/registers.c.obj
                0x2000033c                r_page_servos
 .bss.last_offset
                0x2000034c        0x1 src/modules/px4iofirmware/CMakeFiles/px4io-v2.dir/registers.c.obj
                0x2000034c                last_offset
 *fill*         0x2000034d        0x3 
 .bss.r_page_status
                0x20000350       0x14 src/modules/px4iofirmware/CMakeFiles/px4io-v2.dir/registers.c.obj
                0x20000350                r_page_status
 .bss.r_page_rc_input_config
                0x20000364       0xd8 src/modules/px4iofirmware/CMakeFiles/px4io-v2.dir/registers.c.obj
                0x20000364                r_page_rc_input_config
 .bss.r_page_servo_disarmed
                0x2000043c       0x10 src/modules/px4iofirmware/CMakeFiles/px4io-v2.dir/registers.c.obj
                0x2000043c                r_page_servo_disarmed
 .bss.r_page_controls
                0x2000044c       0x40 src/modules/px4iofirmware/CMakeFiles/px4io-v2.dir/registers.c.obj
                0x2000044c                r_page_controls
 .bss.r_page_servo_failsafe
                0x2000048c       0x10 src/modules/px4iofirmware/CMakeFiles/px4io-v2.dir/registers.c.obj
                0x2000048c                r_page_servo_failsafe
 .bss.r_page_raw_rc_input
                0x2000049c       0x32 src/modules/px4iofirmware/CMakeFiles/px4io-v2.dir/registers.c.obj
                0x2000049c                r_page_raw_rc_input
 .bss.last_page
                0x200004ce        0x1 src/modules/px4iofirmware/CMakeFiles/px4io-v2.dir/registers.c.obj
                0x200004ce                last_page
 *fill*         0x200004cf        0x1 
 .bss.r_page_actuators
                0x200004d0       0x10 src/modules/px4iofirmware/CMakeFiles/px4io-v2.dir/registers.c.obj
                0x200004d0                r_page_actuators
 .bss           0x200004e0        0x0 src/modules/px4iofirmware/CMakeFiles/px4io-v2.dir/safety.c.obj
 .bss.failsafe.5543
                0x200004e0        0x1 src/modules/px4iofirmware/CMakeFiles/px4io-v2.dir/safety.c.obj
 *fill*         0x200004e1        0x7 
 .bss.arming_call
                0x200004e8       0x20 src/modules/px4iofirmware/CMakeFiles/px4io-v2.dir/safety.c.obj
 .bss.blink_counter
                0x20000508        0x4 src/modules/px4iofirmware/CMakeFiles/px4io-v2.dir/safety.c.obj
 *fill*         0x2000050c        0x4 
 .bss.failsafe_call
                0x20000510       0x20 src/modules/px4iofirmware/CMakeFiles/px4io-v2.dir/safety.c.obj
 .bss.counter   0x20000530        0x4 src/modules/px4iofirmware/CMakeFiles/px4io-v2.dir/safety.c.obj
 .bss           0x20000534        0x0 src/modules/px4iofirmware/CMakeFiles/px4io-v2.dir/__/systemlib/up_cxxinitialize.c.obj
 .bss           0x20000534        0x0 src/modules/px4iofirmware/CMakeFiles/px4io-v2.dir/__/systemlib/perf_counter.c.obj
 .bss.perf_counters
                0x20000534        0x8 src/modules/px4iofirmware/CMakeFiles/px4io-v2.dir/__/systemlib/perf_counter.c.obj
 .bss           0x2000053c        0x0 src/modules/px4iofirmware/CMakeFiles/px4io-v2.dir/mixer.cpp.obj
 .bss._ZL11mixer_group
                0x2000053c       0x14 src/modules/px4iofirmware/CMakeFiles/px4io-v2.dir/mixer.cpp.obj
 .bss._ZL17mixer_text_length
                0x20000550        0x4 src/modules/px4iofirmware/CMakeFiles/px4io-v2.dir/mixer.cpp.obj
 .bss._ZL10should_arm
                0x20000554        0x1 src/modules/px4iofirmware/CMakeFiles/px4io-v2.dir/mixer.cpp.obj
 .bss._ZL21should_arm_nothrottle
                0x20000555        0x1 src/modules/px4iofirmware/CMakeFiles/px4io-v2.dir/mixer.cpp.obj
 .bss._ZL18mixer_servos_armed
                0x20000556        0x1 src/modules/px4iofirmware/CMakeFiles/px4io-v2.dir/mixer.cpp.obj
 .bss._ZL24should_always_enable_pwm
                0x20000557        0x1 src/modules/px4iofirmware/CMakeFiles/px4io-v2.dir/mixer.cpp.obj
 .bss._ZL10mixer_text
                0x20000558       0xc8 src/modules/px4iofirmware/CMakeFiles/px4io-v2.dir/mixer.cpp.obj
 .bss._ZL8in_mixer
                0x20000620        0x1 src/modules/px4iofirmware/CMakeFiles/px4io-v2.dir/mixer.cpp.obj
 .bss._ZL6source
                0x20000621        0x1 src/modules/px4iofirmware/CMakeFiles/px4io-v2.dir/mixer.cpp.obj
 .bss           0x20000622        0x0 src/modules/px4iofirmware/CMakeFiles/px4io-v2.dir/__/systemlib/mixer/mixer.cpp.obj
 .bss           0x20000622        0x0 src/modules/px4iofirmware/CMakeFiles/px4io-v2.dir/__/systemlib/mixer/mixer_group.cpp.obj
 .bss           0x20000622        0x0 src/modules/px4iofirmware/CMakeFiles/px4io-v2.dir/__/systemlib/mixer/mixer_multirotor.cpp.obj
 .bss           0x20000622        0x0 src/modules/px4iofirmware/CMakeFiles/px4io-v2.dir/__/systemlib/mixer/mixer_simple.cpp.obj
 .bss           0x20000622        0x0 src/modules/px4iofirmware/CMakeFiles/px4io-v2.dir/__/systemlib/pwm_limit/pwm_limit.c.obj
 .bss           0x20000622        0x0 src/modules/px4iofirmware/CMakeFiles/px4io-v2.dir/__/__/lib/rc/st24.c.obj
 *fill*         0x20000622        0x2 
 .bss._rxpacket
                0x20000624       0x45 src/modules/px4iofirmware/CMakeFiles/px4io-v2.dir/__/__/lib/rc/st24.c.obj
 .bss._decode_state
                0x20000669        0x1 src/modules/px4iofirmware/CMakeFiles/px4io-v2.dir/__/__/lib/rc/st24.c.obj
 .bss._rxlen    0x2000066a        0x1 src/modules/px4iofirmware/CMakeFiles/px4io-v2.dir/__/__/lib/rc/st24.c.obj
 .bss           0x2000066b        0x0 src/modules/px4iofirmware/CMakeFiles/px4io-v2.dir/__/__/lib/rc/sumd.c.obj
 *fill*         0x2000066b        0x1 
 .bss._crc16    0x2000066c        0x2 src/modules/px4iofirmware/CMakeFiles/px4io-v2.dir/__/__/lib/rc/sumd.c.obj
                0x2000066c                _crc16
 .bss._crc8     0x2000066e        0x1 src/modules/px4iofirmware/CMakeFiles/px4io-v2.dir/__/__/lib/rc/sumd.c.obj
                0x2000066e                _crc8
 .bss._debug    0x2000066f        0x1 src/modules/px4iofirmware/CMakeFiles/px4io-v2.dir/__/__/lib/rc/sumd.c.obj
                0x2000066f                _debug
 .bss._crcOK    0x20000670        0x1 src/modules/px4iofirmware/CMakeFiles/px4io-v2.dir/__/__/lib/rc/sumd.c.obj
                0x20000670                _crcOK
 *fill*         0x20000671        0x3 
 .bss._rxpacket
                0x20000674       0x47 src/modules/px4iofirmware/CMakeFiles/px4io-v2.dir/__/__/lib/rc/sumd.c.obj
 .bss._decode_state
                0x200006bb        0x1 src/modules/px4iofirmware/CMakeFiles/px4io-v2.dir/__/__/lib/rc/sumd.c.obj
 .bss._rxlen    0x200006bc        0x1 src/modules/px4iofirmware/CMakeFiles/px4io-v2.dir/__/__/lib/rc/sumd.c.obj
 .bss           0x200006bd        0x0 src/modules/px4iofirmware/CMakeFiles/px4io-v2.dir/__/__/lib/rc/sbus.c.obj
 *fill*         0x200006bd        0x3 
 .bss.partial_frame_count
                0x200006c0        0x4 src/modules/px4iofirmware/CMakeFiles/px4io-v2.dir/__/__/lib/rc/sbus.c.obj
 .bss.sbus_frame
                0x200006c4       0x25 src/modules/px4iofirmware/CMakeFiles/px4io-v2.dir/__/__/lib/rc/sbus.c.obj
 *fill*         0x200006e9        0x7 
 .bss.last_txframe_time
                0x200006f0        0x8 src/modules/px4iofirmware/CMakeFiles/px4io-v2.dir/__/__/lib/rc/sbus.c.obj
 .bss.sbus_frame_drops
                0x200006f8        0x4 src/modules/px4iofirmware/CMakeFiles/px4io-v2.dir/__/__/lib/rc/sbus.c.obj
 .bss           0x200006fc        0x0 src/modules/px4iofirmware/CMakeFiles/px4io-v2.dir/__/__/lib/rc/dsm.c.obj
 *fill*         0x200006fc        0x4 
 .bss.dsm_last_frame_time
                0x20000700        0x8 src/modules/px4iofirmware/CMakeFiles/px4io-v2.dir/__/__/lib/rc/dsm.c.obj
 .bss.dsm_partial_frame_count
                0x20000708        0x4 src/modules/px4iofirmware/CMakeFiles/px4io-v2.dir/__/__/lib/rc/dsm.c.obj
 .bss.dsm_frame
                0x2000070c       0x18 src/modules/px4iofirmware/CMakeFiles/px4io-v2.dir/__/__/lib/rc/dsm.c.obj
 .bss.dsm_buf   0x20000724       0x20 src/modules/px4iofirmware/CMakeFiles/px4io-v2.dir/__/__/lib/rc/dsm.c.obj
 *fill*         0x20000744        0x4 
 .bss.dsm_last_rx_time
                0x20000748        0x8 src/modules/px4iofirmware/CMakeFiles/px4io-v2.dir/__/__/lib/rc/dsm.c.obj
 .bss.dsm_chan_count
                0x20000750        0x2 src/modules/px4iofirmware/CMakeFiles/px4io-v2.dir/__/__/lib/rc/dsm.c.obj
 *fill*         0x20000752        0x2 
 .bss.dsm_frame_drops
                0x20000754        0x4 src/modules/px4iofirmware/CMakeFiles/px4io-v2.dir/__/__/lib/rc/dsm.c.obj
 .bss.cs11.6925
                0x20000758        0x4 src/modules/px4iofirmware/CMakeFiles/px4io-v2.dir/__/__/lib/rc/dsm.c.obj
 .bss.samples.6926
                0x2000075c        0x4 src/modules/px4iofirmware/CMakeFiles/px4io-v2.dir/__/__/lib/rc/dsm.c.obj
 .bss.dsm_decode_state
                0x20000760        0x1 src/modules/px4iofirmware/CMakeFiles/px4io-v2.dir/__/__/lib/rc/dsm.c.obj
 *fill*         0x20000761        0x3 
 .bss.dsm_channel_shift
                0x20000764        0x4 src/modules/px4iofirmware/CMakeFiles/px4io-v2.dir/__/__/lib/rc/dsm.c.obj
 .bss.cs10.6924
                0x20000768        0x4 src/modules/px4iofirmware/CMakeFiles/px4io-v2.dir/__/__/lib/rc/dsm.c.obj
 .bss           0x2000076c        0x0 src/modules/px4iofirmware/CMakeFiles/px4io-v2.dir/__/__/drivers/stm32/drv_hrt.c.obj
 .bss.callout_queue
                0x2000076c        0x8 src/modules/px4iofirmware/CMakeFiles/px4io-v2.dir/__/__/drivers/stm32/drv_hrt.c.obj
 *fill*         0x20000774        0x4 
 .bss.base_time.6104
                0x20000778        0x8 src/modules/px4iofirmware/CMakeFiles/px4io-v2.dir/__/__/drivers/stm32/drv_hrt.c.obj
 .bss.last_count.6105
                0x20000780        0x4 src/modules/px4iofirmware/CMakeFiles/px4io-v2.dir/__/__/drivers/stm32/drv_hrt.c.obj
 .bss.ppm_decoded_channels
                0x20000784        0x4 src/modules/px4iofirmware/CMakeFiles/px4io-v2.dir/__/__/drivers/stm32/drv_hrt.c.obj
                0x20000784                ppm_decoded_channels
 .bss.ppm_frame_length
                0x20000788        0x2 src/modules/px4iofirmware/CMakeFiles/px4io-v2.dir/__/__/drivers/stm32/drv_hrt.c.obj
                0x20000788                ppm_frame_length
 *fill*         0x2000078a        0x2 
 .bss.new_channel_count.6083
                0x2000078c        0x4 src/modules/px4iofirmware/CMakeFiles/px4io-v2.dir/__/__/drivers/stm32/drv_hrt.c.obj
 .bss.latency_baseline
                0x20000790        0x2 src/modules/px4iofirmware/CMakeFiles/px4io-v2.dir/__/__/drivers/stm32/drv_hrt.c.obj
 *fill*         0x20000792        0x2 
 .bss.ppm       0x20000794       0x10 src/modules/px4iofirmware/CMakeFiles/px4io-v2.dir/__/__/drivers/stm32/drv_hrt.c.obj
                0x20000794                ppm
 .bss.ppm_temp_buffer
                0x200007a4       0x28 src/modules/px4iofirmware/CMakeFiles/px4io-v2.dir/__/__/drivers/stm32/drv_hrt.c.obj
 .bss.new_channel_holdoff.6084
                0x200007cc        0x4 src/modules/px4iofirmware/CMakeFiles/px4io-v2.dir/__/__/drivers/stm32/drv_hrt.c.obj
 .bss.ppm_last_valid_decode
                0x200007d0        0x8 src/modules/px4iofirmware/CMakeFiles/px4io-v2.dir/__/__/drivers/stm32/drv_hrt.c.obj
                0x200007d0                ppm_last_valid_decode
 .bss.latency_actual
                0x200007d8        0x2 src/modules/px4iofirmware/CMakeFiles/px4io-v2.dir/__/__/drivers/stm32/drv_hrt.c.obj
 *fill*         0x200007da        0x2 
 .bss.ppm_buffer
                0x200007dc       0x28 src/modules/px4iofirmware/CMakeFiles/px4io-v2.dir/__/__/drivers/stm32/drv_hrt.c.obj
                0x200007dc                ppm_buffer
 .bss.latency_counters
                0x20000804       0x24 src/modules/px4iofirmware/CMakeFiles/px4io-v2.dir/__/__/drivers/stm32/drv_hrt.c.obj
                0x20000804                latency_counters
 .bss           0x20000828        0x0 src/modules/px4iofirmware/CMakeFiles/px4io-v2.dir/__/__/drivers/stm32/drv_io_timer.c.obj
 .bss.channel_handlers
                0x20000828       0x40 src/modules/px4iofirmware/CMakeFiles/px4io-v2.dir/__/__/drivers/stm32/drv_io_timer.c.obj
 .bss.once      0x20000868        0x1 src/modules/px4iofirmware/CMakeFiles/px4io-v2.dir/__/__/drivers/stm32/drv_io_timer.c.obj
 *fill*         0x20000869        0x3 
 .bss.io_timer_channel_stats
                0x2000086c       0x40 src/modules/px4iofirmware/CMakeFiles/px4io-v2.dir/__/__/drivers/stm32/drv_io_timer.c.obj
 .bss           0x200008ac        0x0 src/modules/px4iofirmware/CMakeFiles/px4io-v2.dir/__/__/drivers/stm32/drv_pwm_servo.c.obj
 .bss           0x200008ac        0x0 src/modules/px4iofirmware/CMakeFiles/px4io-v2.dir/__/__/drivers/boards/px4io-v2/px4io_init.c.obj
 .bss           0x200008ac        0x0 src/modules/px4iofirmware/CMakeFiles/px4io-v2.dir/__/__/drivers/boards/px4io-v2/px4io_timer_config.c.obj
 .bss           0x200008ac        0x0 src/modules/px4iofirmware/CMakeFiles/px4io-v2.dir/serial.c.obj
 .bss.pc_badidle
                0x200008ac        0x4 src/modules/px4iofirmware/CMakeFiles/px4io-v2.dir/serial.c.obj
 .bss.abort_on_idle.7102
                0x200008b0        0x1 src/modules/px4iofirmware/CMakeFiles/px4io-v2.dir/serial.c.obj
 *fill*         0x200008b1        0x3 
 .bss.rx_dma    0x200008b4        0x4 src/modules/px4iofirmware/CMakeFiles/px4io-v2.dir/serial.c.obj
 .bss.pc_txns   0x200008b8        0x4 src/modules/px4iofirmware/CMakeFiles/px4io-v2.dir/serial.c.obj
 .bss.pc_crcerr
                0x200008bc        0x4 src/modules/px4iofirmware/CMakeFiles/px4io-v2.dir/serial.c.obj
 .bss.pc_errors
                0x200008c0        0x4 src/modules/px4iofirmware/CMakeFiles/px4io-v2.dir/serial.c.obj
 .bss.pc_fe     0x200008c4        0x4 src/modules/px4iofirmware/CMakeFiles/px4io-v2.dir/serial.c.obj
 .bss.dma_packet
                0x200008c8       0x44 src/modules/px4iofirmware/CMakeFiles/px4io-v2.dir/serial.c.obj
 .bss.tx_dma    0x2000090c        0x4 src/modules/px4iofirmware/CMakeFiles/px4io-v2.dir/serial.c.obj
 .bss.pc_ne     0x20000910        0x4 src/modules/px4iofirmware/CMakeFiles/px4io-v2.dir/serial.c.obj
 .bss.pc_regerr
                0x20000914        0x4 src/modules/px4iofirmware/CMakeFiles/px4io-v2.dir/serial.c.obj
 .bss.pc_ore    0x20000918        0x4 src/modules/px4iofirmware/CMakeFiles/px4io-v2.dir/serial.c.obj
 .bss.pc_idle   0x2000091c        0x4 src/modules/px4iofirmware/CMakeFiles/px4io-v2.dir/serial.c.obj
 .bss           0x20000920        0x0 src/modules/px4iofirmware/CMakeFiles/px4io-v2.dir/__/systemlib/hx_stream.c.obj
 .bss           0x20000920        0x0 /home/dexheimere/Firmware/build_px4fmu-v2_lpe/px4io-v2/NuttX/nuttx-export/libs/libnuttx.a(sched-irq_attach.o)
 .bss           0x20000920        0x0 /home/dexheimere/Firmware/build_px4fmu-v2_lpe/px4io-v2/NuttX/nuttx-export/libs/libnuttx.a(sched-irq_initialize.o)
 .bss.g_irqvector
                0x20000920      0x138 /home/dexheimere/Firmware/build_px4fmu-v2_lpe/px4io-v2/NuttX/nuttx-export/libs/libnuttx.a(sched-irq_initialize.o)
                0x20000920                g_irqvector
 .bss           0x20000a58        0x0 /home/dexheimere/Firmware/build_px4fmu-v2_lpe/px4io-v2/NuttX/nuttx-export/libs/libnuttx.a(sched-irq_unexpectedisr.o)
 .bss           0x20000a58        0x0 /home/dexheimere/Firmware/build_px4fmu-v2_lpe/px4io-v2/NuttX/nuttx-export/libs/libnuttx.a(c-lib_abort.o)
 .bss           0x20000a58        0x0 /home/dexheimere/Firmware/build_px4fmu-v2_lpe/px4io-v2/NuttX/nuttx-export/libs/libnuttx.a(c-lib_cfsetspeed.o)
 .bss           0x20000a58        0x0 /home/dexheimere/Firmware/build_px4fmu-v2_lpe/px4io-v2/NuttX/nuttx-export/libs/libnuttx.a(c-lib_crc32.o)
 .bss           0x20000a58        0x0 /home/dexheimere/Firmware/build_px4fmu-v2_lpe/px4io-v2/NuttX/nuttx-export/libs/libnuttx.a(c-lib_dprintf.o)
 .bss           0x20000a58        0x0 /home/dexheimere/Firmware/build_px4fmu-v2_lpe/px4io-v2/NuttX/nuttx-export/libs/libnuttx.a(c-lib_lowsyslog.o)
 .bss           0x20000a58        0x0 /home/dexheimere/Firmware/build_px4fmu-v2_lpe/px4io-v2/NuttX/nuttx-export/libs/libnuttx.a(c-lib_memchr.o)
 .bss           0x20000a58        0x0 /home/dexheimere/Firmware/build_px4fmu-v2_lpe/px4io-v2/NuttX/nuttx-export/libs/libnuttx.a(c-lib_memcpy.o)
 .bss           0x20000a58        0x0 /home/dexheimere/Firmware/build_px4fmu-v2_lpe/px4io-v2/NuttX/nuttx-export/libs/libnuttx.a(c-lib_memset.o)
 .bss           0x20000a58        0x0 /home/dexheimere/Firmware/build_px4fmu-v2_lpe/px4io-v2/NuttX/nuttx-export/libs/libnuttx.a(c-lib_printf.o)
 .bss           0x20000a58        0x0 /home/dexheimere/Firmware/build_px4fmu-v2_lpe/px4io-v2/NuttX/nuttx-export/libs/libnuttx.a(c-lib_sscanf.o)
 .bss           0x20000a58        0x0 /home/dexheimere/Firmware/build_px4fmu-v2_lpe/px4io-v2/NuttX/nuttx-export/libs/libnuttx.a(c-lib_strchr.o)
 .bss           0x20000a58        0x0 /home/dexheimere/Firmware/build_px4fmu-v2_lpe/px4io-v2/NuttX/nuttx-export/libs/libnuttx.a(c-lib_strcmp.o)
 .bss           0x20000a58        0x0 /home/dexheimere/Firmware/build_px4fmu-v2_lpe/px4io-v2/NuttX/nuttx-export/libs/libnuttx.a(c-lib_strcspn.o)
 .bss           0x20000a58        0x0 /home/dexheimere/Firmware/build_px4fmu-v2_lpe/px4io-v2/NuttX/nuttx-export/libs/libnuttx.a(c-lib_strncpy.o)
 .bss           0x20000a58        0x0 /home/dexheimere/Firmware/build_px4fmu-v2_lpe/px4io-v2/NuttX/nuttx-export/libs/libnuttx.a(c-lib_strtol.o)
 .bss           0x20000a58        0x0 /home/dexheimere/Firmware/build_px4fmu-v2_lpe/px4io-v2/NuttX/nuttx-export/libs/libnuttx.a(c-lib_strtoul.o)
 .bss           0x20000a58        0x0 /home/dexheimere/Firmware/build_px4fmu-v2_lpe/px4io-v2/NuttX/nuttx-export/libs/libnuttx.a(c-lib_syslog.o)
 .bss           0x20000a58        0x0 /home/dexheimere/Firmware/build_px4fmu-v2_lpe/px4io-v2/NuttX/nuttx-export/libs/libnuttx.a(c-lib_tcgetattr.o)
 .bss           0x20000a58        0x0 /home/dexheimere/Firmware/build_px4fmu-v2_lpe/px4io-v2/NuttX/nuttx-export/libs/libnuttx.a(c-lib_tcsetattr.o)
 .bss           0x20000a58        0x0 /home/dexheimere/Firmware/build_px4fmu-v2_lpe/px4io-v2/NuttX/nuttx-export/libs/libnuttx.a(c-lib_vdprintf.o)
 .bss           0x20000a58        0x0 /home/dexheimere/Firmware/build_px4fmu-v2_lpe/px4io-v2/NuttX/nuttx-export/libs/libnuttx.a(c-lib_vsnprintf.o)
 .bss           0x20000a58        0x0 /home/dexheimere/Firmware/build_px4fmu-v2_lpe/px4io-v2/NuttX/nuttx-export/libs/libnuttx.a(c-sq_addafter.o)
 .bss           0x20000a58        0x0 /home/dexheimere/Firmware/build_px4fmu-v2_lpe/px4io-v2/NuttX/nuttx-export/libs/libnuttx.a(c-sq_addfirst.o)
 .bss           0x20000a58        0x0 /home/dexheimere/Firmware/build_px4fmu-v2_lpe/px4io-v2/NuttX/nuttx-export/libs/libnuttx.a(c-sq_addlast.o)
 .bss           0x20000a58        0x0 /home/dexheimere/Firmware/build_px4fmu-v2_lpe/px4io-v2/NuttX/nuttx-export/libs/libnuttx.a(c-sq_rem.o)
 .bss           0x20000a58        0x0 /home/dexheimere/Firmware/build_px4fmu-v2_lpe/px4io-v2/NuttX/nuttx-export/libs/libnuttx.a(mm-mm_calloc.o)
 .bss           0x20000a58        0x0 /home/dexheimere/Firmware/build_px4fmu-v2_lpe/px4io-v2/NuttX/nuttx-export/libs/libnuttx.a(mm-mm_free.o)
 .bss           0x20000a58        0x0 /home/dexheimere/Firmware/build_px4fmu-v2_lpe/px4io-v2/NuttX/nuttx-export/libs/libnuttx.a(mm-mm_mallinfo.o)
 .bss           0x20000a58        0x0 /home/dexheimere/Firmware/build_px4fmu-v2_lpe/px4io-v2/NuttX/nuttx-export/libs/libnuttx.a(mm-mm_malloc.o)
 .bss           0x20000a58        0x0 /home/dexheimere/Firmware/build_px4fmu-v2_lpe/px4io-v2/NuttX/nuttx-export/libs/libnuttx.a(mm-mm_sem.o)
 .bss           0x20000a58        0x0 /home/dexheimere/Firmware/build_px4fmu-v2_lpe/px4io-v2/NuttX/nuttx-export/libs/libnuttx.a(mm-mm_size2ndx.o)
 .bss           0x20000a58        0x0 /home/dexheimere/Firmware/build_px4fmu-v2_lpe/px4io-v2/NuttX/nuttx-export/libs/libnuttx.a(mm-mm_user.o)
 .bss.g_mmheap  0x20000a58       0xa4 /home/dexheimere/Firmware/build_px4fmu-v2_lpe/px4io-v2/NuttX/nuttx-export/libs/libnuttx.a(mm-mm_user.o)
                0x20000a58                g_mmheap
 .bss           0x20000afc        0x0 /home/dexheimere/Firmware/build_px4fmu-v2_lpe/px4io-v2/NuttX/nuttx-export/libs/libnuttx.a(mm-mm_zalloc.o)
 .bss           0x20000afc        0x0 /home/dexheimere/Firmware/build_px4fmu-v2_lpe/px4io-v2/NuttX/nuttx-export/libs/libnuttx.a(arch-stm32_dma.o)
 .bss           0x20000afc        0x0 /home/dexheimere/Firmware/build_px4fmu-v2_lpe/px4io-v2/NuttX/nuttx-export/libs/libnuttx.a(arch-stm32_gpio.o)
 .bss           0x20000afc        0x0 /home/dexheimere/Firmware/build_px4fmu-v2_lpe/px4io-v2/NuttX/nuttx-export/libs/libnuttx.a(arch-stm32_irq.o)
 .bss.current_regs
                0x20000afc        0x4 /home/dexheimere/Firmware/build_px4fmu-v2_lpe/px4io-v2/NuttX/nuttx-export/libs/libnuttx.a(arch-stm32_irq.o)
                0x20000afc                current_regs
 .bss           0x20000b00        0x0 /home/dexheimere/Firmware/build_px4fmu-v2_lpe/px4io-v2/NuttX/nuttx-export/libs/libnuttx.a(arch-stm32_serial.o)
 .bss.g_usart1txbuffer
                0x20000b00       0x20 /home/dexheimere/Firmware/build_px4fmu-v2_lpe/px4io-v2/NuttX/nuttx-export/libs/libnuttx.a(arch-stm32_serial.o)
 .bss.g_usart1rxfifo
                0x20000b20       0x20 /home/dexheimere/Firmware/build_px4fmu-v2_lpe/px4io-v2/NuttX/nuttx-export/libs/libnuttx.a(arch-stm32_serial.o)
 .bss.g_usart2rxbuffer
                0x20000b40       0x40 /home/dexheimere/Firmware/build_px4fmu-v2_lpe/px4io-v2/NuttX/nuttx-export/libs/libnuttx.a(arch-stm32_serial.o)
 .bss.g_usart2txbuffer
                0x20000b80       0x20 /home/dexheimere/Firmware/build_px4fmu-v2_lpe/px4io-v2/NuttX/nuttx-export/libs/libnuttx.a(arch-stm32_serial.o)
 .bss.g_usart3rxbuffer
                0x20000ba0       0x40 /home/dexheimere/Firmware/build_px4fmu-v2_lpe/px4io-v2/NuttX/nuttx-export/libs/libnuttx.a(arch-stm32_serial.o)
 .bss.g_usart1rxbuffer
                0x20000be0       0x40 /home/dexheimere/Firmware/build_px4fmu-v2_lpe/px4io-v2/NuttX/nuttx-export/libs/libnuttx.a(arch-stm32_serial.o)
 .bss.g_usart3rxfifo
                0x20000c20       0x20 /home/dexheimere/Firmware/build_px4fmu-v2_lpe/px4io-v2/NuttX/nuttx-export/libs/libnuttx.a(arch-stm32_serial.o)
 .bss.g_usart3txbuffer
                0x20000c40       0x40 /home/dexheimere/Firmware/build_px4fmu-v2_lpe/px4io-v2/NuttX/nuttx-export/libs/libnuttx.a(arch-stm32_serial.o)
 .bss           0x20000c80        0x0 /home/dexheimere/Firmware/build_px4fmu-v2_lpe/px4io-v2/NuttX/nuttx-export/libs/libnuttx.a(arch-stm32_start.o)
 .bss           0x20000c80        0x0 /home/dexheimere/Firmware/build_px4fmu-v2_lpe/px4io-v2/NuttX/nuttx-export/libs/libnuttx.a(arch-up_assert.o)
 .bss           0x20000c80        0x0 /home/dexheimere/Firmware/build_px4fmu-v2_lpe/px4io-v2/NuttX/nuttx-export/libs/libnuttx.a(arch-up_hardfault.o)
 .bss           0x20000c80        0x0 /home/dexheimere/Firmware/build_px4fmu-v2_lpe/px4io-v2/NuttX/nuttx-export/libs/libnuttx.a(arch-up_modifyreg32.o)
 .bss           0x20000c80        0x0 /home/dexheimere/Firmware/build_px4fmu-v2_lpe/px4io-v2/NuttX/nuttx-export/libs/libnuttx.a(arch-up_svcall.o)
 .bss           0x20000c80        0x0 /home/dexheimere/Firmware/build_px4fmu-v2_lpe/px4io-v2/NuttX/nuttx-export/libs/libnuttx.a(arch-up_systemreset.o)
 .bss           0x20000c80        0x0 /home/dexheimere/Firmware/build_px4fmu-v2_lpe/px4io-v2/NuttX/nuttx-export/libs/libnuttx.a(arch-up_udelay.o)
 .bss           0x20000c80        0x0 /home/dexheimere/Firmware/build_px4fmu-v2_lpe/px4io-v2/NuttX/nuttx-export/libs/libnuttx.a(arch-up_vectors.o)
 .bss           0x20000c80        0x0 /home/dexheimere/Firmware/build_px4fmu-v2_lpe/px4io-v2/NuttX/nuttx-export/libs/libnuttx.a(cxx-libxx_cxa_atexit.o)
 .bss.__dso_handle
                0x20000c80        0x4 /home/dexheimere/Firmware/build_px4fmu-v2_lpe/px4io-v2/NuttX/nuttx-export/libs/libnuttx.a(cxx-libxx_cxa_atexit.o)
                0x20000c80                __dso_handle
 .bss           0x20000c84        0x0 /home/dexheimere/Firmware/build_px4fmu-v2_lpe/px4io-v2/NuttX/nuttx-export/libs/libnuttx.a(cxx-libxx_cxapurevirtual.o)
 .bss           0x20000c84        0x0 /home/dexheimere/Firmware/build_px4fmu-v2_lpe/px4io-v2/NuttX/nuttx-export/libs/libnuttx.a(cxx-libxx_delete.o)
 .bss           0x20000c84        0x0 /home/dexheimere/Firmware/build_px4fmu-v2_lpe/px4io-v2/NuttX/nuttx-export/libs/libnuttx.a(cxx-libxx_eabi_atexit.o)
 .bss           0x20000c84        0x0 /home/dexheimere/Firmware/build_px4fmu-v2_lpe/px4io-v2/NuttX/nuttx-export/libs/libnuttx.a(cxx-libxx_new.o)
 .bss           0x20000c84        0x0 /home/dexheimere/Firmware/build_px4fmu-v2_lpe/px4io-v2/NuttX/nuttx-export/libs/libnuttx.a(fs-fs_ioctl.o)
 .bss           0x20000c84        0x0 /home/dexheimere/Firmware/build_px4fmu-v2_lpe/px4io-v2/NuttX/nuttx-export/libs/libnuttx.a(fs-fs_open.o)
 .bss           0x20000c84        0x0 /home/dexheimere/Firmware/build_px4fmu-v2_lpe/px4io-v2/NuttX/nuttx-export/libs/libnuttx.a(fs-fs_read.o)
 .bss           0x20000c84        0x0 /home/dexheimere/Firmware/build_px4fmu-v2_lpe/px4io-v2/NuttX/nuttx-export/libs/libnuttx.a(fs-fs_write.o)
 .bss           0x20000c84        0x0 /home/dexheimere/Firmware/build_px4fmu-v2_lpe/px4io-v2/NuttX/nuttx-export/libs/libnuttx.a(drivers-serialirq.o)
 .bss           0x20000c84        0x0 /home/dexheimere/Firmware/build_px4fmu-v2_lpe/px4io-v2/NuttX/nuttx-export/libs/libnuttx.a(drivers-serial.o)
 .bss           0x20000c84        0x0 /home/dexheimere/Firmware/build_px4fmu-v2_lpe/px4io-v2/NuttX/nuttx-export/libs/libnuttx.a(sched-errno_getptr.o)
 .bss.g_irqerrno
                0x20000c84        0x4 /home/dexheimere/Firmware/build_px4fmu-v2_lpe/px4io-v2/NuttX/nuttx-export/libs/libnuttx.a(sched-errno_getptr.o)
 .bss           0x20000c88        0x0 /home/dexheimere/Firmware/build_px4fmu-v2_lpe/px4io-v2/NuttX/nuttx-export/libs/libnuttx.a(sched-exit.o)
 .bss           0x20000c88        0x0 /home/dexheimere/Firmware/build_px4fmu-v2_lpe/px4io-v2/NuttX/nuttx-export/libs/libnuttx.a(sched-getpid.o)
 .bss           0x20000c88        0x0 /home/dexheimere/Firmware/build_px4fmu-v2_lpe/px4io-v2/NuttX/nuttx-export/libs/libnuttx.a(sched-os_start.o)
 .bss.g_pendingtasks
                0x20000c88        0x8 /home/dexheimere/Firmware/build_px4fmu-v2_lpe/px4io-v2/NuttX/nuttx-export/libs/libnuttx.a(sched-os_start.o)
                0x20000c88                g_pendingtasks
 .bss.g_delayed_kufree
                0x20000c90        0x8 /home/dexheimere/Firmware/build_px4fmu-v2_lpe/px4io-v2/NuttX/nuttx-export/libs/libnuttx.a(sched-os_start.o)
                0x20000c90                g_delayed_kufree
 .bss.g_waitingforsemaphore
                0x20000c98        0x8 /home/dexheimere/Firmware/build_px4fmu-v2_lpe/px4io-v2/NuttX/nuttx-export/libs/libnuttx.a(sched-os_start.o)
                0x20000c98                g_waitingforsemaphore
 .bss.g_pidhash
                0x20000ca0       0x20 /home/dexheimere/Firmware/build_px4fmu-v2_lpe/px4io-v2/NuttX/nuttx-export/libs/libnuttx.a(sched-os_start.o)
                0x20000ca0                g_pidhash
 .bss.g_lastpid
                0x20000cc0        0x2 /home/dexheimere/Firmware/build_px4fmu-v2_lpe/px4io-v2/NuttX/nuttx-export/libs/libnuttx.a(sched-os_start.o)
                0x20000cc0                g_lastpid
 *fill*         0x20000cc2        0x2 
 .bss.g_readytorun
                0x20000cc4        0x8 /home/dexheimere/Firmware/build_px4fmu-v2_lpe/px4io-v2/NuttX/nuttx-export/libs/libnuttx.a(sched-os_start.o)
                0x20000cc4                g_readytorun
 .bss.g_inactivetasks
                0x20000ccc        0x8 /home/dexheimere/Firmware/build_px4fmu-v2_lpe/px4io-v2/NuttX/nuttx-export/libs/libnuttx.a(sched-os_start.o)
                0x20000ccc                g_inactivetasks
 .bss.g_idletcb
                0x20000cd4       0xa4 /home/dexheimere/Firmware/build_px4fmu-v2_lpe/px4io-v2/NuttX/nuttx-export/libs/libnuttx.a(sched-os_start.o)
 .bss           0x20000d78        0x0 /home/dexheimere/Firmware/build_px4fmu-v2_lpe/px4io-v2/NuttX/nuttx-export/libs/libnuttx.a(sched-sched_garbage.o)
 .bss           0x20000d78        0x0 /home/dexheimere/Firmware/build_px4fmu-v2_lpe/px4io-v2/NuttX/nuttx-export/libs/libnuttx.a(sched-sched_getfiles.o)
 .bss           0x20000d78        0x0 /home/dexheimere/Firmware/build_px4fmu-v2_lpe/px4io-v2/NuttX/nuttx-export/libs/libnuttx.a(sched-sem_post.o)
 .bss           0x20000d78        0x0 /home/dexheimere/Firmware/build_px4fmu-v2_lpe/px4io-v2/NuttX/nuttx-export/libs/libnuttx.a(sched-sem_trywait.o)
 .bss           0x20000d78        0x0 /home/dexheimere/Firmware/build_px4fmu-v2_lpe/px4io-v2/NuttX/nuttx-export/libs/libnuttx.a(sched-sem_wait.o)
 .bss           0x20000d78        0x0 /home/dexheimere/Firmware/build_px4fmu-v2_lpe/px4io-v2/NuttX/nuttx-export/libs/libnuttx.a(sched-task_exithook.o)
 .bss           0x20000d78        0x0 /home/dexheimere/Firmware/build_px4fmu-v2_lpe/px4io-v2/NuttX/nuttx-export/libs/libnuttx.a(sched-task_recover.o)
 .bss           0x20000d78        0x0 /home/dexheimere/Firmware/build_px4fmu-v2_lpe/px4io-v2/NuttX/nuttx-export/libs/libnuttx.a(sched-wd_cancel.o)
 .bss           0x20000d78        0x0 /home/dexheimere/Firmware/build_px4fmu-v2_lpe/px4io-v2/NuttX/nuttx-export/libs/libnuttx.a(sched-wd_delete.o)
 .bss           0x20000d78        0x0 /home/dexheimere/Firmware/build_px4fmu-v2_lpe/px4io-v2/NuttX/nuttx-export/libs/libnuttx.a(sched-wd_initialize.o)
 .bss.g_wdfreelist
                0x20000d78        0x8 /home/dexheimere/Firmware/build_px4fmu-v2_lpe/px4io-v2/NuttX/nuttx-export/libs/libnuttx.a(sched-wd_initialize.o)
                0x20000d78                g_wdfreelist
 .bss.g_wdpool  0x20000d80        0x4 /home/dexheimere/Firmware/build_px4fmu-v2_lpe/px4io-v2/NuttX/nuttx-export/libs/libnuttx.a(sched-wd_initialize.o)
                0x20000d80                g_wdpool
 .bss.g_wdactivelist
                0x20000d84        0x8 /home/dexheimere/Firmware/build_px4fmu-v2_lpe/px4io-v2/NuttX/nuttx-export/libs/libnuttx.a(sched-wd_initialize.o)
                0x20000d84                g_wdactivelist
 .bss           0x20000d8c        0x0 /home/dexheimere/Firmware/build_px4fmu-v2_lpe/px4io-v2/NuttX/nuttx-export/libs/libnuttx.a(c-dq_addfirst.o)
 .bss           0x20000d8c        0x0 /home/dexheimere/Firmware/build_px4fmu-v2_lpe/px4io-v2/NuttX/nuttx-export/libs/libnuttx.a(c-lib_cfgetspeed.o)
 .bss           0x20000d8c        0x0 /home/dexheimere/Firmware/build_px4fmu-v2_lpe/px4io-v2/NuttX/nuttx-export/libs/libnuttx.a(c-lib_checkbase.o)
 .bss           0x20000d8c        0x0 /home/dexheimere/Firmware/build_px4fmu-v2_lpe/px4io-v2/NuttX/nuttx-export/libs/libnuttx.a(c-lib_isbasedigit.o)
 .bss           0x20000d8c        0x0 /home/dexheimere/Firmware/build_px4fmu-v2_lpe/px4io-v2/NuttX/nuttx-export/libs/libnuttx.a(c-lib_libvsprintf.o)
 .bss           0x20000d8c        0x0 /home/dexheimere/Firmware/build_px4fmu-v2_lpe/px4io-v2/NuttX/nuttx-export/libs/libnuttx.a(c-lib_lowoutstream.o)
 .bss           0x20000d8c        0x0 /home/dexheimere/Firmware/build_px4fmu-v2_lpe/px4io-v2/NuttX/nuttx-export/libs/libnuttx.a(c-lib_memoutstream.o)
 .bss           0x20000d8c        0x0 /home/dexheimere/Firmware/build_px4fmu-v2_lpe/px4io-v2/NuttX/nuttx-export/libs/libnuttx.a(c-lib_nulloutstream.o)
 .bss           0x20000d8c        0x0 /home/dexheimere/Firmware/build_px4fmu-v2_lpe/px4io-v2/NuttX/nuttx-export/libs/libnuttx.a(c-lib_rawoutstream.o)
 .bss           0x20000d8c        0x0 /home/dexheimere/Firmware/build_px4fmu-v2_lpe/px4io-v2/NuttX/nuttx-export/libs/libnuttx.a(c-lib_skipspace.o)
 .bss           0x20000d8c        0x0 /home/dexheimere/Firmware/build_px4fmu-v2_lpe/px4io-v2/NuttX/nuttx-export/libs/libnuttx.a(c-lib_strcpy.o)
 .bss           0x20000d8c        0x0 /home/dexheimere/Firmware/build_px4fmu-v2_lpe/px4io-v2/NuttX/nuttx-export/libs/libnuttx.a(c-lib_strlen.o)
 .bss           0x20000d8c        0x0 /home/dexheimere/Firmware/build_px4fmu-v2_lpe/px4io-v2/NuttX/nuttx-export/libs/libnuttx.a(c-sem_init.o)
 .bss           0x20000d8c        0x0 /home/dexheimere/Firmware/build_px4fmu-v2_lpe/px4io-v2/NuttX/nuttx-export/libs/libnuttx.a(c-sq_remafter.o)
 .bss           0x20000d8c        0x0 /home/dexheimere/Firmware/build_px4fmu-v2_lpe/px4io-v2/NuttX/nuttx-export/libs/libnuttx.a(c-sq_remfirst.o)
 .bss           0x20000d8c        0x0 /home/dexheimere/Firmware/build_px4fmu-v2_lpe/px4io-v2/NuttX/nuttx-export/libs/libnuttx.a(mm-mm_addfreechunk.o)
 .bss           0x20000d8c        0x0 /home/dexheimere/Firmware/build_px4fmu-v2_lpe/px4io-v2/NuttX/nuttx-export/libs/libnuttx.a(mm-mm_initialize.o)
 .bss           0x20000d8c        0x0 /home/dexheimere/Firmware/build_px4fmu-v2_lpe/px4io-v2/NuttX/nuttx-export/libs/libnuttx.a(arch-stm32_allocateheap.o)
 .bss           0x20000d8c        0x0 /home/dexheimere/Firmware/build_px4fmu-v2_lpe/px4io-v2/NuttX/nuttx-export/libs/libnuttx.a(arch-stm32_idle.o)
 .bss           0x20000d8c        0x0 /home/dexheimere/Firmware/build_px4fmu-v2_lpe/px4io-v2/NuttX/nuttx-export/libs/libnuttx.a(arch-stm32_lowputc.o)
 .bss           0x20000d8c        0x0 /home/dexheimere/Firmware/build_px4fmu-v2_lpe/px4io-v2/NuttX/nuttx-export/libs/libnuttx.a(arch-stm32_rcc.o)
 .bss           0x20000d8c        0x0 /home/dexheimere/Firmware/build_px4fmu-v2_lpe/px4io-v2/NuttX/nuttx-export/libs/libnuttx.a(arch-stm32_vectors.o)
 .bss           0x20000d8c        0x0 /home/dexheimere/Firmware/build_px4fmu-v2_lpe/px4io-v2/NuttX/nuttx-export/libs/libnuttx.a(arch-up_blocktask.o)
 .bss           0x20000d8c        0x0 /home/dexheimere/Firmware/build_px4fmu-v2_lpe/px4io-v2/NuttX/nuttx-export/libs/libnuttx.a(arch-up_copystate.o)
 .bss           0x20000d8c        0x0 /home/dexheimere/Firmware/build_px4fmu-v2_lpe/px4io-v2/NuttX/nuttx-export/libs/libnuttx.a(arch-up_exception.o)
 .bss           0x20000d8c        0x0 /home/dexheimere/Firmware/build_px4fmu-v2_lpe/px4io-v2/NuttX/nuttx-export/libs/libnuttx.a(arch-up_exit.o)
 .bss           0x20000d8c        0x0 /home/dexheimere/Firmware/build_px4fmu-v2_lpe/px4io-v2/NuttX/nuttx-export/libs/libnuttx.a(arch-up_fullcontextrestore.o)
 .bss           0x20000d8c        0x0 /home/dexheimere/Firmware/build_px4fmu-v2_lpe/px4io-v2/NuttX/nuttx-export/libs/libnuttx.a(arch-up_initialize.o)
 .bss           0x20000d8c        0x0 /home/dexheimere/Firmware/build_px4fmu-v2_lpe/px4io-v2/NuttX/nuttx-export/libs/libnuttx.a(arch-up_initialstate.o)
 .bss           0x20000d8c        0x0 /home/dexheimere/Firmware/build_px4fmu-v2_lpe/px4io-v2/NuttX/nuttx-export/libs/libnuttx.a(arch-up_interruptcontext.o)
 .bss           0x20000d8c        0x0 /home/dexheimere/Firmware/build_px4fmu-v2_lpe/px4io-v2/NuttX/nuttx-export/libs/libnuttx.a(arch-up_mdelay.o)
 .bss           0x20000d8c        0x0 /home/dexheimere/Firmware/build_px4fmu-v2_lpe/px4io-v2/NuttX/nuttx-export/libs/libnuttx.a(arch-up_switchcontext.o)
 .bss           0x20000d8c        0x0 /home/dexheimere/Firmware/build_px4fmu-v2_lpe/px4io-v2/NuttX/nuttx-export/libs/libnuttx.a(arch-up_unblocktask.o)
 .bss           0x20000d8c        0x0 /home/dexheimere/Firmware/build_px4fmu-v2_lpe/px4io-v2/NuttX/nuttx-export/libs/libnuttx.a(fs-fs_files.o)
 .bss           0x20000d8c        0x0 /home/dexheimere/Firmware/build_px4fmu-v2_lpe/px4io-v2/NuttX/nuttx-export/libs/libnuttx.a(fs-fs_inodeaddref.o)
 .bss           0x20000d8c        0x0 /home/dexheimere/Firmware/build_px4fmu-v2_lpe/px4io-v2/NuttX/nuttx-export/libs/libnuttx.a(fs-fs_inodefind.o)
 .bss           0x20000d8c        0x0 /home/dexheimere/Firmware/build_px4fmu-v2_lpe/px4io-v2/NuttX/nuttx-export/libs/libnuttx.a(fs-fs_inode.o)
 .bss.root_inode
                0x20000d8c        0x4 /home/dexheimere/Firmware/build_px4fmu-v2_lpe/px4io-v2/NuttX/nuttx-export/libs/libnuttx.a(fs-fs_inode.o)
                0x20000d8c                root_inode
 .bss.tree_sem  0x20000d90        0x2 /home/dexheimere/Firmware/build_px4fmu-v2_lpe/px4io-v2/NuttX/nuttx-export/libs/libnuttx.a(fs-fs_inode.o)
 .bss           0x20000d92        0x0 /home/dexheimere/Firmware/build_px4fmu-v2_lpe/px4io-v2/NuttX/nuttx-export/libs/libnuttx.a(fs-fs_inoderelease.o)
 .bss           0x20000d92        0x0 /home/dexheimere/Firmware/build_px4fmu-v2_lpe/px4io-v2/NuttX/nuttx-export/libs/libnuttx.a(fs-fs_registerdriver.o)
 .bss           0x20000d92        0x0 /home/dexheimere/Firmware/build_px4fmu-v2_lpe/px4io-v2/NuttX/nuttx-export/libs/libnuttx.a(sched-group_create.o)
 .bss           0x20000d92        0x0 /home/dexheimere/Firmware/build_px4fmu-v2_lpe/px4io-v2/NuttX/nuttx-export/libs/libnuttx.a(sched-group_leave.o)
 .bss           0x20000d92        0x0 /home/dexheimere/Firmware/build_px4fmu-v2_lpe/px4io-v2/NuttX/nuttx-export/libs/libnuttx.a(sched-group_setupidlefiles.o)
 .bss           0x20000d92        0x0 /home/dexheimere/Firmware/build_px4fmu-v2_lpe/px4io-v2/NuttX/nuttx-export/libs/libnuttx.a(sched-os_bringup.o)
 .bss           0x20000d92        0x0 /home/dexheimere/Firmware/build_px4fmu-v2_lpe/px4io-v2/NuttX/nuttx-export/libs/libnuttx.a(sched-sched_addblocked.o)
 .bss           0x20000d92        0x0 /home/dexheimere/Firmware/build_px4fmu-v2_lpe/px4io-v2/NuttX/nuttx-export/libs/libnuttx.a(sched-sched_addprioritized.o)
 .bss           0x20000d92        0x0 /home/dexheimere/Firmware/build_px4fmu-v2_lpe/px4io-v2/NuttX/nuttx-export/libs/libnuttx.a(sched-sched_addreadytorun.o)
 .bss           0x20000d92        0x0 /home/dexheimere/Firmware/build_px4fmu-v2_lpe/px4io-v2/NuttX/nuttx-export/libs/libnuttx.a(sched-sched_free.o)
 .bss           0x20000d92        0x0 /home/dexheimere/Firmware/build_px4fmu-v2_lpe/px4io-v2/NuttX/nuttx-export/libs/libnuttx.a(sched-sched_mergepending.o)
 .bss           0x20000d92        0x0 /home/dexheimere/Firmware/build_px4fmu-v2_lpe/px4io-v2/NuttX/nuttx-export/libs/libnuttx.a(sched-sched_removeblocked.o)
 .bss           0x20000d92        0x0 /home/dexheimere/Firmware/build_px4fmu-v2_lpe/px4io-v2/NuttX/nuttx-export/libs/libnuttx.a(sched-sched_removereadytorun.o)
 .bss           0x20000d92        0x0 /home/dexheimere/Firmware/build_px4fmu-v2_lpe/px4io-v2/NuttX/nuttx-export/libs/libnuttx.a(sched-sem_destroy.o)
 .bss           0x20000d92        0x0 /home/dexheimere/Firmware/build_px4fmu-v2_lpe/px4io-v2/NuttX/nuttx-export/libs/libnuttx.a(sched-task_create.o)
 .bss           0x20000d92        0x0 /home/dexheimere/Firmware/build_px4fmu-v2_lpe/px4io-v2/NuttX/nuttx-export/libs/libnuttx.a(sched-task_exit.o)
 .bss           0x20000d92        0x0 /home/dexheimere/Firmware/build_px4fmu-v2_lpe/px4io-v2/NuttX/nuttx-export/libs/libnuttx.a(sched-task_setup.o)
 .bss           0x20000d92        0x0 /home/dexheimere/Firmware/build_px4fmu-v2_lpe/px4io-v2/NuttX/nuttx-export/libs/libnuttx.a(sched-task_start.o)
 .bss           0x20000d92        0x0 /home/dexheimere/Firmware/build_px4fmu-v2_lpe/px4io-v2/NuttX/nuttx-export/libs/libnuttx.a(sched-task_terminate.o)
 .bss           0x20000d92        0x0 /home/dexheimere/Firmware/build_px4fmu-v2_lpe/px4io-v2/NuttX/nuttx-export/libs/libnuttx.a(c-dq_addlast.o)
 .bss           0x20000d92        0x0 /home/dexheimere/Firmware/build_px4fmu-v2_lpe/px4io-v2/NuttX/nuttx-export/libs/libnuttx.a(c-dq_rem.o)
 .bss           0x20000d92        0x0 /home/dexheimere/Firmware/build_px4fmu-v2_lpe/px4io-v2/NuttX/nuttx-export/libs/libnuttx.a(c-lib_strdup.o)
 .bss           0x20000d92        0x0 /home/dexheimere/Firmware/build_px4fmu-v2_lpe/px4io-v2/NuttX/nuttx-export/libs/libnuttx.a(arch-stm32_timerisr.o)
 .bss           0x20000d92        0x0 /home/dexheimere/Firmware/build_px4fmu-v2_lpe/px4io-v2/NuttX/nuttx-export/libs/libnuttx.a(arch-up_createstack.o)
 .bss           0x20000d92        0x0 /home/dexheimere/Firmware/build_px4fmu-v2_lpe/px4io-v2/NuttX/nuttx-export/libs/libnuttx.a(arch-up_doirq.o)
 .bss           0x20000d92        0x0 /home/dexheimere/Firmware/build_px4fmu-v2_lpe/px4io-v2/NuttX/nuttx-export/libs/libnuttx.a(arch-up_releasestack.o)
 .bss           0x20000d92        0x0 /home/dexheimere/Firmware/build_px4fmu-v2_lpe/px4io-v2/NuttX/nuttx-export/libs/libnuttx.a(fs-fs_close.o)
 .bss           0x20000d92        0x0 /home/dexheimere/Firmware/build_px4fmu-v2_lpe/px4io-v2/NuttX/nuttx-export/libs/libnuttx.a(fs-fs_filedup2.o)
 .bss           0x20000d92        0x0 /home/dexheimere/Firmware/build_px4fmu-v2_lpe/px4io-v2/NuttX/nuttx-export/libs/libnuttx.a(fs-fs_inodereserve.o)
 .bss           0x20000d92        0x0 /home/dexheimere/Firmware/build_px4fmu-v2_lpe/px4io-v2/NuttX/nuttx-export/libs/libnuttx.a(sched-group_setuptaskfiles.o)
 .bss           0x20000d92        0x0 /home/dexheimere/Firmware/build_px4fmu-v2_lpe/px4io-v2/NuttX/nuttx-export/libs/libnuttx.a(sched-irq_dispatch.o)
 .bss           0x20000d92        0x0 /home/dexheimere/Firmware/build_px4fmu-v2_lpe/px4io-v2/NuttX/nuttx-export/libs/libnuttx.a(sched-sched_gettcb.o)
 .bss           0x20000d92        0x0 /home/dexheimere/Firmware/build_px4fmu-v2_lpe/px4io-v2/NuttX/nuttx-export/libs/libnuttx.a(sched-sched_lock.o)
 .bss           0x20000d92        0x0 /home/dexheimere/Firmware/build_px4fmu-v2_lpe/px4io-v2/NuttX/nuttx-export/libs/libnuttx.a(sched-sched_processtimer.o)
 .bss           0x20000d92        0x0 /home/dexheimere/Firmware/build_px4fmu-v2_lpe/px4io-v2/NuttX/nuttx-export/libs/libnuttx.a(sched-sched_releasetcb.o)
 .bss           0x20000d92        0x0 /home/dexheimere/Firmware/build_px4fmu-v2_lpe/px4io-v2/NuttX/nuttx-export/libs/libnuttx.a(sched-sched_unlock.o)
 .bss           0x20000d92        0x0 /home/dexheimere/Firmware/build_px4fmu-v2_lpe/px4io-v2/NuttX/nuttx-export/libs/libnuttx.a(sched-task_activate.o)
 .bss           0x20000d92        0x0 /home/dexheimere/Firmware/build_px4fmu-v2_lpe/px4io-v2/NuttX/nuttx-export/libs/libnuttx.a(arch-up_releasepending.o)
 .bss           0x20000d92        0x0 /home/dexheimere/gcc-arm-none-eabi-5_4-2016q2/bin/../lib/gcc/arm-none-eabi/5.4.1/../../../../arm-none-eabi/lib/armv7-m/libm.a(lib_a-sf_fmin.o)
 .bss           0x20000d92        0x0 /home/dexheimere/gcc-arm-none-eabi-5_4-2016q2/bin/../lib/gcc/arm-none-eabi/5.4.1/../../../../arm-none-eabi/lib/armv7-m/libm.a(lib_a-sf_fpclassify.o)
 .bss           0x20000d92        0x0 /home/dexheimere/gcc-arm-none-eabi-5_4-2016q2/bin/../lib/gcc/arm-none-eabi/5.4.1/../../../../arm-none-eabi/lib/armv7-m/libm.a(lib_a-wf_sqrt.o)
 .bss           0x20000d92        0x0 /home/dexheimere/gcc-arm-none-eabi-5_4-2016q2/bin/../lib/gcc/arm-none-eabi/5.4.1/../../../../arm-none-eabi/lib/armv7-m/libm.a(lib_a-ef_sqrt.o)
 .bss           0x20000d92        0x0 /home/dexheimere/gcc-arm-none-eabi-5_4-2016q2/bin/../lib/gcc/arm-none-eabi/5.4.1/../../../../arm-none-eabi/lib/armv7-m/libm.a(lib_a-s_lib_ver.o)
 .bss           0x20000d92        0x0 /home/dexheimere/gcc-arm-none-eabi-5_4-2016q2/bin/../lib/gcc/arm-none-eabi/5.4.1/../../../../arm-none-eabi/lib/armv7-m/libm.a(lib_a-s_matherr.o)
 .bss           0x20000d92        0x0 /home/dexheimere/gcc-arm-none-eabi-5_4-2016q2/bin/../lib/gcc/arm-none-eabi/5.4.1/armv7-m/libgcc.a(_lshrdi3.o)
 .bss           0x20000d92        0x0 /home/dexheimere/gcc-arm-none-eabi-5_4-2016q2/bin/../lib/gcc/arm-none-eabi/5.4.1/armv7-m/libgcc.a(_arm_addsubdf3.o)
 .bss           0x20000d92        0x0 /home/dexheimere/gcc-arm-none-eabi-5_4-2016q2/bin/../lib/gcc/arm-none-eabi/5.4.1/armv7-m/libgcc.a(_arm_muldivdf3.o)
 .bss           0x20000d92        0x0 /home/dexheimere/gcc-arm-none-eabi-5_4-2016q2/bin/../lib/gcc/arm-none-eabi/5.4.1/armv7-m/libgcc.a(_arm_truncdfsf2.o)
 .bss           0x20000d92        0x0 /home/dexheimere/gcc-arm-none-eabi-5_4-2016q2/bin/../lib/gcc/arm-none-eabi/5.4.1/armv7-m/libgcc.a(_arm_addsubsf3.o)
 .bss           0x20000d92        0x0 /home/dexheimere/gcc-arm-none-eabi-5_4-2016q2/bin/../lib/gcc/arm-none-eabi/5.4.1/armv7-m/libgcc.a(_arm_muldivsf3.o)
 .bss           0x20000d92        0x0 /home/dexheimere/gcc-arm-none-eabi-5_4-2016q2/bin/../lib/gcc/arm-none-eabi/5.4.1/armv7-m/libgcc.a(_arm_cmpsf2.o)
 .bss           0x20000d92        0x0 /home/dexheimere/gcc-arm-none-eabi-5_4-2016q2/bin/../lib/gcc/arm-none-eabi/5.4.1/armv7-m/libgcc.a(_arm_unordsf2.o)
 .bss           0x20000d92        0x0 /home/dexheimere/gcc-arm-none-eabi-5_4-2016q2/bin/../lib/gcc/arm-none-eabi/5.4.1/armv7-m/libgcc.a(_arm_fixsfsi.o)
 .bss           0x20000d92        0x0 /home/dexheimere/gcc-arm-none-eabi-5_4-2016q2/bin/../lib/gcc/arm-none-eabi/5.4.1/armv7-m/libgcc.a(_arm_fixunssfsi.o)
 .bss           0x20000d92        0x0 /home/dexheimere/gcc-arm-none-eabi-5_4-2016q2/bin/../lib/gcc/arm-none-eabi/5.4.1/armv7-m/libgcc.a(_aeabi_uldivmod.o)
 .bss           0x20000d92        0x0 /home/dexheimere/gcc-arm-none-eabi-5_4-2016q2/bin/../lib/gcc/arm-none-eabi/5.4.1/armv7-m/libgcc.a(_udivmoddi4.o)
 .bss           0x20000d92        0x0 /home/dexheimere/gcc-arm-none-eabi-5_4-2016q2/bin/../lib/gcc/arm-none-eabi/5.4.1/armv7-m/libgcc.a(_dvmd_tls.o)
 *(.gnu.linkonce.b.*)
 *(COMMON)
                0x20000d92                _ebss = ABSOLUTE (.)

.stab
 *(.stab)

.stabstr
 *(.stabstr)

.stab.excl
 *(.stab.excl)

.stab.exclstr
 *(.stab.exclstr)

.stab.index
 *(.stab.index)

.stab.indexstr
 *(.stab.indexstr)

.comment        0x00000000       0x6e
 *(.comment)
 .comment       0x00000000       0x6e src/modules/px4iofirmware/CMakeFiles/px4io-v2.dir/adc.c.obj
                                 0x6f (size before relaxing)
 .comment       0x0000006e       0x6f src/modules/px4iofirmware/CMakeFiles/px4io-v2.dir/controls.c.obj
 .comment       0x0000006e       0x6f src/modules/px4iofirmware/CMakeFiles/px4io-v2.dir/px4io.c.obj
 .comment       0x0000006e       0x6f src/modules/px4iofirmware/CMakeFiles/px4io-v2.dir/registers.c.obj
 .comment       0x0000006e       0x6f src/modules/px4iofirmware/CMakeFiles/px4io-v2.dir/safety.c.obj
 .comment       0x0000006e       0x6f src/modules/px4iofirmware/CMakeFiles/px4io-v2.dir/__/systemlib/up_cxxinitialize.c.obj
 .comment       0x0000006e       0x6f src/modules/px4iofirmware/CMakeFiles/px4io-v2.dir/__/systemlib/perf_counter.c.obj
 .comment       0x0000006e       0x6f src/modules/px4iofirmware/CMakeFiles/px4io-v2.dir/mixer.cpp.obj
 .comment       0x0000006e       0x6f src/modules/px4iofirmware/CMakeFiles/px4io-v2.dir/__/systemlib/mixer/mixer.cpp.obj
 .comment       0x0000006e       0x6f src/modules/px4iofirmware/CMakeFiles/px4io-v2.dir/__/systemlib/mixer/mixer_group.cpp.obj
 .comment       0x0000006e       0x6f src/modules/px4iofirmware/CMakeFiles/px4io-v2.dir/__/systemlib/mixer/mixer_multirotor.cpp.obj
 .comment       0x0000006e       0x6f src/modules/px4iofirmware/CMakeFiles/px4io-v2.dir/__/systemlib/mixer/mixer_simple.cpp.obj
 .comment       0x0000006e       0x6f src/modules/px4iofirmware/CMakeFiles/px4io-v2.dir/__/systemlib/pwm_limit/pwm_limit.c.obj
 .comment       0x0000006e       0x6f src/modules/px4iofirmware/CMakeFiles/px4io-v2.dir/__/__/lib/rc/st24.c.obj
 .comment       0x0000006e       0x6f src/modules/px4iofirmware/CMakeFiles/px4io-v2.dir/__/__/lib/rc/sumd.c.obj
 .comment       0x0000006e       0x6f src/modules/px4iofirmware/CMakeFiles/px4io-v2.dir/__/__/lib/rc/sbus.c.obj
 .comment       0x0000006e       0x6f src/modules/px4iofirmware/CMakeFiles/px4io-v2.dir/__/__/lib/rc/dsm.c.obj
 .comment       0x0000006e       0x6f src/modules/px4iofirmware/CMakeFiles/px4io-v2.dir/__/__/drivers/stm32/drv_hrt.c.obj
 .comment       0x0000006e       0x6f src/modules/px4iofirmware/CMakeFiles/px4io-v2.dir/__/__/drivers/stm32/drv_io_timer.c.obj
 .comment       0x0000006e       0x6f src/modules/px4iofirmware/CMakeFiles/px4io-v2.dir/__/__/drivers/stm32/drv_pwm_servo.c.obj
 .comment       0x0000006e       0x6f src/modules/px4iofirmware/CMakeFiles/px4io-v2.dir/__/__/drivers/boards/px4io-v2/px4io_init.c.obj
 .comment       0x0000006e       0x6f src/modules/px4iofirmware/CMakeFiles/px4io-v2.dir/__/__/drivers/boards/px4io-v2/px4io_timer_config.c.obj
 .comment       0x0000006e       0x6f src/modules/px4iofirmware/CMakeFiles/px4io-v2.dir/serial.c.obj
 .comment       0x0000006e       0x6f src/modules/px4iofirmware/CMakeFiles/px4io-v2.dir/__/systemlib/hx_stream.c.obj
 .comment       0x0000006e       0x6f /home/dexheimere/Firmware/build_px4fmu-v2_lpe/px4io-v2/NuttX/nuttx-export/libs/libnuttx.a(sched-irq_attach.o)
 .comment       0x0000006e       0x6f /home/dexheimere/Firmware/build_px4fmu-v2_lpe/px4io-v2/NuttX/nuttx-export/libs/libnuttx.a(sched-irq_initialize.o)
 .comment       0x0000006e       0x6f /home/dexheimere/Firmware/build_px4fmu-v2_lpe/px4io-v2/NuttX/nuttx-export/libs/libnuttx.a(sched-irq_unexpectedisr.o)
 .comment       0x0000006e       0x6f /home/dexheimere/Firmware/build_px4fmu-v2_lpe/px4io-v2/NuttX/nuttx-export/libs/libnuttx.a(c-lib_abort.o)
 .comment       0x0000006e       0x6f /home/dexheimere/Firmware/build_px4fmu-v2_lpe/px4io-v2/NuttX/nuttx-export/libs/libnuttx.a(c-lib_cfsetspeed.o)
 .comment       0x0000006e       0x6f /home/dexheimere/Firmware/build_px4fmu-v2_lpe/px4io-v2/NuttX/nuttx-export/libs/libnuttx.a(c-lib_crc32.o)
 .comment       0x0000006e       0x6f /home/dexheimere/Firmware/build_px4fmu-v2_lpe/px4io-v2/NuttX/nuttx-export/libs/libnuttx.a(c-lib_dprintf.o)
 .comment       0x0000006e       0x6f /home/dexheimere/Firmware/build_px4fmu-v2_lpe/px4io-v2/NuttX/nuttx-export/libs/libnuttx.a(c-lib_lowsyslog.o)
 .comment       0x0000006e       0x6f /home/dexheimere/Firmware/build_px4fmu-v2_lpe/px4io-v2/NuttX/nuttx-export/libs/libnuttx.a(c-lib_memchr.o)
 .comment       0x0000006e       0x6f /home/dexheimere/Firmware/build_px4fmu-v2_lpe/px4io-v2/NuttX/nuttx-export/libs/libnuttx.a(c-lib_memcpy.o)
 .comment       0x0000006e       0x6f /home/dexheimere/Firmware/build_px4fmu-v2_lpe/px4io-v2/NuttX/nuttx-export/libs/libnuttx.a(c-lib_memset.o)
 .comment       0x0000006e       0x6f /home/dexheimere/Firmware/build_px4fmu-v2_lpe/px4io-v2/NuttX/nuttx-export/libs/libnuttx.a(c-lib_printf.o)
 .comment       0x0000006e       0x6f /home/dexheimere/Firmware/build_px4fmu-v2_lpe/px4io-v2/NuttX/nuttx-export/libs/libnuttx.a(c-lib_sscanf.o)
 .comment       0x0000006e       0x6f /home/dexheimere/Firmware/build_px4fmu-v2_lpe/px4io-v2/NuttX/nuttx-export/libs/libnuttx.a(c-lib_strchr.o)
 .comment       0x0000006e       0x6f /home/dexheimere/Firmware/build_px4fmu-v2_lpe/px4io-v2/NuttX/nuttx-export/libs/libnuttx.a(c-lib_strcmp.o)
 .comment       0x0000006e       0x6f /home/dexheimere/Firmware/build_px4fmu-v2_lpe/px4io-v2/NuttX/nuttx-export/libs/libnuttx.a(c-lib_strcspn.o)
 .comment       0x0000006e       0x6f /home/dexheimere/Firmware/build_px4fmu-v2_lpe/px4io-v2/NuttX/nuttx-export/libs/libnuttx.a(c-lib_strncpy.o)
 .comment       0x0000006e       0x6f /home/dexheimere/Firmware/build_px4fmu-v2_lpe/px4io-v2/NuttX/nuttx-export/libs/libnuttx.a(c-lib_strtol.o)
 .comment       0x0000006e       0x6f /home/dexheimere/Firmware/build_px4fmu-v2_lpe/px4io-v2/NuttX/nuttx-export/libs/libnuttx.a(c-lib_strtoul.o)
 .comment       0x0000006e       0x6f /home/dexheimere/Firmware/build_px4fmu-v2_lpe/px4io-v2/NuttX/nuttx-export/libs/libnuttx.a(c-lib_syslog.o)
 .comment       0x0000006e       0x6f /home/dexheimere/Firmware/build_px4fmu-v2_lpe/px4io-v2/NuttX/nuttx-export/libs/libnuttx.a(c-lib_tcgetattr.o)
 .comment       0x0000006e       0x6f /home/dexheimere/Firmware/build_px4fmu-v2_lpe/px4io-v2/NuttX/nuttx-export/libs/libnuttx.a(c-lib_tcsetattr.o)
 .comment       0x0000006e       0x6f /home/dexheimere/Firmware/build_px4fmu-v2_lpe/px4io-v2/NuttX/nuttx-export/libs/libnuttx.a(c-lib_vdprintf.o)
 .comment       0x0000006e       0x6f /home/dexheimere/Firmware/build_px4fmu-v2_lpe/px4io-v2/NuttX/nuttx-export/libs/libnuttx.a(c-lib_vsnprintf.o)
 .comment       0x0000006e       0x6f /home/dexheimere/Firmware/build_px4fmu-v2_lpe/px4io-v2/NuttX/nuttx-export/libs/libnuttx.a(c-sq_addafter.o)
 .comment       0x0000006e       0x6f /home/dexheimere/Firmware/build_px4fmu-v2_lpe/px4io-v2/NuttX/nuttx-export/libs/libnuttx.a(c-sq_addfirst.o)
 .comment       0x0000006e       0x6f /home/dexheimere/Firmware/build_px4fmu-v2_lpe/px4io-v2/NuttX/nuttx-export/libs/libnuttx.a(c-sq_addlast.o)
 .comment       0x0000006e       0x6f /home/dexheimere/Firmware/build_px4fmu-v2_lpe/px4io-v2/NuttX/nuttx-export/libs/libnuttx.a(c-sq_rem.o)
 .comment       0x0000006e       0x6f /home/dexheimere/Firmware/build_px4fmu-v2_lpe/px4io-v2/NuttX/nuttx-export/libs/libnuttx.a(mm-mm_calloc.o)
 .comment       0x0000006e       0x6f /home/dexheimere/Firmware/build_px4fmu-v2_lpe/px4io-v2/NuttX/nuttx-export/libs/libnuttx.a(mm-mm_free.o)
 .comment       0x0000006e       0x6f /home/dexheimere/Firmware/build_px4fmu-v2_lpe/px4io-v2/NuttX/nuttx-export/libs/libnuttx.a(mm-mm_mallinfo.o)
 .comment       0x0000006e       0x6f /home/dexheimere/Firmware/build_px4fmu-v2_lpe/px4io-v2/NuttX/nuttx-export/libs/libnuttx.a(mm-mm_malloc.o)
 .comment       0x0000006e       0x6f /home/dexheimere/Firmware/build_px4fmu-v2_lpe/px4io-v2/NuttX/nuttx-export/libs/libnuttx.a(mm-mm_sem.o)
 .comment       0x0000006e       0x6f /home/dexheimere/Firmware/build_px4fmu-v2_lpe/px4io-v2/NuttX/nuttx-export/libs/libnuttx.a(mm-mm_size2ndx.o)
 .comment       0x0000006e       0x6f /home/dexheimere/Firmware/build_px4fmu-v2_lpe/px4io-v2/NuttX/nuttx-export/libs/libnuttx.a(mm-mm_user.o)
 .comment       0x0000006e       0x6f /home/dexheimere/Firmware/build_px4fmu-v2_lpe/px4io-v2/NuttX/nuttx-export/libs/libnuttx.a(mm-mm_zalloc.o)
 .comment       0x0000006e       0x6f /home/dexheimere/Firmware/build_px4fmu-v2_lpe/px4io-v2/NuttX/nuttx-export/libs/libnuttx.a(arch-stm32_dma.o)
 .comment       0x0000006e       0x6f /home/dexheimere/Firmware/build_px4fmu-v2_lpe/px4io-v2/NuttX/nuttx-export/libs/libnuttx.a(arch-stm32_gpio.o)
 .comment       0x0000006e       0x6f /home/dexheimere/Firmware/build_px4fmu-v2_lpe/px4io-v2/NuttX/nuttx-export/libs/libnuttx.a(arch-stm32_irq.o)
 .comment       0x0000006e       0x6f /home/dexheimere/Firmware/build_px4fmu-v2_lpe/px4io-v2/NuttX/nuttx-export/libs/libnuttx.a(arch-stm32_serial.o)
 .comment       0x0000006e       0x6f /home/dexheimere/Firmware/build_px4fmu-v2_lpe/px4io-v2/NuttX/nuttx-export/libs/libnuttx.a(arch-stm32_start.o)
 .comment       0x0000006e       0x6f /home/dexheimere/Firmware/build_px4fmu-v2_lpe/px4io-v2/NuttX/nuttx-export/libs/libnuttx.a(arch-up_assert.o)
 .comment       0x0000006e       0x6f /home/dexheimere/Firmware/build_px4fmu-v2_lpe/px4io-v2/NuttX/nuttx-export/libs/libnuttx.a(arch-up_hardfault.o)
 .comment       0x0000006e       0x6f /home/dexheimere/Firmware/build_px4fmu-v2_lpe/px4io-v2/NuttX/nuttx-export/libs/libnuttx.a(arch-up_modifyreg32.o)
 .comment       0x0000006e       0x6f /home/dexheimere/Firmware/build_px4fmu-v2_lpe/px4io-v2/NuttX/nuttx-export/libs/libnuttx.a(arch-up_svcall.o)
 .comment       0x0000006e       0x6f /home/dexheimere/Firmware/build_px4fmu-v2_lpe/px4io-v2/NuttX/nuttx-export/libs/libnuttx.a(arch-up_systemreset.o)
 .comment       0x0000006e       0x6f /home/dexheimere/Firmware/build_px4fmu-v2_lpe/px4io-v2/NuttX/nuttx-export/libs/libnuttx.a(arch-up_udelay.o)
 .comment       0x0000006e       0x6f /home/dexheimere/Firmware/build_px4fmu-v2_lpe/px4io-v2/NuttX/nuttx-export/libs/libnuttx.a(arch-up_vectors.o)
 .comment       0x0000006e       0x6f /home/dexheimere/Firmware/build_px4fmu-v2_lpe/px4io-v2/NuttX/nuttx-export/libs/libnuttx.a(cxx-libxx_cxa_atexit.o)
 .comment       0x0000006e       0x6f /home/dexheimere/Firmware/build_px4fmu-v2_lpe/px4io-v2/NuttX/nuttx-export/libs/libnuttx.a(cxx-libxx_cxapurevirtual.o)
 .comment       0x0000006e       0x6f /home/dexheimere/Firmware/build_px4fmu-v2_lpe/px4io-v2/NuttX/nuttx-export/libs/libnuttx.a(cxx-libxx_delete.o)
 .comment       0x0000006e       0x6f /home/dexheimere/Firmware/build_px4fmu-v2_lpe/px4io-v2/NuttX/nuttx-export/libs/libnuttx.a(cxx-libxx_eabi_atexit.o)
 .comment       0x0000006e       0x6f /home/dexheimere/Firmware/build_px4fmu-v2_lpe/px4io-v2/NuttX/nuttx-export/libs/libnuttx.a(cxx-libxx_new.o)
 .comment       0x0000006e       0x6f /home/dexheimere/Firmware/build_px4fmu-v2_lpe/px4io-v2/NuttX/nuttx-export/libs/libnuttx.a(fs-fs_ioctl.o)
 .comment       0x0000006e       0x6f /home/dexheimere/Firmware/build_px4fmu-v2_lpe/px4io-v2/NuttX/nuttx-export/libs/libnuttx.a(fs-fs_open.o)
 .comment       0x0000006e       0x6f /home/dexheimere/Firmware/build_px4fmu-v2_lpe/px4io-v2/NuttX/nuttx-export/libs/libnuttx.a(fs-fs_read.o)
 .comment       0x0000006e       0x6f /home/dexheimere/Firmware/build_px4fmu-v2_lpe/px4io-v2/NuttX/nuttx-export/libs/libnuttx.a(fs-fs_write.o)
 .comment       0x0000006e       0x6f /home/dexheimere/Firmware/build_px4fmu-v2_lpe/px4io-v2/NuttX/nuttx-export/libs/libnuttx.a(drivers-serialirq.o)
 .comment       0x0000006e       0x6f /home/dexheimere/Firmware/build_px4fmu-v2_lpe/px4io-v2/NuttX/nuttx-export/libs/libnuttx.a(drivers-serial.o)
 .comment       0x0000006e       0x6f /home/dexheimere/Firmware/build_px4fmu-v2_lpe/px4io-v2/NuttX/nuttx-export/libs/libnuttx.a(sched-errno_getptr.o)
 .comment       0x0000006e       0x6f /home/dexheimere/Firmware/build_px4fmu-v2_lpe/px4io-v2/NuttX/nuttx-export/libs/libnuttx.a(sched-exit.o)
 .comment       0x0000006e       0x6f /home/dexheimere/Firmware/build_px4fmu-v2_lpe/px4io-v2/NuttX/nuttx-export/libs/libnuttx.a(sched-getpid.o)
 .comment       0x0000006e       0x6f /home/dexheimere/Firmware/build_px4fmu-v2_lpe/px4io-v2/NuttX/nuttx-export/libs/libnuttx.a(sched-os_start.o)
 .comment       0x0000006e       0x6f /home/dexheimere/Firmware/build_px4fmu-v2_lpe/px4io-v2/NuttX/nuttx-export/libs/libnuttx.a(sched-sched_garbage.o)
 .comment       0x0000006e       0x6f /home/dexheimere/Firmware/build_px4fmu-v2_lpe/px4io-v2/NuttX/nuttx-export/libs/libnuttx.a(sched-sched_getfiles.o)
 .comment       0x0000006e       0x6f /home/dexheimere/Firmware/build_px4fmu-v2_lpe/px4io-v2/NuttX/nuttx-export/libs/libnuttx.a(sched-sem_post.o)
 .comment       0x0000006e       0x6f /home/dexheimere/Firmware/build_px4fmu-v2_lpe/px4io-v2/NuttX/nuttx-export/libs/libnuttx.a(sched-sem_trywait.o)
 .comment       0x0000006e       0x6f /home/dexheimere/Firmware/build_px4fmu-v2_lpe/px4io-v2/NuttX/nuttx-export/libs/libnuttx.a(sched-sem_wait.o)
 .comment       0x0000006e       0x6f /home/dexheimere/Firmware/build_px4fmu-v2_lpe/px4io-v2/NuttX/nuttx-export/libs/libnuttx.a(sched-task_exithook.o)
 .comment       0x0000006e       0x6f /home/dexheimere/Firmware/build_px4fmu-v2_lpe/px4io-v2/NuttX/nuttx-export/libs/libnuttx.a(sched-task_recover.o)
 .comment       0x0000006e       0x6f /home/dexheimere/Firmware/build_px4fmu-v2_lpe/px4io-v2/NuttX/nuttx-export/libs/libnuttx.a(sched-wd_cancel.o)
 .comment       0x0000006e       0x6f /home/dexheimere/Firmware/build_px4fmu-v2_lpe/px4io-v2/NuttX/nuttx-export/libs/libnuttx.a(sched-wd_delete.o)
 .comment       0x0000006e       0x6f /home/dexheimere/Firmware/build_px4fmu-v2_lpe/px4io-v2/NuttX/nuttx-export/libs/libnuttx.a(sched-wd_initialize.o)
 .comment       0x0000006e       0x6f /home/dexheimere/Firmware/build_px4fmu-v2_lpe/px4io-v2/NuttX/nuttx-export/libs/libnuttx.a(c-dq_addfirst.o)
 .comment       0x0000006e       0x6f /home/dexheimere/Firmware/build_px4fmu-v2_lpe/px4io-v2/NuttX/nuttx-export/libs/libnuttx.a(c-lib_cfgetspeed.o)
 .comment       0x0000006e       0x6f /home/dexheimere/Firmware/build_px4fmu-v2_lpe/px4io-v2/NuttX/nuttx-export/libs/libnuttx.a(c-lib_checkbase.o)
 .comment       0x0000006e       0x6f /home/dexheimere/Firmware/build_px4fmu-v2_lpe/px4io-v2/NuttX/nuttx-export/libs/libnuttx.a(c-lib_isbasedigit.o)
 .comment       0x0000006e       0x6f /home/dexheimere/Firmware/build_px4fmu-v2_lpe/px4io-v2/NuttX/nuttx-export/libs/libnuttx.a(c-lib_libvsprintf.o)
 .comment       0x0000006e       0x6f /home/dexheimere/Firmware/build_px4fmu-v2_lpe/px4io-v2/NuttX/nuttx-export/libs/libnuttx.a(c-lib_lowoutstream.o)
 .comment       0x0000006e       0x6f /home/dexheimere/Firmware/build_px4fmu-v2_lpe/px4io-v2/NuttX/nuttx-export/libs/libnuttx.a(c-lib_memoutstream.o)
 .comment       0x0000006e       0x6f /home/dexheimere/Firmware/build_px4fmu-v2_lpe/px4io-v2/NuttX/nuttx-export/libs/libnuttx.a(c-lib_nulloutstream.o)
 .comment       0x0000006e       0x6f /home/dexheimere/Firmware/build_px4fmu-v2_lpe/px4io-v2/NuttX/nuttx-export/libs/libnuttx.a(c-lib_rawoutstream.o)
 .comment       0x0000006e       0x6f /home/dexheimere/Firmware/build_px4fmu-v2_lpe/px4io-v2/NuttX/nuttx-export/libs/libnuttx.a(c-lib_skipspace.o)
 .comment       0x0000006e       0x6f /home/dexheimere/Firmware/build_px4fmu-v2_lpe/px4io-v2/NuttX/nuttx-export/libs/libnuttx.a(c-lib_strcpy.o)
 .comment       0x0000006e       0x6f /home/dexheimere/Firmware/build_px4fmu-v2_lpe/px4io-v2/NuttX/nuttx-export/libs/libnuttx.a(c-lib_strlen.o)
 .comment       0x0000006e       0x6f /home/dexheimere/Firmware/build_px4fmu-v2_lpe/px4io-v2/NuttX/nuttx-export/libs/libnuttx.a(c-sem_init.o)
 .comment       0x0000006e       0x6f /home/dexheimere/Firmware/build_px4fmu-v2_lpe/px4io-v2/NuttX/nuttx-export/libs/libnuttx.a(c-sq_remafter.o)
 .comment       0x0000006e       0x6f /home/dexheimere/Firmware/build_px4fmu-v2_lpe/px4io-v2/NuttX/nuttx-export/libs/libnuttx.a(c-sq_remfirst.o)
 .comment       0x0000006e       0x6f /home/dexheimere/Firmware/build_px4fmu-v2_lpe/px4io-v2/NuttX/nuttx-export/libs/libnuttx.a(mm-mm_addfreechunk.o)
 .comment       0x0000006e       0x6f /home/dexheimere/Firmware/build_px4fmu-v2_lpe/px4io-v2/NuttX/nuttx-export/libs/libnuttx.a(mm-mm_initialize.o)
 .comment       0x0000006e       0x6f /home/dexheimere/Firmware/build_px4fmu-v2_lpe/px4io-v2/NuttX/nuttx-export/libs/libnuttx.a(arch-stm32_allocateheap.o)
 .comment       0x0000006e       0x6f /home/dexheimere/Firmware/build_px4fmu-v2_lpe/px4io-v2/NuttX/nuttx-export/libs/libnuttx.a(arch-stm32_idle.o)
 .comment       0x0000006e       0x6f /home/dexheimere/Firmware/build_px4fmu-v2_lpe/px4io-v2/NuttX/nuttx-export/libs/libnuttx.a(arch-stm32_lowputc.o)
 .comment       0x0000006e       0x6f /home/dexheimere/Firmware/build_px4fmu-v2_lpe/px4io-v2/NuttX/nuttx-export/libs/libnuttx.a(arch-stm32_rcc.o)
 .comment       0x0000006e       0x6f /home/dexheimere/Firmware/build_px4fmu-v2_lpe/px4io-v2/NuttX/nuttx-export/libs/libnuttx.a(arch-up_blocktask.o)
 .comment       0x0000006e       0x6f /home/dexheimere/Firmware/build_px4fmu-v2_lpe/px4io-v2/NuttX/nuttx-export/libs/libnuttx.a(arch-up_copystate.o)
 .comment       0x0000006e       0x6f /home/dexheimere/Firmware/build_px4fmu-v2_lpe/px4io-v2/NuttX/nuttx-export/libs/libnuttx.a(arch-up_exit.o)
 .comment       0x0000006e       0x6f /home/dexheimere/Firmware/build_px4fmu-v2_lpe/px4io-v2/NuttX/nuttx-export/libs/libnuttx.a(arch-up_initialize.o)
 .comment       0x0000006e       0x6f /home/dexheimere/Firmware/build_px4fmu-v2_lpe/px4io-v2/NuttX/nuttx-export/libs/libnuttx.a(arch-up_initialstate.o)
 .comment       0x0000006e       0x6f /home/dexheimere/Firmware/build_px4fmu-v2_lpe/px4io-v2/NuttX/nuttx-export/libs/libnuttx.a(arch-up_interruptcontext.o)
 .comment       0x0000006e       0x6f /home/dexheimere/Firmware/build_px4fmu-v2_lpe/px4io-v2/NuttX/nuttx-export/libs/libnuttx.a(arch-up_mdelay.o)
 .comment       0x0000006e       0x6f /home/dexheimere/Firmware/build_px4fmu-v2_lpe/px4io-v2/NuttX/nuttx-export/libs/libnuttx.a(arch-up_unblocktask.o)
 .comment       0x0000006e       0x6f /home/dexheimere/Firmware/build_px4fmu-v2_lpe/px4io-v2/NuttX/nuttx-export/libs/libnuttx.a(fs-fs_files.o)
 .comment       0x0000006e       0x6f /home/dexheimere/Firmware/build_px4fmu-v2_lpe/px4io-v2/NuttX/nuttx-export/libs/libnuttx.a(fs-fs_inodeaddref.o)
 .comment       0x0000006e       0x6f /home/dexheimere/Firmware/build_px4fmu-v2_lpe/px4io-v2/NuttX/nuttx-export/libs/libnuttx.a(fs-fs_inodefind.o)
 .comment       0x0000006e       0x6f /home/dexheimere/Firmware/build_px4fmu-v2_lpe/px4io-v2/NuttX/nuttx-export/libs/libnuttx.a(fs-fs_inode.o)
 .comment       0x0000006e       0x6f /home/dexheimere/Firmware/build_px4fmu-v2_lpe/px4io-v2/NuttX/nuttx-export/libs/libnuttx.a(fs-fs_inoderelease.o)
 .comment       0x0000006e       0x6f /home/dexheimere/Firmware/build_px4fmu-v2_lpe/px4io-v2/NuttX/nuttx-export/libs/libnuttx.a(fs-fs_registerdriver.o)
 .comment       0x0000006e       0x6f /home/dexheimere/Firmware/build_px4fmu-v2_lpe/px4io-v2/NuttX/nuttx-export/libs/libnuttx.a(sched-group_create.o)
 .comment       0x0000006e       0x6f /home/dexheimere/Firmware/build_px4fmu-v2_lpe/px4io-v2/NuttX/nuttx-export/libs/libnuttx.a(sched-group_leave.o)
 .comment       0x0000006e       0x6f /home/dexheimere/Firmware/build_px4fmu-v2_lpe/px4io-v2/NuttX/nuttx-export/libs/libnuttx.a(sched-group_setupidlefiles.o)
 .comment       0x0000006e       0x6f /home/dexheimere/Firmware/build_px4fmu-v2_lpe/px4io-v2/NuttX/nuttx-export/libs/libnuttx.a(sched-os_bringup.o)
 .comment       0x0000006e       0x6f /home/dexheimere/Firmware/build_px4fmu-v2_lpe/px4io-v2/NuttX/nuttx-export/libs/libnuttx.a(sched-sched_addblocked.o)
 .comment       0x0000006e       0x6f /home/dexheimere/Firmware/build_px4fmu-v2_lpe/px4io-v2/NuttX/nuttx-export/libs/libnuttx.a(sched-sched_addprioritized.o)
 .comment       0x0000006e       0x6f /home/dexheimere/Firmware/build_px4fmu-v2_lpe/px4io-v2/NuttX/nuttx-export/libs/libnuttx.a(sched-sched_addreadytorun.o)
 .comment       0x0000006e       0x6f /home/dexheimere/Firmware/build_px4fmu-v2_lpe/px4io-v2/NuttX/nuttx-export/libs/libnuttx.a(sched-sched_free.o)
 .comment       0x0000006e       0x6f /home/dexheimere/Firmware/build_px4fmu-v2_lpe/px4io-v2/NuttX/nuttx-export/libs/libnuttx.a(sched-sched_mergepending.o)
 .comment       0x0000006e       0x6f /home/dexheimere/Firmware/build_px4fmu-v2_lpe/px4io-v2/NuttX/nuttx-export/libs/libnuttx.a(sched-sched_removeblocked.o)
 .comment       0x0000006e       0x6f /home/dexheimere/Firmware/build_px4fmu-v2_lpe/px4io-v2/NuttX/nuttx-export/libs/libnuttx.a(sched-sched_removereadytorun.o)
 .comment       0x0000006e       0x6f /home/dexheimere/Firmware/build_px4fmu-v2_lpe/px4io-v2/NuttX/nuttx-export/libs/libnuttx.a(sched-sem_destroy.o)
 .comment       0x0000006e       0x6f /home/dexheimere/Firmware/build_px4fmu-v2_lpe/px4io-v2/NuttX/nuttx-export/libs/libnuttx.a(sched-task_create.o)
 .comment       0x0000006e       0x6f /home/dexheimere/Firmware/build_px4fmu-v2_lpe/px4io-v2/NuttX/nuttx-export/libs/libnuttx.a(sched-task_exit.o)
 .comment       0x0000006e       0x6f /home/dexheimere/Firmware/build_px4fmu-v2_lpe/px4io-v2/NuttX/nuttx-export/libs/libnuttx.a(sched-task_setup.o)
 .comment       0x0000006e       0x6f /home/dexheimere/Firmware/build_px4fmu-v2_lpe/px4io-v2/NuttX/nuttx-export/libs/libnuttx.a(sched-task_start.o)
 .comment       0x0000006e       0x6f /home/dexheimere/Firmware/build_px4fmu-v2_lpe/px4io-v2/NuttX/nuttx-export/libs/libnuttx.a(sched-task_terminate.o)
 .comment       0x0000006e       0x6f /home/dexheimere/Firmware/build_px4fmu-v2_lpe/px4io-v2/NuttX/nuttx-export/libs/libnuttx.a(c-dq_addlast.o)
 .comment       0x0000006e       0x6f /home/dexheimere/Firmware/build_px4fmu-v2_lpe/px4io-v2/NuttX/nuttx-export/libs/libnuttx.a(c-dq_rem.o)
 .comment       0x0000006e       0x6f /home/dexheimere/Firmware/build_px4fmu-v2_lpe/px4io-v2/NuttX/nuttx-export/libs/libnuttx.a(c-lib_strdup.o)
 .comment       0x0000006e       0x6f /home/dexheimere/Firmware/build_px4fmu-v2_lpe/px4io-v2/NuttX/nuttx-export/libs/libnuttx.a(arch-stm32_timerisr.o)
 .comment       0x0000006e       0x6f /home/dexheimere/Firmware/build_px4fmu-v2_lpe/px4io-v2/NuttX/nuttx-export/libs/libnuttx.a(arch-up_createstack.o)
 .comment       0x0000006e       0x6f /home/dexheimere/Firmware/build_px4fmu-v2_lpe/px4io-v2/NuttX/nuttx-export/libs/libnuttx.a(arch-up_doirq.o)
 .comment       0x0000006e       0x6f /home/dexheimere/Firmware/build_px4fmu-v2_lpe/px4io-v2/NuttX/nuttx-export/libs/libnuttx.a(arch-up_releasestack.o)
 .comment       0x0000006e       0x6f /home/dexheimere/Firmware/build_px4fmu-v2_lpe/px4io-v2/NuttX/nuttx-export/libs/libnuttx.a(fs-fs_close.o)
 .comment       0x0000006e       0x6f /home/dexheimere/Firmware/build_px4fmu-v2_lpe/px4io-v2/NuttX/nuttx-export/libs/libnuttx.a(fs-fs_filedup2.o)
 .comment       0x0000006e       0x6f /home/dexheimere/Firmware/build_px4fmu-v2_lpe/px4io-v2/NuttX/nuttx-export/libs/libnuttx.a(fs-fs_inodereserve.o)
 .comment       0x0000006e       0x6f /home/dexheimere/Firmware/build_px4fmu-v2_lpe/px4io-v2/NuttX/nuttx-export/libs/libnuttx.a(sched-group_setuptaskfiles.o)
 .comment       0x0000006e       0x6f /home/dexheimere/Firmware/build_px4fmu-v2_lpe/px4io-v2/NuttX/nuttx-export/libs/libnuttx.a(sched-irq_dispatch.o)
 .comment       0x0000006e       0x6f /home/dexheimere/Firmware/build_px4fmu-v2_lpe/px4io-v2/NuttX/nuttx-export/libs/libnuttx.a(sched-sched_gettcb.o)
 .comment       0x0000006e       0x6f /home/dexheimere/Firmware/build_px4fmu-v2_lpe/px4io-v2/NuttX/nuttx-export/libs/libnuttx.a(sched-sched_lock.o)
 .comment       0x0000006e       0x6f /home/dexheimere/Firmware/build_px4fmu-v2_lpe/px4io-v2/NuttX/nuttx-export/libs/libnuttx.a(sched-sched_processtimer.o)
 .comment       0x0000006e       0x6f /home/dexheimere/Firmware/build_px4fmu-v2_lpe/px4io-v2/NuttX/nuttx-export/libs/libnuttx.a(sched-sched_releasetcb.o)
 .comment       0x0000006e       0x6f /home/dexheimere/Firmware/build_px4fmu-v2_lpe/px4io-v2/NuttX/nuttx-export/libs/libnuttx.a(sched-sched_unlock.o)
 .comment       0x0000006e       0x6f /home/dexheimere/Firmware/build_px4fmu-v2_lpe/px4io-v2/NuttX/nuttx-export/libs/libnuttx.a(sched-task_activate.o)
 .comment       0x0000006e       0x6f /home/dexheimere/Firmware/build_px4fmu-v2_lpe/px4io-v2/NuttX/nuttx-export/libs/libnuttx.a(arch-up_releasepending.o)

.ARM.attributes
                0x00000000       0x31
 .ARM.attributes
                0x00000000       0x2f src/modules/px4iofirmware/CMakeFiles/px4io-v2.dir/adc.c.obj
 .ARM.attributes
                0x0000002f       0x2f src/modules/px4iofirmware/CMakeFiles/px4io-v2.dir/controls.c.obj
 .ARM.attributes
                0x0000005e       0x2f src/modules/px4iofirmware/CMakeFiles/px4io-v2.dir/px4io.c.obj
 .ARM.attributes
                0x0000008d       0x2f src/modules/px4iofirmware/CMakeFiles/px4io-v2.dir/registers.c.obj
 .ARM.attributes
                0x000000bc       0x2f src/modules/px4iofirmware/CMakeFiles/px4io-v2.dir/safety.c.obj
 .ARM.attributes
                0x000000eb       0x2f src/modules/px4iofirmware/CMakeFiles/px4io-v2.dir/__/systemlib/up_cxxinitialize.c.obj
 .ARM.attributes
                0x0000011a       0x2f src/modules/px4iofirmware/CMakeFiles/px4io-v2.dir/__/systemlib/perf_counter.c.obj
 .ARM.attributes
                0x00000149       0x2f src/modules/px4iofirmware/CMakeFiles/px4io-v2.dir/mixer.cpp.obj
 .ARM.attributes
                0x00000178       0x2f src/modules/px4iofirmware/CMakeFiles/px4io-v2.dir/__/systemlib/mixer/mixer.cpp.obj
 .ARM.attributes
                0x000001a7       0x2f src/modules/px4iofirmware/CMakeFiles/px4io-v2.dir/__/systemlib/mixer/mixer_group.cpp.obj
 .ARM.attributes
                0x000001d6       0x2f src/modules/px4iofirmware/CMakeFiles/px4io-v2.dir/__/systemlib/mixer/mixer_multirotor.cpp.obj
 .ARM.attributes
                0x00000205       0x2f src/modules/px4iofirmware/CMakeFiles/px4io-v2.dir/__/systemlib/mixer/mixer_simple.cpp.obj
 .ARM.attributes
                0x00000234       0x2f src/modules/px4iofirmware/CMakeFiles/px4io-v2.dir/__/systemlib/pwm_limit/pwm_limit.c.obj
 .ARM.attributes
                0x00000263       0x2f src/modules/px4iofirmware/CMakeFiles/px4io-v2.dir/__/__/lib/rc/st24.c.obj
 .ARM.attributes
                0x00000292       0x2f src/modules/px4iofirmware/CMakeFiles/px4io-v2.dir/__/__/lib/rc/sumd.c.obj
 .ARM.attributes
                0x000002c1       0x2f src/modules/px4iofirmware/CMakeFiles/px4io-v2.dir/__/__/lib/rc/sbus.c.obj
 .ARM.attributes
                0x000002f0       0x2f src/modules/px4iofirmware/CMakeFiles/px4io-v2.dir/__/__/lib/rc/dsm.c.obj
 .ARM.attributes
                0x0000031f       0x2f src/modules/px4iofirmware/CMakeFiles/px4io-v2.dir/__/__/drivers/stm32/drv_hrt.c.obj
 .ARM.attributes
                0x0000034e       0x2f src/modules/px4iofirmware/CMakeFiles/px4io-v2.dir/__/__/drivers/stm32/drv_io_timer.c.obj
 .ARM.attributes
                0x0000037d       0x2f src/modules/px4iofirmware/CMakeFiles/px4io-v2.dir/__/__/drivers/stm32/drv_pwm_servo.c.obj
 .ARM.attributes
                0x000003ac       0x2f src/modules/px4iofirmware/CMakeFiles/px4io-v2.dir/__/__/drivers/boards/px4io-v2/px4io_init.c.obj
 .ARM.attributes
                0x000003db       0x2f src/modules/px4iofirmware/CMakeFiles/px4io-v2.dir/__/__/drivers/boards/px4io-v2/px4io_timer_config.c.obj
 .ARM.attributes
                0x0000040a       0x2f src/modules/px4iofirmware/CMakeFiles/px4io-v2.dir/serial.c.obj
 .ARM.attributes
                0x00000439       0x2f src/modules/px4iofirmware/CMakeFiles/px4io-v2.dir/__/systemlib/hx_stream.c.obj
 .ARM.attributes
                0x00000468       0x2f /home/dexheimere/Firmware/build_px4fmu-v2_lpe/px4io-v2/NuttX/nuttx-export/libs/libnuttx.a(sched-irq_attach.o)
 .ARM.attributes
                0x00000497       0x2f /home/dexheimere/Firmware/build_px4fmu-v2_lpe/px4io-v2/NuttX/nuttx-export/libs/libnuttx.a(sched-irq_initialize.o)
 .ARM.attributes
                0x000004c6       0x2f /home/dexheimere/Firmware/build_px4fmu-v2_lpe/px4io-v2/NuttX/nuttx-export/libs/libnuttx.a(sched-irq_unexpectedisr.o)
 .ARM.attributes
                0x000004f5       0x2f /home/dexheimere/Firmware/build_px4fmu-v2_lpe/px4io-v2/NuttX/nuttx-export/libs/libnuttx.a(c-lib_abort.o)
 .ARM.attributes
                0x00000524       0x2f /home/dexheimere/Firmware/build_px4fmu-v2_lpe/px4io-v2/NuttX/nuttx-export/libs/libnuttx.a(c-lib_cfsetspeed.o)
 .ARM.attributes
                0x00000553       0x2f /home/dexheimere/Firmware/build_px4fmu-v2_lpe/px4io-v2/NuttX/nuttx-export/libs/libnuttx.a(c-lib_crc32.o)
 .ARM.attributes
                0x00000582       0x2f /home/dexheimere/Firmware/build_px4fmu-v2_lpe/px4io-v2/NuttX/nuttx-export/libs/libnuttx.a(c-lib_dprintf.o)
 .ARM.attributes
                0x000005b1       0x2f /home/dexheimere/Firmware/build_px4fmu-v2_lpe/px4io-v2/NuttX/nuttx-export/libs/libnuttx.a(c-lib_lowsyslog.o)
 .ARM.attributes
                0x000005e0       0x2f /home/dexheimere/Firmware/build_px4fmu-v2_lpe/px4io-v2/NuttX/nuttx-export/libs/libnuttx.a(c-lib_memchr.o)
 .ARM.attributes
                0x0000060f       0x2f /home/dexheimere/Firmware/build_px4fmu-v2_lpe/px4io-v2/NuttX/nuttx-export/libs/libnuttx.a(c-lib_memcpy.o)
 .ARM.attributes
                0x0000063e       0x2f /home/dexheimere/Firmware/build_px4fmu-v2_lpe/px4io-v2/NuttX/nuttx-export/libs/libnuttx.a(c-lib_memset.o)
 .ARM.attributes
                0x0000066d       0x2f /home/dexheimere/Firmware/build_px4fmu-v2_lpe/px4io-v2/NuttX/nuttx-export/libs/libnuttx.a(c-lib_printf.o)
 .ARM.attributes
                0x0000069c       0x2f /home/dexheimere/Firmware/build_px4fmu-v2_lpe/px4io-v2/NuttX/nuttx-export/libs/libnuttx.a(c-lib_sscanf.o)
 .ARM.attributes
                0x000006cb       0x2f /home/dexheimere/Firmware/build_px4fmu-v2_lpe/px4io-v2/NuttX/nuttx-export/libs/libnuttx.a(c-lib_strchr.o)
 .ARM.attributes
                0x000006fa       0x2f /home/dexheimere/Firmware/build_px4fmu-v2_lpe/px4io-v2/NuttX/nuttx-export/libs/libnuttx.a(c-lib_strcmp.o)
 .ARM.attributes
                0x00000729       0x2f /home/dexheimere/Firmware/build_px4fmu-v2_lpe/px4io-v2/NuttX/nuttx-export/libs/libnuttx.a(c-lib_strcspn.o)
 .ARM.attributes
                0x00000758       0x2f /home/dexheimere/Firmware/build_px4fmu-v2_lpe/px4io-v2/NuttX/nuttx-export/libs/libnuttx.a(c-lib_strncpy.o)
 .ARM.attributes
                0x00000787       0x2f /home/dexheimere/Firmware/build_px4fmu-v2_lpe/px4io-v2/NuttX/nuttx-export/libs/libnuttx.a(c-lib_strtol.o)
 .ARM.attributes
                0x000007b6       0x2f /home/dexheimere/Firmware/build_px4fmu-v2_lpe/px4io-v2/NuttX/nuttx-export/libs/libnuttx.a(c-lib_strtoul.o)
 .ARM.attributes
                0x000007e5       0x2f /home/dexheimere/Firmware/build_px4fmu-v2_lpe/px4io-v2/NuttX/nuttx-export/libs/libnuttx.a(c-lib_syslog.o)
 .ARM.attributes
                0x00000814       0x2f /home/dexheimere/Firmware/build_px4fmu-v2_lpe/px4io-v2/NuttX/nuttx-export/libs/libnuttx.a(c-lib_tcgetattr.o)
 .ARM.attributes
                0x00000843       0x2f /home/dexheimere/Firmware/build_px4fmu-v2_lpe/px4io-v2/NuttX/nuttx-export/libs/libnuttx.a(c-lib_tcsetattr.o)
 .ARM.attributes
                0x00000872       0x2f /home/dexheimere/Firmware/build_px4fmu-v2_lpe/px4io-v2/NuttX/nuttx-export/libs/libnuttx.a(c-lib_vdprintf.o)
 .ARM.attributes
                0x000008a1       0x2f /home/dexheimere/Firmware/build_px4fmu-v2_lpe/px4io-v2/NuttX/nuttx-export/libs/libnuttx.a(c-lib_vsnprintf.o)
 .ARM.attributes
                0x000008d0       0x2f /home/dexheimere/Firmware/build_px4fmu-v2_lpe/px4io-v2/NuttX/nuttx-export/libs/libnuttx.a(c-sq_addafter.o)
 .ARM.attributes
                0x000008ff       0x2f /home/dexheimere/Firmware/build_px4fmu-v2_lpe/px4io-v2/NuttX/nuttx-export/libs/libnuttx.a(c-sq_addfirst.o)
 .ARM.attributes
                0x0000092e       0x2f /home/dexheimere/Firmware/build_px4fmu-v2_lpe/px4io-v2/NuttX/nuttx-export/libs/libnuttx.a(c-sq_addlast.o)
 .ARM.attributes
                0x0000095d       0x2f /home/dexheimere/Firmware/build_px4fmu-v2_lpe/px4io-v2/NuttX/nuttx-export/libs/libnuttx.a(c-sq_rem.o)
 .ARM.attributes
                0x0000098c       0x2f /home/dexheimere/Firmware/build_px4fmu-v2_lpe/px4io-v2/NuttX/nuttx-export/libs/libnuttx.a(mm-mm_calloc.o)
 .ARM.attributes
                0x000009bb       0x2f /home/dexheimere/Firmware/build_px4fmu-v2_lpe/px4io-v2/NuttX/nuttx-export/libs/libnuttx.a(mm-mm_free.o)
 .ARM.attributes
                0x000009ea       0x2f /home/dexheimere/Firmware/build_px4fmu-v2_lpe/px4io-v2/NuttX/nuttx-export/libs/libnuttx.a(mm-mm_mallinfo.o)
 .ARM.attributes
                0x00000a19       0x2f /home/dexheimere/Firmware/build_px4fmu-v2_lpe/px4io-v2/NuttX/nuttx-export/libs/libnuttx.a(mm-mm_malloc.o)
 .ARM.attributes
                0x00000a48       0x2f /home/dexheimere/Firmware/build_px4fmu-v2_lpe/px4io-v2/NuttX/nuttx-export/libs/libnuttx.a(mm-mm_sem.o)
 .ARM.attributes
                0x00000a77       0x2f /home/dexheimere/Firmware/build_px4fmu-v2_lpe/px4io-v2/NuttX/nuttx-export/libs/libnuttx.a(mm-mm_size2ndx.o)
 .ARM.attributes
                0x00000aa6       0x2f /home/dexheimere/Firmware/build_px4fmu-v2_lpe/px4io-v2/NuttX/nuttx-export/libs/libnuttx.a(mm-mm_user.o)
 .ARM.attributes
                0x00000ad5       0x2f /home/dexheimere/Firmware/build_px4fmu-v2_lpe/px4io-v2/NuttX/nuttx-export/libs/libnuttx.a(mm-mm_zalloc.o)
 .ARM.attributes
                0x00000b04       0x2f /home/dexheimere/Firmware/build_px4fmu-v2_lpe/px4io-v2/NuttX/nuttx-export/libs/libnuttx.a(arch-stm32_dma.o)
 .ARM.attributes
                0x00000b33       0x2f /home/dexheimere/Firmware/build_px4fmu-v2_lpe/px4io-v2/NuttX/nuttx-export/libs/libnuttx.a(arch-stm32_gpio.o)
 .ARM.attributes
                0x00000b62       0x2f /home/dexheimere/Firmware/build_px4fmu-v2_lpe/px4io-v2/NuttX/nuttx-export/libs/libnuttx.a(arch-stm32_irq.o)
 .ARM.attributes
                0x00000b91       0x2f /home/dexheimere/Firmware/build_px4fmu-v2_lpe/px4io-v2/NuttX/nuttx-export/libs/libnuttx.a(arch-stm32_serial.o)
 .ARM.attributes
                0x00000bc0       0x2f /home/dexheimere/Firmware/build_px4fmu-v2_lpe/px4io-v2/NuttX/nuttx-export/libs/libnuttx.a(arch-stm32_start.o)
 .ARM.attributes
                0x00000bef       0x2f /home/dexheimere/Firmware/build_px4fmu-v2_lpe/px4io-v2/NuttX/nuttx-export/libs/libnuttx.a(arch-up_assert.o)
 .ARM.attributes
                0x00000c1e       0x2f /home/dexheimere/Firmware/build_px4fmu-v2_lpe/px4io-v2/NuttX/nuttx-export/libs/libnuttx.a(arch-up_hardfault.o)
 .ARM.attributes
                0x00000c4d       0x2f /home/dexheimere/Firmware/build_px4fmu-v2_lpe/px4io-v2/NuttX/nuttx-export/libs/libnuttx.a(arch-up_modifyreg32.o)
 .ARM.attributes
                0x00000c7c       0x2f /home/dexheimere/Firmware/build_px4fmu-v2_lpe/px4io-v2/NuttX/nuttx-export/libs/libnuttx.a(arch-up_svcall.o)
 .ARM.attributes
                0x00000cab       0x2f /home/dexheimere/Firmware/build_px4fmu-v2_lpe/px4io-v2/NuttX/nuttx-export/libs/libnuttx.a(arch-up_systemreset.o)
 .ARM.attributes
                0x00000cda       0x2f /home/dexheimere/Firmware/build_px4fmu-v2_lpe/px4io-v2/NuttX/nuttx-export/libs/libnuttx.a(arch-up_udelay.o)
 .ARM.attributes
                0x00000d09       0x2f /home/dexheimere/Firmware/build_px4fmu-v2_lpe/px4io-v2/NuttX/nuttx-export/libs/libnuttx.a(arch-up_vectors.o)
 .ARM.attributes
                0x00000d38       0x2f /home/dexheimere/Firmware/build_px4fmu-v2_lpe/px4io-v2/NuttX/nuttx-export/libs/libnuttx.a(cxx-libxx_cxa_atexit.o)
 .ARM.attributes
                0x00000d67       0x2f /home/dexheimere/Firmware/build_px4fmu-v2_lpe/px4io-v2/NuttX/nuttx-export/libs/libnuttx.a(cxx-libxx_cxapurevirtual.o)
 .ARM.attributes
                0x00000d96       0x2f /home/dexheimere/Firmware/build_px4fmu-v2_lpe/px4io-v2/NuttX/nuttx-export/libs/libnuttx.a(cxx-libxx_delete.o)
 .ARM.attributes
                0x00000dc5       0x2f /home/dexheimere/Firmware/build_px4fmu-v2_lpe/px4io-v2/NuttX/nuttx-export/libs/libnuttx.a(cxx-libxx_eabi_atexit.o)
 .ARM.attributes
                0x00000df4       0x2f /home/dexheimere/Firmware/build_px4fmu-v2_lpe/px4io-v2/NuttX/nuttx-export/libs/libnuttx.a(cxx-libxx_new.o)
 .ARM.attributes
                0x00000e23       0x2f /home/dexheimere/Firmware/build_px4fmu-v2_lpe/px4io-v2/NuttX/nuttx-export/libs/libnuttx.a(fs-fs_ioctl.o)
 .ARM.attributes
                0x00000e52       0x2f /home/dexheimere/Firmware/build_px4fmu-v2_lpe/px4io-v2/NuttX/nuttx-export/libs/libnuttx.a(fs-fs_open.o)
 .ARM.attributes
                0x00000e81       0x2f /home/dexheimere/Firmware/build_px4fmu-v2_lpe/px4io-v2/NuttX/nuttx-export/libs/libnuttx.a(fs-fs_read.o)
 .ARM.attributes
                0x00000eb0       0x2f /home/dexheimere/Firmware/build_px4fmu-v2_lpe/px4io-v2/NuttX/nuttx-export/libs/libnuttx.a(fs-fs_write.o)
 .ARM.attributes
                0x00000edf       0x2f /home/dexheimere/Firmware/build_px4fmu-v2_lpe/px4io-v2/NuttX/nuttx-export/libs/libnuttx.a(drivers-serialirq.o)
 .ARM.attributes
                0x00000f0e       0x2f /home/dexheimere/Firmware/build_px4fmu-v2_lpe/px4io-v2/NuttX/nuttx-export/libs/libnuttx.a(drivers-serial.o)
 .ARM.attributes
                0x00000f3d       0x2f /home/dexheimere/Firmware/build_px4fmu-v2_lpe/px4io-v2/NuttX/nuttx-export/libs/libnuttx.a(sched-errno_getptr.o)
 .ARM.attributes
                0x00000f6c       0x2f /home/dexheimere/Firmware/build_px4fmu-v2_lpe/px4io-v2/NuttX/nuttx-export/libs/libnuttx.a(sched-exit.o)
 .ARM.attributes
                0x00000f9b       0x2f /home/dexheimere/Firmware/build_px4fmu-v2_lpe/px4io-v2/NuttX/nuttx-export/libs/libnuttx.a(sched-getpid.o)
 .ARM.attributes
                0x00000fca       0x2f /home/dexheimere/Firmware/build_px4fmu-v2_lpe/px4io-v2/NuttX/nuttx-export/libs/libnuttx.a(sched-os_start.o)
 .ARM.attributes
                0x00000ff9       0x2f /home/dexheimere/Firmware/build_px4fmu-v2_lpe/px4io-v2/NuttX/nuttx-export/libs/libnuttx.a(sched-sched_garbage.o)
 .ARM.attributes
                0x00001028       0x2f /home/dexheimere/Firmware/build_px4fmu-v2_lpe/px4io-v2/NuttX/nuttx-export/libs/libnuttx.a(sched-sched_getfiles.o)
 .ARM.attributes
                0x00001057       0x2f /home/dexheimere/Firmware/build_px4fmu-v2_lpe/px4io-v2/NuttX/nuttx-export/libs/libnuttx.a(sched-sem_post.o)
 .ARM.attributes
                0x00001086       0x2f /home/dexheimere/Firmware/build_px4fmu-v2_lpe/px4io-v2/NuttX/nuttx-export/libs/libnuttx.a(sched-sem_trywait.o)
 .ARM.attributes
                0x000010b5       0x2f /home/dexheimere/Firmware/build_px4fmu-v2_lpe/px4io-v2/NuttX/nuttx-export/libs/libnuttx.a(sched-sem_wait.o)
 .ARM.attributes
                0x000010e4       0x2f /home/dexheimere/Firmware/build_px4fmu-v2_lpe/px4io-v2/NuttX/nuttx-export/libs/libnuttx.a(sched-task_exithook.o)
 .ARM.attributes
                0x00001113       0x2f /home/dexheimere/Firmware/build_px4fmu-v2_lpe/px4io-v2/NuttX/nuttx-export/libs/libnuttx.a(sched-task_recover.o)
 .ARM.attributes
                0x00001142       0x2f /home/dexheimere/Firmware/build_px4fmu-v2_lpe/px4io-v2/NuttX/nuttx-export/libs/libnuttx.a(sched-wd_cancel.o)
 .ARM.attributes
                0x00001171       0x2f /home/dexheimere/Firmware/build_px4fmu-v2_lpe/px4io-v2/NuttX/nuttx-export/libs/libnuttx.a(sched-wd_delete.o)
 .ARM.attributes
                0x000011a0       0x2f /home/dexheimere/Firmware/build_px4fmu-v2_lpe/px4io-v2/NuttX/nuttx-export/libs/libnuttx.a(sched-wd_initialize.o)
 .ARM.attributes
                0x000011cf       0x2f /home/dexheimere/Firmware/build_px4fmu-v2_lpe/px4io-v2/NuttX/nuttx-export/libs/libnuttx.a(c-dq_addfirst.o)
 .ARM.attributes
                0x000011fe       0x2f /home/dexheimere/Firmware/build_px4fmu-v2_lpe/px4io-v2/NuttX/nuttx-export/libs/libnuttx.a(c-lib_cfgetspeed.o)
 .ARM.attributes
                0x0000122d       0x2f /home/dexheimere/Firmware/build_px4fmu-v2_lpe/px4io-v2/NuttX/nuttx-export/libs/libnuttx.a(c-lib_checkbase.o)
 .ARM.attributes
                0x0000125c       0x2f /home/dexheimere/Firmware/build_px4fmu-v2_lpe/px4io-v2/NuttX/nuttx-export/libs/libnuttx.a(c-lib_isbasedigit.o)
 .ARM.attributes
                0x0000128b       0x2f /home/dexheimere/Firmware/build_px4fmu-v2_lpe/px4io-v2/NuttX/nuttx-export/libs/libnuttx.a(c-lib_libvsprintf.o)
 .ARM.attributes
                0x000012ba       0x2f /home/dexheimere/Firmware/build_px4fmu-v2_lpe/px4io-v2/NuttX/nuttx-export/libs/libnuttx.a(c-lib_lowoutstream.o)
 .ARM.attributes
                0x000012e9       0x2f /home/dexheimere/Firmware/build_px4fmu-v2_lpe/px4io-v2/NuttX/nuttx-export/libs/libnuttx.a(c-lib_memoutstream.o)
 .ARM.attributes
                0x00001318       0x2f /home/dexheimere/Firmware/build_px4fmu-v2_lpe/px4io-v2/NuttX/nuttx-export/libs/libnuttx.a(c-lib_nulloutstream.o)
 .ARM.attributes
                0x00001347       0x2f /home/dexheimere/Firmware/build_px4fmu-v2_lpe/px4io-v2/NuttX/nuttx-export/libs/libnuttx.a(c-lib_rawoutstream.o)
 .ARM.attributes
                0x00001376       0x2f /home/dexheimere/Firmware/build_px4fmu-v2_lpe/px4io-v2/NuttX/nuttx-export/libs/libnuttx.a(c-lib_skipspace.o)
 .ARM.attributes
                0x000013a5       0x2f /home/dexheimere/Firmware/build_px4fmu-v2_lpe/px4io-v2/NuttX/nuttx-export/libs/libnuttx.a(c-lib_strcpy.o)
 .ARM.attributes
                0x000013d4       0x2f /home/dexheimere/Firmware/build_px4fmu-v2_lpe/px4io-v2/NuttX/nuttx-export/libs/libnuttx.a(c-lib_strlen.o)
 .ARM.attributes
                0x00001403       0x2f /home/dexheimere/Firmware/build_px4fmu-v2_lpe/px4io-v2/NuttX/nuttx-export/libs/libnuttx.a(c-sem_init.o)
 .ARM.attributes
                0x00001432       0x2f /home/dexheimere/Firmware/build_px4fmu-v2_lpe/px4io-v2/NuttX/nuttx-export/libs/libnuttx.a(c-sq_remafter.o)
 .ARM.attributes
                0x00001461       0x2f /home/dexheimere/Firmware/build_px4fmu-v2_lpe/px4io-v2/NuttX/nuttx-export/libs/libnuttx.a(c-sq_remfirst.o)
 .ARM.attributes
                0x00001490       0x2f /home/dexheimere/Firmware/build_px4fmu-v2_lpe/px4io-v2/NuttX/nuttx-export/libs/libnuttx.a(mm-mm_addfreechunk.o)
 .ARM.attributes
                0x000014bf       0x2f /home/dexheimere/Firmware/build_px4fmu-v2_lpe/px4io-v2/NuttX/nuttx-export/libs/libnuttx.a(mm-mm_initialize.o)
 .ARM.attributes
                0x000014ee       0x2f /home/dexheimere/Firmware/build_px4fmu-v2_lpe/px4io-v2/NuttX/nuttx-export/libs/libnuttx.a(arch-stm32_allocateheap.o)
 .ARM.attributes
                0x0000151d       0x2f /home/dexheimere/Firmware/build_px4fmu-v2_lpe/px4io-v2/NuttX/nuttx-export/libs/libnuttx.a(arch-stm32_idle.o)
 .ARM.attributes
                0x0000154c       0x2f /home/dexheimere/Firmware/build_px4fmu-v2_lpe/px4io-v2/NuttX/nuttx-export/libs/libnuttx.a(arch-stm32_lowputc.o)
 .ARM.attributes
                0x0000157b       0x2f /home/dexheimere/Firmware/build_px4fmu-v2_lpe/px4io-v2/NuttX/nuttx-export/libs/libnuttx.a(arch-stm32_rcc.o)
 .ARM.attributes
                0x000015aa       0x21 /home/dexheimere/Firmware/build_px4fmu-v2_lpe/px4io-v2/NuttX/nuttx-export/libs/libnuttx.a(arch-stm32_vectors.o)
 .ARM.attributes
                0x000015cb       0x2f /home/dexheimere/Firmware/build_px4fmu-v2_lpe/px4io-v2/NuttX/nuttx-export/libs/libnuttx.a(arch-up_blocktask.o)
 .ARM.attributes
                0x000015fa       0x2f /home/dexheimere/Firmware/build_px4fmu-v2_lpe/px4io-v2/NuttX/nuttx-export/libs/libnuttx.a(arch-up_copystate.o)
 .ARM.attributes
                0x00001629       0x21 /home/dexheimere/Firmware/build_px4fmu-v2_lpe/px4io-v2/NuttX/nuttx-export/libs/libnuttx.a(arch-up_exception.o)
 .ARM.attributes
                0x0000164a       0x2f /home/dexheimere/Firmware/build_px4fmu-v2_lpe/px4io-v2/NuttX/nuttx-export/libs/libnuttx.a(arch-up_exit.o)
 .ARM.attributes
                0x00001679       0x21 /home/dexheimere/Firmware/build_px4fmu-v2_lpe/px4io-v2/NuttX/nuttx-export/libs/libnuttx.a(arch-up_fullcontextrestore.o)
 .ARM.attributes
                0x0000169a       0x2f /home/dexheimere/Firmware/build_px4fmu-v2_lpe/px4io-v2/NuttX/nuttx-export/libs/libnuttx.a(arch-up_initialize.o)
 .ARM.attributes
                0x000016c9       0x2f /home/dexheimere/Firmware/build_px4fmu-v2_lpe/px4io-v2/NuttX/nuttx-export/libs/libnuttx.a(arch-up_initialstate.o)
 .ARM.attributes
                0x000016f8       0x2f /home/dexheimere/Firmware/build_px4fmu-v2_lpe/px4io-v2/NuttX/nuttx-export/libs/libnuttx.a(arch-up_interruptcontext.o)
 .ARM.attributes
                0x00001727       0x2f /home/dexheimere/Firmware/build_px4fmu-v2_lpe/px4io-v2/NuttX/nuttx-export/libs/libnuttx.a(arch-up_mdelay.o)
 .ARM.attributes
                0x00001756       0x21 /home/dexheimere/Firmware/build_px4fmu-v2_lpe/px4io-v2/NuttX/nuttx-export/libs/libnuttx.a(arch-up_switchcontext.o)
 .ARM.attributes
                0x00001777       0x2f /home/dexheimere/Firmware/build_px4fmu-v2_lpe/px4io-v2/NuttX/nuttx-export/libs/libnuttx.a(arch-up_unblocktask.o)
 .ARM.attributes
                0x000017a6       0x2f /home/dexheimere/Firmware/build_px4fmu-v2_lpe/px4io-v2/NuttX/nuttx-export/libs/libnuttx.a(fs-fs_files.o)
 .ARM.attributes
                0x000017d5       0x2f /home/dexheimere/Firmware/build_px4fmu-v2_lpe/px4io-v2/NuttX/nuttx-export/libs/libnuttx.a(fs-fs_inodeaddref.o)
 .ARM.attributes
                0x00001804       0x2f /home/dexheimere/Firmware/build_px4fmu-v2_lpe/px4io-v2/NuttX/nuttx-export/libs/libnuttx.a(fs-fs_inodefind.o)
 .ARM.attributes
                0x00001833       0x2f /home/dexheimere/Firmware/build_px4fmu-v2_lpe/px4io-v2/NuttX/nuttx-export/libs/libnuttx.a(fs-fs_inode.o)
 .ARM.attributes
                0x00001862       0x2f /home/dexheimere/Firmware/build_px4fmu-v2_lpe/px4io-v2/NuttX/nuttx-export/libs/libnuttx.a(fs-fs_inoderelease.o)
 .ARM.attributes
                0x00001891       0x2f /home/dexheimere/Firmware/build_px4fmu-v2_lpe/px4io-v2/NuttX/nuttx-export/libs/libnuttx.a(fs-fs_registerdriver.o)
 .ARM.attributes
                0x000018c0       0x2f /home/dexheimere/Firmware/build_px4fmu-v2_lpe/px4io-v2/NuttX/nuttx-export/libs/libnuttx.a(sched-group_create.o)
 .ARM.attributes
                0x000018ef       0x2f /home/dexheimere/Firmware/build_px4fmu-v2_lpe/px4io-v2/NuttX/nuttx-export/libs/libnuttx.a(sched-group_leave.o)
 .ARM.attributes
                0x0000191e       0x2f /home/dexheimere/Firmware/build_px4fmu-v2_lpe/px4io-v2/NuttX/nuttx-export/libs/libnuttx.a(sched-group_setupidlefiles.o)
 .ARM.attributes
                0x0000194d       0x2f /home/dexheimere/Firmware/build_px4fmu-v2_lpe/px4io-v2/NuttX/nuttx-export/libs/libnuttx.a(sched-os_bringup.o)
 .ARM.attributes
                0x0000197c       0x2f /home/dexheimere/Firmware/build_px4fmu-v2_lpe/px4io-v2/NuttX/nuttx-export/libs/libnuttx.a(sched-sched_addblocked.o)
 .ARM.attributes
                0x000019ab       0x2f /home/dexheimere/Firmware/build_px4fmu-v2_lpe/px4io-v2/NuttX/nuttx-export/libs/libnuttx.a(sched-sched_addprioritized.o)
 .ARM.attributes
                0x000019da       0x2f /home/dexheimere/Firmware/build_px4fmu-v2_lpe/px4io-v2/NuttX/nuttx-export/libs/libnuttx.a(sched-sched_addreadytorun.o)
 .ARM.attributes
                0x00001a09       0x2f /home/dexheimere/Firmware/build_px4fmu-v2_lpe/px4io-v2/NuttX/nuttx-export/libs/libnuttx.a(sched-sched_free.o)
 .ARM.attributes
                0x00001a38       0x2f /home/dexheimere/Firmware/build_px4fmu-v2_lpe/px4io-v2/NuttX/nuttx-export/libs/libnuttx.a(sched-sched_mergepending.o)
 .ARM.attributes
                0x00001a67       0x2f /home/dexheimere/Firmware/build_px4fmu-v2_lpe/px4io-v2/NuttX/nuttx-export/libs/libnuttx.a(sched-sched_removeblocked.o)
 .ARM.attributes
                0x00001a96       0x2f /home/dexheimere/Firmware/build_px4fmu-v2_lpe/px4io-v2/NuttX/nuttx-export/libs/libnuttx.a(sched-sched_removereadytorun.o)
 .ARM.attributes
                0x00001ac5       0x2f /home/dexheimere/Firmware/build_px4fmu-v2_lpe/px4io-v2/NuttX/nuttx-export/libs/libnuttx.a(sched-sem_destroy.o)
 .ARM.attributes
                0x00001af4       0x2f /home/dexheimere/Firmware/build_px4fmu-v2_lpe/px4io-v2/NuttX/nuttx-export/libs/libnuttx.a(sched-task_create.o)
 .ARM.attributes
                0x00001b23       0x2f /home/dexheimere/Firmware/build_px4fmu-v2_lpe/px4io-v2/NuttX/nuttx-export/libs/libnuttx.a(sched-task_exit.o)
 .ARM.attributes
                0x00001b52       0x2f /home/dexheimere/Firmware/build_px4fmu-v2_lpe/px4io-v2/NuttX/nuttx-export/libs/libnuttx.a(sched-task_setup.o)
 .ARM.attributes
                0x00001b81       0x2f /home/dexheimere/Firmware/build_px4fmu-v2_lpe/px4io-v2/NuttX/nuttx-export/libs/libnuttx.a(sched-task_start.o)
 .ARM.attributes
                0x00001bb0       0x2f /home/dexheimere/Firmware/build_px4fmu-v2_lpe/px4io-v2/NuttX/nuttx-export/libs/libnuttx.a(sched-task_terminate.o)
 .ARM.attributes
                0x00001bdf       0x2f /home/dexheimere/Firmware/build_px4fmu-v2_lpe/px4io-v2/NuttX/nuttx-export/libs/libnuttx.a(c-dq_addlast.o)
 .ARM.attributes
                0x00001c0e       0x2f /home/dexheimere/Firmware/build_px4fmu-v2_lpe/px4io-v2/NuttX/nuttx-export/libs/libnuttx.a(c-dq_rem.o)
 .ARM.attributes
                0x00001c3d       0x2f /home/dexheimere/Firmware/build_px4fmu-v2_lpe/px4io-v2/NuttX/nuttx-export/libs/libnuttx.a(c-lib_strdup.o)
 .ARM.attributes
                0x00001c6c       0x2f /home/dexheimere/Firmware/build_px4fmu-v2_lpe/px4io-v2/NuttX/nuttx-export/libs/libnuttx.a(arch-stm32_timerisr.o)
 .ARM.attributes
                0x00001c9b       0x2f /home/dexheimere/Firmware/build_px4fmu-v2_lpe/px4io-v2/NuttX/nuttx-export/libs/libnuttx.a(arch-up_createstack.o)
 .ARM.attributes
                0x00001cca       0x2f /home/dexheimere/Firmware/build_px4fmu-v2_lpe/px4io-v2/NuttX/nuttx-export/libs/libnuttx.a(arch-up_doirq.o)
 .ARM.attributes
                0x00001cf9       0x2f /home/dexheimere/Firmware/build_px4fmu-v2_lpe/px4io-v2/NuttX/nuttx-export/libs/libnuttx.a(arch-up_releasestack.o)
 .ARM.attributes
                0x00001d28       0x2f /home/dexheimere/Firmware/build_px4fmu-v2_lpe/px4io-v2/NuttX/nuttx-export/libs/libnuttx.a(fs-fs_close.o)
 .ARM.attributes
                0x00001d57       0x2f /home/dexheimere/Firmware/build_px4fmu-v2_lpe/px4io-v2/NuttX/nuttx-export/libs/libnuttx.a(fs-fs_filedup2.o)
 .ARM.attributes
                0x00001d86       0x2f /home/dexheimere/Firmware/build_px4fmu-v2_lpe/px4io-v2/NuttX/nuttx-export/libs/libnuttx.a(fs-fs_inodereserve.o)
 .ARM.attributes
                0x00001db5       0x2f /home/dexheimere/Firmware/build_px4fmu-v2_lpe/px4io-v2/NuttX/nuttx-export/libs/libnuttx.a(sched-group_setuptaskfiles.o)
 .ARM.attributes
                0x00001de4       0x2f /home/dexheimere/Firmware/build_px4fmu-v2_lpe/px4io-v2/NuttX/nuttx-export/libs/libnuttx.a(sched-irq_dispatch.o)
 .ARM.attributes
                0x00001e13       0x2f /home/dexheimere/Firmware/build_px4fmu-v2_lpe/px4io-v2/NuttX/nuttx-export/libs/libnuttx.a(sched-sched_gettcb.o)
 .ARM.attributes
                0x00001e42       0x2f /home/dexheimere/Firmware/build_px4fmu-v2_lpe/px4io-v2/NuttX/nuttx-export/libs/libnuttx.a(sched-sched_lock.o)
 .ARM.attributes
                0x00001e71       0x2f /home/dexheimere/Firmware/build_px4fmu-v2_lpe/px4io-v2/NuttX/nuttx-export/libs/libnuttx.a(sched-sched_processtimer.o)
 .ARM.attributes
                0x00001ea0       0x2f /home/dexheimere/Firmware/build_px4fmu-v2_lpe/px4io-v2/NuttX/nuttx-export/libs/libnuttx.a(sched-sched_releasetcb.o)
 .ARM.attributes
                0x00001ecf       0x2f /home/dexheimere/Firmware/build_px4fmu-v2_lpe/px4io-v2/NuttX/nuttx-export/libs/libnuttx.a(sched-sched_unlock.o)
 .ARM.attributes
                0x00001efe       0x2f /home/dexheimere/Firmware/build_px4fmu-v2_lpe/px4io-v2/NuttX/nuttx-export/libs/libnuttx.a(sched-task_activate.o)
 .ARM.attributes
                0x00001f2d       0x2f /home/dexheimere/Firmware/build_px4fmu-v2_lpe/px4io-v2/NuttX/nuttx-export/libs/libnuttx.a(arch-up_releasepending.o)
 .ARM.attributes
                0x00001f5c       0x2d /home/dexheimere/gcc-arm-none-eabi-5_4-2016q2/bin/../lib/gcc/arm-none-eabi/5.4.1/../../../../arm-none-eabi/lib/armv7-m/libm.a(lib_a-sf_fmin.o)
 .ARM.attributes
                0x00001f89       0x2d /home/dexheimere/gcc-arm-none-eabi-5_4-2016q2/bin/../lib/gcc/arm-none-eabi/5.4.1/../../../../arm-none-eabi/lib/armv7-m/libm.a(lib_a-sf_fpclassify.o)
 .ARM.attributes
                0x00001fb6       0x2d /home/dexheimere/gcc-arm-none-eabi-5_4-2016q2/bin/../lib/gcc/arm-none-eabi/5.4.1/../../../../arm-none-eabi/lib/armv7-m/libm.a(lib_a-wf_sqrt.o)
 .ARM.attributes
                0x00001fe3       0x2d /home/dexheimere/gcc-arm-none-eabi-5_4-2016q2/bin/../lib/gcc/arm-none-eabi/5.4.1/../../../../arm-none-eabi/lib/armv7-m/libm.a(lib_a-ef_sqrt.o)
 .ARM.attributes
                0x00002010       0x2d /home/dexheimere/gcc-arm-none-eabi-5_4-2016q2/bin/../lib/gcc/arm-none-eabi/5.4.1/../../../../arm-none-eabi/lib/armv7-m/libm.a(lib_a-s_lib_ver.o)
 .ARM.attributes
                0x0000203d       0x2d /home/dexheimere/gcc-arm-none-eabi-5_4-2016q2/bin/../lib/gcc/arm-none-eabi/5.4.1/../../../../arm-none-eabi/lib/armv7-m/libm.a(lib_a-s_matherr.o)
 .ARM.attributes
                0x0000206a       0x1d /home/dexheimere/gcc-arm-none-eabi-5_4-2016q2/bin/../lib/gcc/arm-none-eabi/5.4.1/armv7-m/libgcc.a(_lshrdi3.o)
 .ARM.attributes
                0x00002087       0x1d /home/dexheimere/gcc-arm-none-eabi-5_4-2016q2/bin/../lib/gcc/arm-none-eabi/5.4.1/armv7-m/libgcc.a(_arm_addsubdf3.o)
 .ARM.attributes
                0x000020a4       0x1d /home/dexheimere/gcc-arm-none-eabi-5_4-2016q2/bin/../lib/gcc/arm-none-eabi/5.4.1/armv7-m/libgcc.a(_arm_muldivdf3.o)
 .ARM.attributes
                0x000020c1       0x1d /home/dexheimere/gcc-arm-none-eabi-5_4-2016q2/bin/../lib/gcc/arm-none-eabi/5.4.1/armv7-m/libgcc.a(_arm_truncdfsf2.o)
 .ARM.attributes
                0x000020de       0x1d /home/dexheimere/gcc-arm-none-eabi-5_4-2016q2/bin/../lib/gcc/arm-none-eabi/5.4.1/armv7-m/libgcc.a(_arm_addsubsf3.o)
 .ARM.attributes
                0x000020fb       0x1d /home/dexheimere/gcc-arm-none-eabi-5_4-2016q2/bin/../lib/gcc/arm-none-eabi/5.4.1/armv7-m/libgcc.a(_arm_muldivsf3.o)
 .ARM.attributes
                0x00002118       0x1d /home/dexheimere/gcc-arm-none-eabi-5_4-2016q2/bin/../lib/gcc/arm-none-eabi/5.4.1/armv7-m/libgcc.a(_arm_cmpsf2.o)
 .ARM.attributes
                0x00002135       0x1d /home/dexheimere/gcc-arm-none-eabi-5_4-2016q2/bin/../lib/gcc/arm-none-eabi/5.4.1/armv7-m/libgcc.a(_arm_unordsf2.o)
 .ARM.attributes
                0x00002152       0x1d /home/dexheimere/gcc-arm-none-eabi-5_4-2016q2/bin/../lib/gcc/arm-none-eabi/5.4.1/armv7-m/libgcc.a(_arm_fixsfsi.o)
 .ARM.attributes
                0x0000216f       0x1d /home/dexheimere/gcc-arm-none-eabi-5_4-2016q2/bin/../lib/gcc/arm-none-eabi/5.4.1/armv7-m/libgcc.a(_arm_fixunssfsi.o)
 .ARM.attributes
                0x0000218c       0x1d /home/dexheimere/gcc-arm-none-eabi-5_4-2016q2/bin/../lib/gcc/arm-none-eabi/5.4.1/armv7-m/libgcc.a(_aeabi_uldivmod.o)
 .ARM.attributes
                0x000021a9       0x2d /home/dexheimere/gcc-arm-none-eabi-5_4-2016q2/bin/../lib/gcc/arm-none-eabi/5.4.1/armv7-m/libgcc.a(_udivmoddi4.o)
 .ARM.attributes
                0x000021d6       0x1d /home/dexheimere/gcc-arm-none-eabi-5_4-2016q2/bin/../lib/gcc/arm-none-eabi/5.4.1/armv7-m/libgcc.a(_dvmd_tls.o)

.debug_abbrev   0x00000000     0xea0e
 *(.debug_abbrev)
 .debug_abbrev  0x00000000      0x11c src/modules/px4iofirmware/CMakeFiles/px4io-v2.dir/adc.c.obj
 .debug_abbrev  0x0000011c      0x28d src/modules/px4iofirmware/CMakeFiles/px4io-v2.dir/controls.c.obj
 .debug_abbrev  0x000003a9      0x2af src/modules/px4iofirmware/CMakeFiles/px4io-v2.dir/px4io.c.obj
 .debug_abbrev  0x00000658      0x22a src/modules/px4iofirmware/CMakeFiles/px4io-v2.dir/registers.c.obj
 .debug_abbrev  0x00000882      0x1db src/modules/px4iofirmware/CMakeFiles/px4io-v2.dir/safety.c.obj
 .debug_abbrev  0x00000a5d       0x88 src/modules/px4iofirmware/CMakeFiles/px4io-v2.dir/__/systemlib/up_cxxinitialize.c.obj
 .debug_abbrev  0x00000ae5      0x2c6 src/modules/px4iofirmware/CMakeFiles/px4io-v2.dir/__/systemlib/perf_counter.c.obj
 .debug_abbrev  0x00000dab      0x32a src/modules/px4iofirmware/CMakeFiles/px4io-v2.dir/mixer.cpp.obj
 .debug_abbrev  0x000010d5      0x3ba src/modules/px4iofirmware/CMakeFiles/px4io-v2.dir/__/systemlib/mixer/mixer.cpp.obj
 .debug_abbrev  0x0000148f      0x3c0 src/modules/px4iofirmware/CMakeFiles/px4io-v2.dir/__/systemlib/mixer/mixer_group.cpp.obj
 .debug_abbrev  0x0000184f      0x512 src/modules/px4iofirmware/CMakeFiles/px4io-v2.dir/__/systemlib/mixer/mixer_multirotor.cpp.obj
 .debug_abbrev  0x00001d61      0x4f1 src/modules/px4iofirmware/CMakeFiles/px4io-v2.dir/__/systemlib/mixer/mixer_simple.cpp.obj
 .debug_abbrev  0x00002252      0x148 src/modules/px4iofirmware/CMakeFiles/px4io-v2.dir/__/systemlib/pwm_limit/pwm_limit.c.obj
 .debug_abbrev  0x0000239a      0x195 src/modules/px4iofirmware/CMakeFiles/px4io-v2.dir/__/__/lib/rc/st24.c.obj
 .debug_abbrev  0x0000252f      0x1c1 src/modules/px4iofirmware/CMakeFiles/px4io-v2.dir/__/__/lib/rc/sumd.c.obj
 .debug_abbrev  0x000026f0      0x2d6 src/modules/px4iofirmware/CMakeFiles/px4io-v2.dir/__/__/lib/rc/sbus.c.obj
 .debug_abbrev  0x000029c6      0x2e4 src/modules/px4iofirmware/CMakeFiles/px4io-v2.dir/__/__/lib/rc/dsm.c.obj
 .debug_abbrev  0x00002caa      0x3a5 src/modules/px4iofirmware/CMakeFiles/px4io-v2.dir/__/__/drivers/stm32/drv_hrt.c.obj
 .debug_abbrev  0x0000304f      0x3cd src/modules/px4iofirmware/CMakeFiles/px4io-v2.dir/__/__/drivers/stm32/drv_io_timer.c.obj
 .debug_abbrev  0x0000341c      0x1d1 src/modules/px4iofirmware/CMakeFiles/px4io-v2.dir/__/__/drivers/stm32/drv_pwm_servo.c.obj
 .debug_abbrev  0x000035ed       0x89 src/modules/px4iofirmware/CMakeFiles/px4io-v2.dir/__/__/drivers/boards/px4io-v2/px4io_init.c.obj
 .debug_abbrev  0x00003676       0xb7 src/modules/px4iofirmware/CMakeFiles/px4io-v2.dir/__/__/drivers/boards/px4io-v2/px4io_timer_config.c.obj
 .debug_abbrev  0x0000372d      0x27d src/modules/px4iofirmware/CMakeFiles/px4io-v2.dir/serial.c.obj
 .debug_abbrev  0x000039aa      0x327 src/modules/px4iofirmware/CMakeFiles/px4io-v2.dir/__/systemlib/hx_stream.c.obj
 .debug_abbrev  0x00003cd1      0x153 /home/dexheimere/Firmware/build_px4fmu-v2_lpe/px4io-v2/NuttX/nuttx-export/libs/libnuttx.a(sched-irq_attach.o)
 .debug_abbrev  0x00003e24       0xa5 /home/dexheimere/Firmware/build_px4fmu-v2_lpe/px4io-v2/NuttX/nuttx-export/libs/libnuttx.a(sched-irq_initialize.o)
 .debug_abbrev  0x00003ec9       0xe4 /home/dexheimere/Firmware/build_px4fmu-v2_lpe/px4io-v2/NuttX/nuttx-export/libs/libnuttx.a(sched-irq_unexpectedisr.o)
 .debug_abbrev  0x00003fad       0x6f /home/dexheimere/Firmware/build_px4fmu-v2_lpe/px4io-v2/NuttX/nuttx-export/libs/libnuttx.a(c-lib_abort.o)
 .debug_abbrev  0x0000401c       0xaa /home/dexheimere/Firmware/build_px4fmu-v2_lpe/px4io-v2/NuttX/nuttx-export/libs/libnuttx.a(c-lib_cfsetspeed.o)
 .debug_abbrev  0x000040c6       0xcb /home/dexheimere/Firmware/build_px4fmu-v2_lpe/px4io-v2/NuttX/nuttx-export/libs/libnuttx.a(c-lib_crc32.o)
 .debug_abbrev  0x00004191       0xe0 /home/dexheimere/Firmware/build_px4fmu-v2_lpe/px4io-v2/NuttX/nuttx-export/libs/libnuttx.a(c-lib_dprintf.o)
 .debug_abbrev  0x00004271      0x12a /home/dexheimere/Firmware/build_px4fmu-v2_lpe/px4io-v2/NuttX/nuttx-export/libs/libnuttx.a(c-lib_lowsyslog.o)
 .debug_abbrev  0x0000439b       0x8d /home/dexheimere/Firmware/build_px4fmu-v2_lpe/px4io-v2/NuttX/nuttx-export/libs/libnuttx.a(c-lib_memchr.o)
 .debug_abbrev  0x00004428       0xa4 /home/dexheimere/Firmware/build_px4fmu-v2_lpe/px4io-v2/NuttX/nuttx-export/libs/libnuttx.a(c-lib_memcpy.o)
 .debug_abbrev  0x000044cc       0x90 /home/dexheimere/Firmware/build_px4fmu-v2_lpe/px4io-v2/NuttX/nuttx-export/libs/libnuttx.a(c-lib_memset.o)
 .debug_abbrev  0x0000455c       0xe4 /home/dexheimere/Firmware/build_px4fmu-v2_lpe/px4io-v2/NuttX/nuttx-export/libs/libnuttx.a(c-lib_printf.o)
 .debug_abbrev  0x00004640      0x1e3 /home/dexheimere/Firmware/build_px4fmu-v2_lpe/px4io-v2/NuttX/nuttx-export/libs/libnuttx.a(c-lib_sscanf.o)
 .debug_abbrev  0x00004823       0x74 /home/dexheimere/Firmware/build_px4fmu-v2_lpe/px4io-v2/NuttX/nuttx-export/libs/libnuttx.a(c-lib_strchr.o)
 .debug_abbrev  0x00004897       0x74 /home/dexheimere/Firmware/build_px4fmu-v2_lpe/px4io-v2/NuttX/nuttx-export/libs/libnuttx.a(c-lib_strcmp.o)
 .debug_abbrev  0x0000490b       0xb8 /home/dexheimere/Firmware/build_px4fmu-v2_lpe/px4io-v2/NuttX/nuttx-export/libs/libnuttx.a(c-lib_strcspn.o)
 .debug_abbrev  0x000049c3       0x90 /home/dexheimere/Firmware/build_px4fmu-v2_lpe/px4io-v2/NuttX/nuttx-export/libs/libnuttx.a(c-lib_strncpy.o)
 .debug_abbrev  0x00004a53       0xb6 /home/dexheimere/Firmware/build_px4fmu-v2_lpe/px4io-v2/NuttX/nuttx-export/libs/libnuttx.a(c-lib_strtol.o)
 .debug_abbrev  0x00004b09       0xb8 /home/dexheimere/Firmware/build_px4fmu-v2_lpe/px4io-v2/NuttX/nuttx-export/libs/libnuttx.a(c-lib_strtoul.o)
 .debug_abbrev  0x00004bc1      0x12a /home/dexheimere/Firmware/build_px4fmu-v2_lpe/px4io-v2/NuttX/nuttx-export/libs/libnuttx.a(c-lib_syslog.o)
 .debug_abbrev  0x00004ceb       0xd5 /home/dexheimere/Firmware/build_px4fmu-v2_lpe/px4io-v2/NuttX/nuttx-export/libs/libnuttx.a(c-lib_tcgetattr.o)
 .debug_abbrev  0x00004dc0       0xdc /home/dexheimere/Firmware/build_px4fmu-v2_lpe/px4io-v2/NuttX/nuttx-export/libs/libnuttx.a(c-lib_tcsetattr.o)
 .debug_abbrev  0x00004e9c      0x107 /home/dexheimere/Firmware/build_px4fmu-v2_lpe/px4io-v2/NuttX/nuttx-export/libs/libnuttx.a(c-lib_vdprintf.o)
 .debug_abbrev  0x00004fa3      0x125 /home/dexheimere/Firmware/build_px4fmu-v2_lpe/px4io-v2/NuttX/nuttx-export/libs/libnuttx.a(c-lib_vsnprintf.o)
 .debug_abbrev  0x000050c8       0xb2 /home/dexheimere/Firmware/build_px4fmu-v2_lpe/px4io-v2/NuttX/nuttx-export/libs/libnuttx.a(c-sq_addafter.o)
 .debug_abbrev  0x0000517a       0x87 /home/dexheimere/Firmware/build_px4fmu-v2_lpe/px4io-v2/NuttX/nuttx-export/libs/libnuttx.a(c-sq_addfirst.o)
 .debug_abbrev  0x00005201       0x87 /home/dexheimere/Firmware/build_px4fmu-v2_lpe/px4io-v2/NuttX/nuttx-export/libs/libnuttx.a(c-sq_addlast.o)
 .debug_abbrev  0x00005288       0xbe /home/dexheimere/Firmware/build_px4fmu-v2_lpe/px4io-v2/NuttX/nuttx-export/libs/libnuttx.a(c-sq_rem.o)
 .debug_abbrev  0x00005346       0xb2 /home/dexheimere/Firmware/build_px4fmu-v2_lpe/px4io-v2/NuttX/nuttx-export/libs/libnuttx.a(mm-mm_calloc.o)
 .debug_abbrev  0x000053f8      0x152 /home/dexheimere/Firmware/build_px4fmu-v2_lpe/px4io-v2/NuttX/nuttx-export/libs/libnuttx.a(mm-mm_free.o)
 .debug_abbrev  0x0000554a      0x13d /home/dexheimere/Firmware/build_px4fmu-v2_lpe/px4io-v2/NuttX/nuttx-export/libs/libnuttx.a(mm-mm_mallinfo.o)
 .debug_abbrev  0x00005687      0x16e /home/dexheimere/Firmware/build_px4fmu-v2_lpe/px4io-v2/NuttX/nuttx-export/libs/libnuttx.a(mm-mm_malloc.o)
 .debug_abbrev  0x000057f5      0x12f /home/dexheimere/Firmware/build_px4fmu-v2_lpe/px4io-v2/NuttX/nuttx-export/libs/libnuttx.a(mm-mm_sem.o)
 .debug_abbrev  0x00005924       0x6f /home/dexheimere/Firmware/build_px4fmu-v2_lpe/px4io-v2/NuttX/nuttx-export/libs/libnuttx.a(mm-mm_size2ndx.o)
 .debug_abbrev  0x00005993      0x123 /home/dexheimere/Firmware/build_px4fmu-v2_lpe/px4io-v2/NuttX/nuttx-export/libs/libnuttx.a(mm-mm_user.o)
 .debug_abbrev  0x00005ab6       0xba /home/dexheimere/Firmware/build_px4fmu-v2_lpe/px4io-v2/NuttX/nuttx-export/libs/libnuttx.a(mm-mm_zalloc.o)
 .debug_abbrev  0x00005b70      0x2e1 /home/dexheimere/Firmware/build_px4fmu-v2_lpe/px4io-v2/NuttX/nuttx-export/libs/libnuttx.a(arch-stm32_dma.o)
 .debug_abbrev  0x00005e51      0x1ea /home/dexheimere/Firmware/build_px4fmu-v2_lpe/px4io-v2/NuttX/nuttx-export/libs/libnuttx.a(arch-stm32_gpio.o)
 .debug_abbrev  0x0000603b      0x1ac /home/dexheimere/Firmware/build_px4fmu-v2_lpe/px4io-v2/NuttX/nuttx-export/libs/libnuttx.a(arch-stm32_irq.o)
 .debug_abbrev  0x000061e7      0x350 /home/dexheimere/Firmware/build_px4fmu-v2_lpe/px4io-v2/NuttX/nuttx-export/libs/libnuttx.a(arch-stm32_serial.o)
 .debug_abbrev  0x00006537       0xbe /home/dexheimere/Firmware/build_px4fmu-v2_lpe/px4io-v2/NuttX/nuttx-export/libs/libnuttx.a(arch-stm32_start.o)
 .debug_abbrev  0x000065f5      0x2a0 /home/dexheimere/Firmware/build_px4fmu-v2_lpe/px4io-v2/NuttX/nuttx-export/libs/libnuttx.a(arch-up_assert.o)
 .debug_abbrev  0x00006895      0x14e /home/dexheimere/Firmware/build_px4fmu-v2_lpe/px4io-v2/NuttX/nuttx-export/libs/libnuttx.a(arch-up_hardfault.o)
 .debug_abbrev  0x000069e3       0xfe /home/dexheimere/Firmware/build_px4fmu-v2_lpe/px4io-v2/NuttX/nuttx-export/libs/libnuttx.a(arch-up_modifyreg32.o)
 .debug_abbrev  0x00006ae1       0xe8 /home/dexheimere/Firmware/build_px4fmu-v2_lpe/px4io-v2/NuttX/nuttx-export/libs/libnuttx.a(arch-up_svcall.o)
 .debug_abbrev  0x00006bc9       0x61 /home/dexheimere/Firmware/build_px4fmu-v2_lpe/px4io-v2/NuttX/nuttx-export/libs/libnuttx.a(arch-up_systemreset.o)
 .debug_abbrev  0x00006c2a       0x76 /home/dexheimere/Firmware/build_px4fmu-v2_lpe/px4io-v2/NuttX/nuttx-export/libs/libnuttx.a(arch-up_udelay.o)
 .debug_abbrev  0x00006ca0       0x4f /home/dexheimere/Firmware/build_px4fmu-v2_lpe/px4io-v2/NuttX/nuttx-export/libs/libnuttx.a(arch-up_vectors.o)
 .debug_abbrev  0x00006cef      0x11f /home/dexheimere/Firmware/build_px4fmu-v2_lpe/px4io-v2/NuttX/nuttx-export/libs/libnuttx.a(cxx-libxx_cxa_atexit.o)
 .debug_abbrev  0x00006e0e       0x6d /home/dexheimere/Firmware/build_px4fmu-v2_lpe/px4io-v2/NuttX/nuttx-export/libs/libnuttx.a(cxx-libxx_cxapurevirtual.o)
 .debug_abbrev  0x00006e7b      0x114 /home/dexheimere/Firmware/build_px4fmu-v2_lpe/px4io-v2/NuttX/nuttx-export/libs/libnuttx.a(cxx-libxx_delete.o)
 .debug_abbrev  0x00006f8f      0x11b /home/dexheimere/Firmware/build_px4fmu-v2_lpe/px4io-v2/NuttX/nuttx-export/libs/libnuttx.a(cxx-libxx_eabi_atexit.o)
 .debug_abbrev  0x000070aa      0x123 /home/dexheimere/Firmware/build_px4fmu-v2_lpe/px4io-v2/NuttX/nuttx-export/libs/libnuttx.a(cxx-libxx_new.o)
 .debug_abbrev  0x000071cd      0x152 /home/dexheimere/Firmware/build_px4fmu-v2_lpe/px4io-v2/NuttX/nuttx-export/libs/libnuttx.a(fs-fs_ioctl.o)
 .debug_abbrev  0x0000731f      0x1af /home/dexheimere/Firmware/build_px4fmu-v2_lpe/px4io-v2/NuttX/nuttx-export/libs/libnuttx.a(fs-fs_open.o)
 .debug_abbrev  0x000074ce      0x1b5 /home/dexheimere/Firmware/build_px4fmu-v2_lpe/px4io-v2/NuttX/nuttx-export/libs/libnuttx.a(fs-fs_read.o)
 .debug_abbrev  0x00007683      0x1bd /home/dexheimere/Firmware/build_px4fmu-v2_lpe/px4io-v2/NuttX/nuttx-export/libs/libnuttx.a(fs-fs_write.o)
 .debug_abbrev  0x00007840      0x182 /home/dexheimere/Firmware/build_px4fmu-v2_lpe/px4io-v2/NuttX/nuttx-export/libs/libnuttx.a(drivers-serialirq.o)
 .debug_abbrev  0x000079c2      0x388 /home/dexheimere/Firmware/build_px4fmu-v2_lpe/px4io-v2/NuttX/nuttx-export/libs/libnuttx.a(drivers-serial.o)
 .debug_abbrev  0x00007d4a      0x190 /home/dexheimere/Firmware/build_px4fmu-v2_lpe/px4io-v2/NuttX/nuttx-export/libs/libnuttx.a(sched-errno_getptr.o)
 .debug_abbrev  0x00007eda      0x185 /home/dexheimere/Firmware/build_px4fmu-v2_lpe/px4io-v2/NuttX/nuttx-export/libs/libnuttx.a(sched-exit.o)
 .debug_abbrev  0x0000805f      0x12f /home/dexheimere/Firmware/build_px4fmu-v2_lpe/px4io-v2/NuttX/nuttx-export/libs/libnuttx.a(sched-getpid.o)
 .debug_abbrev  0x0000818e      0x1e5 /home/dexheimere/Firmware/build_px4fmu-v2_lpe/px4io-v2/NuttX/nuttx-export/libs/libnuttx.a(sched-os_start.o)
 .debug_abbrev  0x00008373      0x168 /home/dexheimere/Firmware/build_px4fmu-v2_lpe/px4io-v2/NuttX/nuttx-export/libs/libnuttx.a(sched-sched_garbage.o)
 .debug_abbrev  0x000084db      0x14f /home/dexheimere/Firmware/build_px4fmu-v2_lpe/px4io-v2/NuttX/nuttx-export/libs/libnuttx.a(sched-sched_getfiles.o)
 .debug_abbrev  0x0000862a      0x219 /home/dexheimere/Firmware/build_px4fmu-v2_lpe/px4io-v2/NuttX/nuttx-export/libs/libnuttx.a(sched-sem_post.o)
 .debug_abbrev  0x00008843      0x1ef /home/dexheimere/Firmware/build_px4fmu-v2_lpe/px4io-v2/NuttX/nuttx-export/libs/libnuttx.a(sched-sem_trywait.o)
 .debug_abbrev  0x00008a32      0x233 /home/dexheimere/Firmware/build_px4fmu-v2_lpe/px4io-v2/NuttX/nuttx-export/libs/libnuttx.a(sched-sem_wait.o)
 .debug_abbrev  0x00008c65      0x16a /home/dexheimere/Firmware/build_px4fmu-v2_lpe/px4io-v2/NuttX/nuttx-export/libs/libnuttx.a(sched-task_exithook.o)
 .debug_abbrev  0x00008dcf      0x1b7 /home/dexheimere/Firmware/build_px4fmu-v2_lpe/px4io-v2/NuttX/nuttx-export/libs/libnuttx.a(sched-task_recover.o)
 .debug_abbrev  0x00008f86      0x198 /home/dexheimere/Firmware/build_px4fmu-v2_lpe/px4io-v2/NuttX/nuttx-export/libs/libnuttx.a(sched-wd_cancel.o)
 .debug_abbrev  0x0000911e      0x196 /home/dexheimere/Firmware/build_px4fmu-v2_lpe/px4io-v2/NuttX/nuttx-export/libs/libnuttx.a(sched-wd_delete.o)
 .debug_abbrev  0x000092b4      0x128 /home/dexheimere/Firmware/build_px4fmu-v2_lpe/px4io-v2/NuttX/nuttx-export/libs/libnuttx.a(sched-wd_initialize.o)
 .debug_abbrev  0x000093dc       0x87 /home/dexheimere/Firmware/build_px4fmu-v2_lpe/px4io-v2/NuttX/nuttx-export/libs/libnuttx.a(c-dq_addfirst.o)
 .debug_abbrev  0x00009463       0xa2 /home/dexheimere/Firmware/build_px4fmu-v2_lpe/px4io-v2/NuttX/nuttx-export/libs/libnuttx.a(c-lib_cfgetspeed.o)
 .debug_abbrev  0x00009505       0x9c /home/dexheimere/Firmware/build_px4fmu-v2_lpe/px4io-v2/NuttX/nuttx-export/libs/libnuttx.a(c-lib_checkbase.o)
 .debug_abbrev  0x000095a1       0x98 /home/dexheimere/Firmware/build_px4fmu-v2_lpe/px4io-v2/NuttX/nuttx-export/libs/libnuttx.a(c-lib_isbasedigit.o)
 .debug_abbrev  0x00009639      0x2f9 /home/dexheimere/Firmware/build_px4fmu-v2_lpe/px4io-v2/NuttX/nuttx-export/libs/libnuttx.a(c-lib_libvsprintf.o)
 .debug_abbrev  0x00009932      0x104 /home/dexheimere/Firmware/build_px4fmu-v2_lpe/px4io-v2/NuttX/nuttx-export/libs/libnuttx.a(c-lib_lowoutstream.o)
 .debug_abbrev  0x00009a36       0xe9 /home/dexheimere/Firmware/build_px4fmu-v2_lpe/px4io-v2/NuttX/nuttx-export/libs/libnuttx.a(c-lib_memoutstream.o)
 .debug_abbrev  0x00009b1f       0xcb /home/dexheimere/Firmware/build_px4fmu-v2_lpe/px4io-v2/NuttX/nuttx-export/libs/libnuttx.a(c-lib_nulloutstream.o)
 .debug_abbrev  0x00009bea      0x14f /home/dexheimere/Firmware/build_px4fmu-v2_lpe/px4io-v2/NuttX/nuttx-export/libs/libnuttx.a(c-lib_rawoutstream.o)
 .debug_abbrev  0x00009d39       0x72 /home/dexheimere/Firmware/build_px4fmu-v2_lpe/px4io-v2/NuttX/nuttx-export/libs/libnuttx.a(c-lib_skipspace.o)
 .debug_abbrev  0x00009dab       0x83 /home/dexheimere/Firmware/build_px4fmu-v2_lpe/px4io-v2/NuttX/nuttx-export/libs/libnuttx.a(c-lib_strcpy.o)
 .debug_abbrev  0x00009e2e       0x81 /home/dexheimere/Firmware/build_px4fmu-v2_lpe/px4io-v2/NuttX/nuttx-export/libs/libnuttx.a(c-lib_strlen.o)
 .debug_abbrev  0x00009eaf       0xb4 /home/dexheimere/Firmware/build_px4fmu-v2_lpe/px4io-v2/NuttX/nuttx-export/libs/libnuttx.a(c-sem_init.o)
 .debug_abbrev  0x00009f63       0x98 /home/dexheimere/Firmware/build_px4fmu-v2_lpe/px4io-v2/NuttX/nuttx-export/libs/libnuttx.a(c-sq_remafter.o)
 .debug_abbrev  0x00009ffb       0x98 /home/dexheimere/Firmware/build_px4fmu-v2_lpe/px4io-v2/NuttX/nuttx-export/libs/libnuttx.a(c-sq_remfirst.o)
 .debug_abbrev  0x0000a093       0xd3 /home/dexheimere/Firmware/build_px4fmu-v2_lpe/px4io-v2/NuttX/nuttx-export/libs/libnuttx.a(mm-mm_addfreechunk.o)
 .debug_abbrev  0x0000a166      0x121 /home/dexheimere/Firmware/build_px4fmu-v2_lpe/px4io-v2/NuttX/nuttx-export/libs/libnuttx.a(mm-mm_initialize.o)
 .debug_abbrev  0x0000a287       0x88 /home/dexheimere/Firmware/build_px4fmu-v2_lpe/px4io-v2/NuttX/nuttx-export/libs/libnuttx.a(arch-stm32_allocateheap.o)
 .debug_abbrev  0x0000a30f       0x42 /home/dexheimere/Firmware/build_px4fmu-v2_lpe/px4io-v2/NuttX/nuttx-export/libs/libnuttx.a(arch-stm32_idle.o)
 .debug_abbrev  0x0000a351       0xcd /home/dexheimere/Firmware/build_px4fmu-v2_lpe/px4io-v2/NuttX/nuttx-export/libs/libnuttx.a(arch-stm32_lowputc.o)
 .debug_abbrev  0x0000a41e      0x119 /home/dexheimere/Firmware/build_px4fmu-v2_lpe/px4io-v2/NuttX/nuttx-export/libs/libnuttx.a(arch-stm32_rcc.o)
 .debug_abbrev  0x0000a537      0x1cd /home/dexheimere/Firmware/build_px4fmu-v2_lpe/px4io-v2/NuttX/nuttx-export/libs/libnuttx.a(arch-up_blocktask.o)
 .debug_abbrev  0x0000a704       0x85 /home/dexheimere/Firmware/build_px4fmu-v2_lpe/px4io-v2/NuttX/nuttx-export/libs/libnuttx.a(arch-up_copystate.o)
 .debug_abbrev  0x0000a789       0x14 /home/dexheimere/Firmware/build_px4fmu-v2_lpe/px4io-v2/NuttX/nuttx-export/libs/libnuttx.a(arch-up_exception.o)
 .debug_abbrev  0x0000a79d      0x1ad /home/dexheimere/Firmware/build_px4fmu-v2_lpe/px4io-v2/NuttX/nuttx-export/libs/libnuttx.a(arch-up_exit.o)
 .debug_abbrev  0x0000a94a       0x14 /home/dexheimere/Firmware/build_px4fmu-v2_lpe/px4io-v2/NuttX/nuttx-export/libs/libnuttx.a(arch-up_fullcontextrestore.o)
 .debug_abbrev  0x0000a95e       0x9c /home/dexheimere/Firmware/build_px4fmu-v2_lpe/px4io-v2/NuttX/nuttx-export/libs/libnuttx.a(arch-up_initialize.o)
 .debug_abbrev  0x0000a9fa      0x177 /home/dexheimere/Firmware/build_px4fmu-v2_lpe/px4io-v2/NuttX/nuttx-export/libs/libnuttx.a(arch-up_initialstate.o)
 .debug_abbrev  0x0000ab71       0x72 /home/dexheimere/Firmware/build_px4fmu-v2_lpe/px4io-v2/NuttX/nuttx-export/libs/libnuttx.a(arch-up_interruptcontext.o)
 .debug_abbrev  0x0000abe3       0x69 /home/dexheimere/Firmware/build_px4fmu-v2_lpe/px4io-v2/NuttX/nuttx-export/libs/libnuttx.a(arch-up_mdelay.o)
 .debug_abbrev  0x0000ac4c       0x14 /home/dexheimere/Firmware/build_px4fmu-v2_lpe/px4io-v2/NuttX/nuttx-export/libs/libnuttx.a(arch-up_switchcontext.o)
 .debug_abbrev  0x0000ac60      0x1be /home/dexheimere/Firmware/build_px4fmu-v2_lpe/px4io-v2/NuttX/nuttx-export/libs/libnuttx.a(arch-up_unblocktask.o)
 .debug_abbrev  0x0000ae1e      0x280 /home/dexheimere/Firmware/build_px4fmu-v2_lpe/px4io-v2/NuttX/nuttx-export/libs/libnuttx.a(fs-fs_files.o)
 .debug_abbrev  0x0000b09e      0x11c /home/dexheimere/Firmware/build_px4fmu-v2_lpe/px4io-v2/NuttX/nuttx-export/libs/libnuttx.a(fs-fs_inodeaddref.o)
 .debug_abbrev  0x0000b1ba      0x138 /home/dexheimere/Firmware/build_px4fmu-v2_lpe/px4io-v2/NuttX/nuttx-export/libs/libnuttx.a(fs-fs_inodefind.o)
 .debug_abbrev  0x0000b2f2      0x241 /home/dexheimere/Firmware/build_px4fmu-v2_lpe/px4io-v2/NuttX/nuttx-export/libs/libnuttx.a(fs-fs_inode.o)
 .debug_abbrev  0x0000b533      0x138 /home/dexheimere/Firmware/build_px4fmu-v2_lpe/px4io-v2/NuttX/nuttx-export/libs/libnuttx.a(fs-fs_inoderelease.o)
 .debug_abbrev  0x0000b66b      0x147 /home/dexheimere/Firmware/build_px4fmu-v2_lpe/px4io-v2/NuttX/nuttx-export/libs/libnuttx.a(fs-fs_registerdriver.o)
 .debug_abbrev  0x0000b7b2      0x1a8 /home/dexheimere/Firmware/build_px4fmu-v2_lpe/px4io-v2/NuttX/nuttx-export/libs/libnuttx.a(sched-group_create.o)
 .debug_abbrev  0x0000b95a      0x1b1 /home/dexheimere/Firmware/build_px4fmu-v2_lpe/px4io-v2/NuttX/nuttx-export/libs/libnuttx.a(sched-group_leave.o)
 .debug_abbrev  0x0000bb0b      0x18c /home/dexheimere/Firmware/build_px4fmu-v2_lpe/px4io-v2/NuttX/nuttx-export/libs/libnuttx.a(sched-group_setupidlefiles.o)
 .debug_abbrev  0x0000bc97       0xb2 /home/dexheimere/Firmware/build_px4fmu-v2_lpe/px4io-v2/NuttX/nuttx-export/libs/libnuttx.a(sched-os_bringup.o)
 .debug_abbrev  0x0000bd49      0x18d /home/dexheimere/Firmware/build_px4fmu-v2_lpe/px4io-v2/NuttX/nuttx-export/libs/libnuttx.a(sched-sched_addblocked.o)
 .debug_abbrev  0x0000bed6      0x18c /home/dexheimere/Firmware/build_px4fmu-v2_lpe/px4io-v2/NuttX/nuttx-export/libs/libnuttx.a(sched-sched_addprioritized.o)
 .debug_abbrev  0x0000c062      0x1ad /home/dexheimere/Firmware/build_px4fmu-v2_lpe/px4io-v2/NuttX/nuttx-export/libs/libnuttx.a(sched-sched_addreadytorun.o)
 .debug_abbrev  0x0000c20f      0x16d /home/dexheimere/Firmware/build_px4fmu-v2_lpe/px4io-v2/NuttX/nuttx-export/libs/libnuttx.a(sched-sched_free.o)
 .debug_abbrev  0x0000c37c      0x191 /home/dexheimere/Firmware/build_px4fmu-v2_lpe/px4io-v2/NuttX/nuttx-export/libs/libnuttx.a(sched-sched_mergepending.o)
 .debug_abbrev  0x0000c50d      0x19c /home/dexheimere/Firmware/build_px4fmu-v2_lpe/px4io-v2/NuttX/nuttx-export/libs/libnuttx.a(sched-sched_removeblocked.o)
 .debug_abbrev  0x0000c6a9      0x19e /home/dexheimere/Firmware/build_px4fmu-v2_lpe/px4io-v2/NuttX/nuttx-export/libs/libnuttx.a(sched-sched_removereadytorun.o)
 .debug_abbrev  0x0000c847       0xa5 /home/dexheimere/Firmware/build_px4fmu-v2_lpe/px4io-v2/NuttX/nuttx-export/libs/libnuttx.a(sched-sem_destroy.o)
 .debug_abbrev  0x0000c8ec      0x21f /home/dexheimere/Firmware/build_px4fmu-v2_lpe/px4io-v2/NuttX/nuttx-export/libs/libnuttx.a(sched-task_create.o)
 .debug_abbrev  0x0000cb0b      0x18f /home/dexheimere/Firmware/build_px4fmu-v2_lpe/px4io-v2/NuttX/nuttx-export/libs/libnuttx.a(sched-task_exit.o)
 .debug_abbrev  0x0000cc9a      0x299 /home/dexheimere/Firmware/build_px4fmu-v2_lpe/px4io-v2/NuttX/nuttx-export/libs/libnuttx.a(sched-task_setup.o)
 .debug_abbrev  0x0000cf33      0x16c /home/dexheimere/Firmware/build_px4fmu-v2_lpe/px4io-v2/NuttX/nuttx-export/libs/libnuttx.a(sched-task_start.o)
 .debug_abbrev  0x0000d09f      0x24b /home/dexheimere/Firmware/build_px4fmu-v2_lpe/px4io-v2/NuttX/nuttx-export/libs/libnuttx.a(sched-task_terminate.o)
 .debug_abbrev  0x0000d2ea       0x87 /home/dexheimere/Firmware/build_px4fmu-v2_lpe/px4io-v2/NuttX/nuttx-export/libs/libnuttx.a(c-dq_addlast.o)
 .debug_abbrev  0x0000d371       0xa5 /home/dexheimere/Firmware/build_px4fmu-v2_lpe/px4io-v2/NuttX/nuttx-export/libs/libnuttx.a(c-dq_rem.o)
 .debug_abbrev  0x0000d416       0xb4 /home/dexheimere/Firmware/build_px4fmu-v2_lpe/px4io-v2/NuttX/nuttx-export/libs/libnuttx.a(c-lib_strdup.o)
 .debug_abbrev  0x0000d4ca      0x110 /home/dexheimere/Firmware/build_px4fmu-v2_lpe/px4io-v2/NuttX/nuttx-export/libs/libnuttx.a(arch-stm32_timerisr.o)
 .debug_abbrev  0x0000d5da      0x197 /home/dexheimere/Firmware/build_px4fmu-v2_lpe/px4io-v2/NuttX/nuttx-export/libs/libnuttx.a(arch-up_createstack.o)
 .debug_abbrev  0x0000d771       0xd6 /home/dexheimere/Firmware/build_px4fmu-v2_lpe/px4io-v2/NuttX/nuttx-export/libs/libnuttx.a(arch-up_doirq.o)
 .debug_abbrev  0x0000d847      0x142 /home/dexheimere/Firmware/build_px4fmu-v2_lpe/px4io-v2/NuttX/nuttx-export/libs/libnuttx.a(arch-up_releasestack.o)
 .debug_abbrev  0x0000d989       0xa6 /home/dexheimere/Firmware/build_px4fmu-v2_lpe/px4io-v2/NuttX/nuttx-export/libs/libnuttx.a(fs-fs_close.o)
 .debug_abbrev  0x0000da2f      0x12d /home/dexheimere/Firmware/build_px4fmu-v2_lpe/px4io-v2/NuttX/nuttx-export/libs/libnuttx.a(fs-fs_filedup2.o)
 .debug_abbrev  0x0000db5c      0x215 /home/dexheimere/Firmware/build_px4fmu-v2_lpe/px4io-v2/NuttX/nuttx-export/libs/libnuttx.a(fs-fs_inodereserve.o)
 .debug_abbrev  0x0000dd71      0x153 /home/dexheimere/Firmware/build_px4fmu-v2_lpe/px4io-v2/NuttX/nuttx-export/libs/libnuttx.a(sched-group_setuptaskfiles.o)
 .debug_abbrev  0x0000dec4       0xc0 /home/dexheimere/Firmware/build_px4fmu-v2_lpe/px4io-v2/NuttX/nuttx-export/libs/libnuttx.a(sched-irq_dispatch.o)
 .debug_abbrev  0x0000df84      0x157 /home/dexheimere/Firmware/build_px4fmu-v2_lpe/px4io-v2/NuttX/nuttx-export/libs/libnuttx.a(sched-sched_gettcb.o)
 .debug_abbrev  0x0000e0db      0x184 /home/dexheimere/Firmware/build_px4fmu-v2_lpe/px4io-v2/NuttX/nuttx-export/libs/libnuttx.a(sched-sched_lock.o)
 .debug_abbrev  0x0000e25f       0x6f /home/dexheimere/Firmware/build_px4fmu-v2_lpe/px4io-v2/NuttX/nuttx-export/libs/libnuttx.a(sched-sched_processtimer.o)
 .debug_abbrev  0x0000e2ce      0x219 /home/dexheimere/Firmware/build_px4fmu-v2_lpe/px4io-v2/NuttX/nuttx-export/libs/libnuttx.a(sched-sched_releasetcb.o)
 .debug_abbrev  0x0000e4e7      0x1dc /home/dexheimere/Firmware/build_px4fmu-v2_lpe/px4io-v2/NuttX/nuttx-export/libs/libnuttx.a(sched-sched_unlock.o)
 .debug_abbrev  0x0000e6c3      0x1c3 /home/dexheimere/Firmware/build_px4fmu-v2_lpe/px4io-v2/NuttX/nuttx-export/libs/libnuttx.a(sched-task_activate.o)
 .debug_abbrev  0x0000e886      0x188 /home/dexheimere/Firmware/build_px4fmu-v2_lpe/px4io-v2/NuttX/nuttx-export/libs/libnuttx.a(arch-up_releasepending.o)

.debug_info     0x00000000    0x3d353
 *(.debug_info)
 .debug_info    0x00000000      0x353 src/modules/px4iofirmware/CMakeFiles/px4io-v2.dir/adc.c.obj
 .debug_info    0x00000353      0x9d9 src/modules/px4iofirmware/CMakeFiles/px4io-v2.dir/controls.c.obj
 .debug_info    0x00000d2c      0xc5b src/modules/px4iofirmware/CMakeFiles/px4io-v2.dir/px4io.c.obj
 .debug_info    0x00001987      0xa02 src/modules/px4iofirmware/CMakeFiles/px4io-v2.dir/registers.c.obj
 .debug_info    0x00002389      0x478 src/modules/px4iofirmware/CMakeFiles/px4io-v2.dir/safety.c.obj
 .debug_info    0x00002801      0x115 src/modules/px4iofirmware/CMakeFiles/px4io-v2.dir/__/systemlib/up_cxxinitialize.c.obj
 .debug_info    0x00002916      0xa7b src/modules/px4iofirmware/CMakeFiles/px4io-v2.dir/__/systemlib/perf_counter.c.obj
 .debug_info    0x00003391      0xbbf src/modules/px4iofirmware/CMakeFiles/px4io-v2.dir/mixer.cpp.obj
 .debug_info    0x00003f50      0xa49 src/modules/px4iofirmware/CMakeFiles/px4io-v2.dir/__/systemlib/mixer/mixer.cpp.obj
 .debug_info    0x00004999      0xba0 src/modules/px4iofirmware/CMakeFiles/px4io-v2.dir/__/systemlib/mixer/mixer_group.cpp.obj
 .debug_info    0x00005539     0x1a0f src/modules/px4iofirmware/CMakeFiles/px4io-v2.dir/__/systemlib/mixer/mixer_multirotor.cpp.obj
 .debug_info    0x00006f48      0xfe9 src/modules/px4iofirmware/CMakeFiles/px4io-v2.dir/__/systemlib/mixer/mixer_simple.cpp.obj
 .debug_info    0x00007f31      0x3e0 src/modules/px4iofirmware/CMakeFiles/px4io-v2.dir/__/systemlib/pwm_limit/pwm_limit.c.obj
 .debug_info    0x00008311      0x462 src/modules/px4iofirmware/CMakeFiles/px4io-v2.dir/__/__/lib/rc/st24.c.obj
 .debug_info    0x00008773      0x62b src/modules/px4iofirmware/CMakeFiles/px4io-v2.dir/__/__/lib/rc/sumd.c.obj
 .debug_info    0x00008d9e      0x979 src/modules/px4iofirmware/CMakeFiles/px4io-v2.dir/__/__/lib/rc/sbus.c.obj
 .debug_info    0x00009717      0xc16 src/modules/px4iofirmware/CMakeFiles/px4io-v2.dir/__/__/lib/rc/dsm.c.obj
 .debug_info    0x0000a32d      0xe08 src/modules/px4iofirmware/CMakeFiles/px4io-v2.dir/__/__/drivers/stm32/drv_hrt.c.obj
 .debug_info    0x0000b135     0x133c src/modules/px4iofirmware/CMakeFiles/px4io-v2.dir/__/__/drivers/stm32/drv_io_timer.c.obj
 .debug_info    0x0000c471      0x4fb src/modules/px4iofirmware/CMakeFiles/px4io-v2.dir/__/__/drivers/stm32/drv_pwm_servo.c.obj
 .debug_info    0x0000c96c      0x38b src/modules/px4iofirmware/CMakeFiles/px4io-v2.dir/__/__/drivers/boards/px4io-v2/px4io_init.c.obj
 .debug_info    0x0000ccf7      0x26f src/modules/px4iofirmware/CMakeFiles/px4io-v2.dir/__/__/drivers/boards/px4io-v2/px4io_timer_config.c.obj
 .debug_info    0x0000cf66      0x7bf src/modules/px4iofirmware/CMakeFiles/px4io-v2.dir/serial.c.obj
 .debug_info    0x0000d725      0x68d src/modules/px4iofirmware/CMakeFiles/px4io-v2.dir/__/systemlib/hx_stream.c.obj
 .debug_info    0x0000ddb2      0x1c4 /home/dexheimere/Firmware/build_px4fmu-v2_lpe/px4io-v2/NuttX/nuttx-export/libs/libnuttx.a(sched-irq_attach.o)
 .debug_info    0x0000df76       0xf3 /home/dexheimere/Firmware/build_px4fmu-v2_lpe/px4io-v2/NuttX/nuttx-export/libs/libnuttx.a(sched-irq_initialize.o)
 .debug_info    0x0000e069      0x147 /home/dexheimere/Firmware/build_px4fmu-v2_lpe/px4io-v2/NuttX/nuttx-export/libs/libnuttx.a(sched-irq_unexpectedisr.o)
 .debug_info    0x0000e1b0       0xaa /home/dexheimere/Firmware/build_px4fmu-v2_lpe/px4io-v2/NuttX/nuttx-export/libs/libnuttx.a(c-lib_abort.o)
 .debug_info    0x0000e25a      0x169 /home/dexheimere/Firmware/build_px4fmu-v2_lpe/px4io-v2/NuttX/nuttx-export/libs/libnuttx.a(c-lib_cfsetspeed.o)
 .debug_info    0x0000e3c3      0x190 /home/dexheimere/Firmware/build_px4fmu-v2_lpe/px4io-v2/NuttX/nuttx-export/libs/libnuttx.a(c-lib_crc32.o)
 .debug_info    0x0000e553      0x13c /home/dexheimere/Firmware/build_px4fmu-v2_lpe/px4io-v2/NuttX/nuttx-export/libs/libnuttx.a(c-lib_dprintf.o)
 .debug_info    0x0000e68f      0x1f3 /home/dexheimere/Firmware/build_px4fmu-v2_lpe/px4io-v2/NuttX/nuttx-export/libs/libnuttx.a(c-lib_lowsyslog.o)
 .debug_info    0x0000e882       0xf6 /home/dexheimere/Firmware/build_px4fmu-v2_lpe/px4io-v2/NuttX/nuttx-export/libs/libnuttx.a(c-lib_memchr.o)
 .debug_info    0x0000e978      0x104 /home/dexheimere/Firmware/build_px4fmu-v2_lpe/px4io-v2/NuttX/nuttx-export/libs/libnuttx.a(c-lib_memcpy.o)
 .debug_info    0x0000ea7c       0xe6 /home/dexheimere/Firmware/build_px4fmu-v2_lpe/px4io-v2/NuttX/nuttx-export/libs/libnuttx.a(c-lib_memset.o)
 .debug_info    0x0000eb62      0x138 /home/dexheimere/Firmware/build_px4fmu-v2_lpe/px4io-v2/NuttX/nuttx-export/libs/libnuttx.a(c-lib_printf.o)
 .debug_info    0x0000ec9a      0x554 /home/dexheimere/Firmware/build_px4fmu-v2_lpe/px4io-v2/NuttX/nuttx-export/libs/libnuttx.a(c-lib_sscanf.o)
 .debug_info    0x0000f1ee       0xb6 /home/dexheimere/Firmware/build_px4fmu-v2_lpe/px4io-v2/NuttX/nuttx-export/libs/libnuttx.a(c-lib_strchr.o)
 .debug_info    0x0000f2a4       0xc1 /home/dexheimere/Firmware/build_px4fmu-v2_lpe/px4io-v2/NuttX/nuttx-export/libs/libnuttx.a(c-lib_strcmp.o)
 .debug_info    0x0000f365       0xfd /home/dexheimere/Firmware/build_px4fmu-v2_lpe/px4io-v2/NuttX/nuttx-export/libs/libnuttx.a(c-lib_strcspn.o)
 .debug_info    0x0000f462      0x104 /home/dexheimere/Firmware/build_px4fmu-v2_lpe/px4io-v2/NuttX/nuttx-export/libs/libnuttx.a(c-lib_strncpy.o)
 .debug_info    0x0000f566      0x165 /home/dexheimere/Firmware/build_px4fmu-v2_lpe/px4io-v2/NuttX/nuttx-export/libs/libnuttx.a(c-lib_strtol.o)
 .debug_info    0x0000f6cb      0x168 /home/dexheimere/Firmware/build_px4fmu-v2_lpe/px4io-v2/NuttX/nuttx-export/libs/libnuttx.a(c-lib_strtoul.o)
 .debug_info    0x0000f833      0x21c /home/dexheimere/Firmware/build_px4fmu-v2_lpe/px4io-v2/NuttX/nuttx-export/libs/libnuttx.a(c-lib_syslog.o)
 .debug_info    0x0000fa4f      0x194 /home/dexheimere/Firmware/build_px4fmu-v2_lpe/px4io-v2/NuttX/nuttx-export/libs/libnuttx.a(c-lib_tcgetattr.o)
 .debug_info    0x0000fbe3      0x1a8 /home/dexheimere/Firmware/build_px4fmu-v2_lpe/px4io-v2/NuttX/nuttx-export/libs/libnuttx.a(c-lib_tcsetattr.o)
 .debug_info    0x0000fd8b      0x1d2 /home/dexheimere/Firmware/build_px4fmu-v2_lpe/px4io-v2/NuttX/nuttx-export/libs/libnuttx.a(c-lib_vdprintf.o)
 .debug_info    0x0000ff5d      0x228 /home/dexheimere/Firmware/build_px4fmu-v2_lpe/px4io-v2/NuttX/nuttx-export/libs/libnuttx.a(c-lib_vsnprintf.o)
 .debug_info    0x00010185      0x138 /home/dexheimere/Firmware/build_px4fmu-v2_lpe/px4io-v2/NuttX/nuttx-export/libs/libnuttx.a(c-sq_addafter.o)
 .debug_info    0x000102bd      0x109 /home/dexheimere/Firmware/build_px4fmu-v2_lpe/px4io-v2/NuttX/nuttx-export/libs/libnuttx.a(c-sq_addfirst.o)
 .debug_info    0x000103c6      0x109 /home/dexheimere/Firmware/build_px4fmu-v2_lpe/px4io-v2/NuttX/nuttx-export/libs/libnuttx.a(c-sq_addlast.o)
 .debug_info    0x000104cf      0x13a /home/dexheimere/Firmware/build_px4fmu-v2_lpe/px4io-v2/NuttX/nuttx-export/libs/libnuttx.a(c-sq_rem.o)
 .debug_info    0x00010609      0x102 /home/dexheimere/Firmware/build_px4fmu-v2_lpe/px4io-v2/NuttX/nuttx-export/libs/libnuttx.a(mm-mm_calloc.o)
 .debug_info    0x0001070b      0x30e /home/dexheimere/Firmware/build_px4fmu-v2_lpe/px4io-v2/NuttX/nuttx-export/libs/libnuttx.a(mm-mm_free.o)
 .debug_info    0x00010a19      0x364 /home/dexheimere/Firmware/build_px4fmu-v2_lpe/px4io-v2/NuttX/nuttx-export/libs/libnuttx.a(mm-mm_mallinfo.o)
 .debug_info    0x00010d7d      0x372 /home/dexheimere/Firmware/build_px4fmu-v2_lpe/px4io-v2/NuttX/nuttx-export/libs/libnuttx.a(mm-mm_malloc.o)
 .debug_info    0x000110ef      0x3b3 /home/dexheimere/Firmware/build_px4fmu-v2_lpe/px4io-v2/NuttX/nuttx-export/libs/libnuttx.a(mm-mm_sem.o)
 .debug_info    0x000114a2       0xd0 /home/dexheimere/Firmware/build_px4fmu-v2_lpe/px4io-v2/NuttX/nuttx-export/libs/libnuttx.a(mm-mm_size2ndx.o)
 .debug_info    0x00011572      0x333 /home/dexheimere/Firmware/build_px4fmu-v2_lpe/px4io-v2/NuttX/nuttx-export/libs/libnuttx.a(mm-mm_user.o)
 .debug_info    0x000118a5      0x118 /home/dexheimere/Firmware/build_px4fmu-v2_lpe/px4io-v2/NuttX/nuttx-export/libs/libnuttx.a(mm-mm_zalloc.o)
 .debug_info    0x000119bd      0x954 /home/dexheimere/Firmware/build_px4fmu-v2_lpe/px4io-v2/NuttX/nuttx-export/libs/libnuttx.a(arch-stm32_dma.o)
 .debug_info    0x00012311      0x3c1 /home/dexheimere/Firmware/build_px4fmu-v2_lpe/px4io-v2/NuttX/nuttx-export/libs/libnuttx.a(arch-stm32_gpio.o)
 .debug_info    0x000126d2      0x341 /home/dexheimere/Firmware/build_px4fmu-v2_lpe/px4io-v2/NuttX/nuttx-export/libs/libnuttx.a(arch-stm32_irq.o)
 .debug_info    0x00012a13     0x20e2 /home/dexheimere/Firmware/build_px4fmu-v2_lpe/px4io-v2/NuttX/nuttx-export/libs/libnuttx.a(arch-stm32_serial.o)
 .debug_info    0x00014af5      0x189 /home/dexheimere/Firmware/build_px4fmu-v2_lpe/px4io-v2/NuttX/nuttx-export/libs/libnuttx.a(arch-stm32_start.o)
 .debug_info    0x00014c7e      0xdc1 /home/dexheimere/Firmware/build_px4fmu-v2_lpe/px4io-v2/NuttX/nuttx-export/libs/libnuttx.a(arch-up_assert.o)
 .debug_info    0x00015a3f      0x206 /home/dexheimere/Firmware/build_px4fmu-v2_lpe/px4io-v2/NuttX/nuttx-export/libs/libnuttx.a(arch-up_hardfault.o)
 .debug_info    0x00015c45      0x16f /home/dexheimere/Firmware/build_px4fmu-v2_lpe/px4io-v2/NuttX/nuttx-export/libs/libnuttx.a(arch-up_modifyreg32.o)
 .debug_info    0x00015db4      0x14b /home/dexheimere/Firmware/build_px4fmu-v2_lpe/px4io-v2/NuttX/nuttx-export/libs/libnuttx.a(arch-up_svcall.o)
 .debug_info    0x00015eff       0x95 /home/dexheimere/Firmware/build_px4fmu-v2_lpe/px4io-v2/NuttX/nuttx-export/libs/libnuttx.a(arch-up_systemreset.o)
 .debug_info    0x00015f94       0xe0 /home/dexheimere/Firmware/build_px4fmu-v2_lpe/px4io-v2/NuttX/nuttx-export/libs/libnuttx.a(arch-up_udelay.o)
 .debug_info    0x00016074       0x5f /home/dexheimere/Firmware/build_px4fmu-v2_lpe/px4io-v2/NuttX/nuttx-export/libs/libnuttx.a(arch-up_vectors.o)
 .debug_info    0x000160d3      0x349 /home/dexheimere/Firmware/build_px4fmu-v2_lpe/px4io-v2/NuttX/nuttx-export/libs/libnuttx.a(cxx-libxx_cxa_atexit.o)
 .debug_info    0x0001641c       0x98 /home/dexheimere/Firmware/build_px4fmu-v2_lpe/px4io-v2/NuttX/nuttx-export/libs/libnuttx.a(cxx-libxx_cxapurevirtual.o)
 .debug_info    0x000164b4      0x31e /home/dexheimere/Firmware/build_px4fmu-v2_lpe/px4io-v2/NuttX/nuttx-export/libs/libnuttx.a(cxx-libxx_delete.o)
 .debug_info    0x000167d2      0x366 /home/dexheimere/Firmware/build_px4fmu-v2_lpe/px4io-v2/NuttX/nuttx-export/libs/libnuttx.a(cxx-libxx_eabi_atexit.o)
 .debug_info    0x00016b38      0x496 /home/dexheimere/Firmware/build_px4fmu-v2_lpe/px4io-v2/NuttX/nuttx-export/libs/libnuttx.a(cxx-libxx_new.o)
 .debug_info    0x00016fce      0x836 /home/dexheimere/Firmware/build_px4fmu-v2_lpe/px4io-v2/NuttX/nuttx-export/libs/libnuttx.a(fs-fs_ioctl.o)
 .debug_info    0x00017804      0x916 /home/dexheimere/Firmware/build_px4fmu-v2_lpe/px4io-v2/NuttX/nuttx-export/libs/libnuttx.a(fs-fs_open.o)
 .debug_info    0x0001811a      0x8a5 /home/dexheimere/Firmware/build_px4fmu-v2_lpe/px4io-v2/NuttX/nuttx-export/libs/libnuttx.a(fs-fs_read.o)
 .debug_info    0x000189bf      0x8c1 /home/dexheimere/Firmware/build_px4fmu-v2_lpe/px4io-v2/NuttX/nuttx-export/libs/libnuttx.a(fs-fs_write.o)
 .debug_info    0x00019280      0xaa7 /home/dexheimere/Firmware/build_px4fmu-v2_lpe/px4io-v2/NuttX/nuttx-export/libs/libnuttx.a(drivers-serialirq.o)
 .debug_info    0x00019d27     0x1604 /home/dexheimere/Firmware/build_px4fmu-v2_lpe/px4io-v2/NuttX/nuttx-export/libs/libnuttx.a(drivers-serial.o)
 .debug_info    0x0001b32b      0xa8d /home/dexheimere/Firmware/build_px4fmu-v2_lpe/px4io-v2/NuttX/nuttx-export/libs/libnuttx.a(sched-errno_getptr.o)
 .debug_info    0x0001bdb8      0xa61 /home/dexheimere/Firmware/build_px4fmu-v2_lpe/px4io-v2/NuttX/nuttx-export/libs/libnuttx.a(sched-exit.o)
 .debug_info    0x0001c819      0xa03 /home/dexheimere/Firmware/build_px4fmu-v2_lpe/px4io-v2/NuttX/nuttx-export/libs/libnuttx.a(sched-getpid.o)
 .debug_info    0x0001d21c      0xee3 /home/dexheimere/Firmware/build_px4fmu-v2_lpe/px4io-v2/NuttX/nuttx-export/libs/libnuttx.a(sched-os_start.o)
 .debug_info    0x0001e0ff      0x20c /home/dexheimere/Firmware/build_px4fmu-v2_lpe/px4io-v2/NuttX/nuttx-export/libs/libnuttx.a(sched-sched_garbage.o)
 .debug_info    0x0001e30b      0xa2b /home/dexheimere/Firmware/build_px4fmu-v2_lpe/px4io-v2/NuttX/nuttx-export/libs/libnuttx.a(sched-sched_getfiles.o)
 .debug_info    0x0001ed36      0xaff /home/dexheimere/Firmware/build_px4fmu-v2_lpe/px4io-v2/NuttX/nuttx-export/libs/libnuttx.a(sched-sem_post.o)
 .debug_info    0x0001f835      0xae0 /home/dexheimere/Firmware/build_px4fmu-v2_lpe/px4io-v2/NuttX/nuttx-export/libs/libnuttx.a(sched-sem_trywait.o)
 .debug_info    0x00020315      0xb7a /home/dexheimere/Firmware/build_px4fmu-v2_lpe/px4io-v2/NuttX/nuttx-export/libs/libnuttx.a(sched-sem_wait.o)
 .debug_info    0x00020e8f      0x9f3 /home/dexheimere/Firmware/build_px4fmu-v2_lpe/px4io-v2/NuttX/nuttx-export/libs/libnuttx.a(sched-task_exithook.o)
 .debug_info    0x00021882      0xa4c /home/dexheimere/Firmware/build_px4fmu-v2_lpe/px4io-v2/NuttX/nuttx-export/libs/libnuttx.a(sched-task_recover.o)
 .debug_info    0x000222ce      0x306 /home/dexheimere/Firmware/build_px4fmu-v2_lpe/px4io-v2/NuttX/nuttx-export/libs/libnuttx.a(sched-wd_cancel.o)
 .debug_info    0x000225d4      0x2c7 /home/dexheimere/Firmware/build_px4fmu-v2_lpe/px4io-v2/NuttX/nuttx-export/libs/libnuttx.a(sched-wd_delete.o)
 .debug_info    0x0002289b      0x2a6 /home/dexheimere/Firmware/build_px4fmu-v2_lpe/px4io-v2/NuttX/nuttx-export/libs/libnuttx.a(sched-wd_initialize.o)
 .debug_info    0x00022b41      0x115 /home/dexheimere/Firmware/build_px4fmu-v2_lpe/px4io-v2/NuttX/nuttx-export/libs/libnuttx.a(c-dq_addfirst.o)
 .debug_info    0x00022c56      0x161 /home/dexheimere/Firmware/build_px4fmu-v2_lpe/px4io-v2/NuttX/nuttx-export/libs/libnuttx.a(c-lib_cfgetspeed.o)
 .debug_info    0x00022db7      0x101 /home/dexheimere/Firmware/build_px4fmu-v2_lpe/px4io-v2/NuttX/nuttx-export/libs/libnuttx.a(c-lib_checkbase.o)
 .debug_info    0x00022eb8      0x111 /home/dexheimere/Firmware/build_px4fmu-v2_lpe/px4io-v2/NuttX/nuttx-export/libs/libnuttx.a(c-lib_isbasedigit.o)
 .debug_info    0x00022fc9      0xf4d /home/dexheimere/Firmware/build_px4fmu-v2_lpe/px4io-v2/NuttX/nuttx-export/libs/libnuttx.a(c-lib_libvsprintf.o)
 .debug_info    0x00023f16      0x147 /home/dexheimere/Firmware/build_px4fmu-v2_lpe/px4io-v2/NuttX/nuttx-export/libs/libnuttx.a(c-lib_lowoutstream.o)
 .debug_info    0x0002405d      0x18a /home/dexheimere/Firmware/build_px4fmu-v2_lpe/px4io-v2/NuttX/nuttx-export/libs/libnuttx.a(c-lib_memoutstream.o)
 .debug_info    0x000241e7      0x123 /home/dexheimere/Firmware/build_px4fmu-v2_lpe/px4io-v2/NuttX/nuttx-export/libs/libnuttx.a(c-lib_nulloutstream.o)
 .debug_info    0x0002430a      0x1c5 /home/dexheimere/Firmware/build_px4fmu-v2_lpe/px4io-v2/NuttX/nuttx-export/libs/libnuttx.a(c-lib_rawoutstream.o)
 .debug_info    0x000244cf       0xcb /home/dexheimere/Firmware/build_px4fmu-v2_lpe/px4io-v2/NuttX/nuttx-export/libs/libnuttx.a(c-lib_skipspace.o)
 .debug_info    0x0002459a       0xc9 /home/dexheimere/Firmware/build_px4fmu-v2_lpe/px4io-v2/NuttX/nuttx-export/libs/libnuttx.a(c-lib_strcpy.o)
 .debug_info    0x00024663       0xd4 /home/dexheimere/Firmware/build_px4fmu-v2_lpe/px4io-v2/NuttX/nuttx-export/libs/libnuttx.a(c-lib_strlen.o)
 .debug_info    0x00024737      0x10f /home/dexheimere/Firmware/build_px4fmu-v2_lpe/px4io-v2/NuttX/nuttx-export/libs/libnuttx.a(c-sem_init.o)
 .debug_info    0x00024846      0x11e /home/dexheimere/Firmware/build_px4fmu-v2_lpe/px4io-v2/NuttX/nuttx-export/libs/libnuttx.a(c-sq_remafter.o)
 .debug_info    0x00024964      0x10f /home/dexheimere/Firmware/build_px4fmu-v2_lpe/px4io-v2/NuttX/nuttx-export/libs/libnuttx.a(c-sq_remfirst.o)
 .debug_info    0x00024a73      0x26d /home/dexheimere/Firmware/build_px4fmu-v2_lpe/px4io-v2/NuttX/nuttx-export/libs/libnuttx.a(mm-mm_addfreechunk.o)
 .debug_info    0x00024ce0      0x360 /home/dexheimere/Firmware/build_px4fmu-v2_lpe/px4io-v2/NuttX/nuttx-export/libs/libnuttx.a(mm-mm_initialize.o)
 .debug_info    0x00025040       0xfa /home/dexheimere/Firmware/build_px4fmu-v2_lpe/px4io-v2/NuttX/nuttx-export/libs/libnuttx.a(arch-stm32_allocateheap.o)
 .debug_info    0x0002513a       0x99 /home/dexheimere/Firmware/build_px4fmu-v2_lpe/px4io-v2/NuttX/nuttx-export/libs/libnuttx.a(arch-stm32_idle.o)
 .debug_info    0x000251d3      0x122 /home/dexheimere/Firmware/build_px4fmu-v2_lpe/px4io-v2/NuttX/nuttx-export/libs/libnuttx.a(arch-stm32_lowputc.o)
 .debug_info    0x000252f5      0x23e /home/dexheimere/Firmware/build_px4fmu-v2_lpe/px4io-v2/NuttX/nuttx-export/libs/libnuttx.a(arch-stm32_rcc.o)
 .debug_info    0x00025533      0xb65 /home/dexheimere/Firmware/build_px4fmu-v2_lpe/px4io-v2/NuttX/nuttx-export/libs/libnuttx.a(arch-up_blocktask.o)
 .debug_info    0x00026098       0xe1 /home/dexheimere/Firmware/build_px4fmu-v2_lpe/px4io-v2/NuttX/nuttx-export/libs/libnuttx.a(arch-up_copystate.o)
 .debug_info    0x00026179       0x8f /home/dexheimere/Firmware/build_px4fmu-v2_lpe/px4io-v2/NuttX/nuttx-export/libs/libnuttx.a(arch-up_exception.o)
 .debug_info    0x00026208      0xa95 /home/dexheimere/Firmware/build_px4fmu-v2_lpe/px4io-v2/NuttX/nuttx-export/libs/libnuttx.a(arch-up_exit.o)
 .debug_info    0x00026c9d       0x98 /home/dexheimere/Firmware/build_px4fmu-v2_lpe/px4io-v2/NuttX/nuttx-export/libs/libnuttx.a(arch-up_fullcontextrestore.o)
 .debug_info    0x00026d35      0x11e /home/dexheimere/Firmware/build_px4fmu-v2_lpe/px4io-v2/NuttX/nuttx-export/libs/libnuttx.a(arch-up_initialize.o)
 .debug_info    0x00026e53      0x9ef /home/dexheimere/Firmware/build_px4fmu-v2_lpe/px4io-v2/NuttX/nuttx-export/libs/libnuttx.a(arch-up_initialstate.o)
 .debug_info    0x00027842       0xeb /home/dexheimere/Firmware/build_px4fmu-v2_lpe/px4io-v2/NuttX/nuttx-export/libs/libnuttx.a(arch-up_interruptcontext.o)
 .debug_info    0x0002792d       0xc9 /home/dexheimere/Firmware/build_px4fmu-v2_lpe/px4io-v2/NuttX/nuttx-export/libs/libnuttx.a(arch-up_mdelay.o)
 .debug_info    0x000279f6       0x93 /home/dexheimere/Firmware/build_px4fmu-v2_lpe/px4io-v2/NuttX/nuttx-export/libs/libnuttx.a(arch-up_switchcontext.o)
 .debug_info    0x00027a89      0xb17 /home/dexheimere/Firmware/build_px4fmu-v2_lpe/px4io-v2/NuttX/nuttx-export/libs/libnuttx.a(arch-up_unblocktask.o)
 .debug_info    0x000285a0      0xc18 /home/dexheimere/Firmware/build_px4fmu-v2_lpe/px4io-v2/NuttX/nuttx-export/libs/libnuttx.a(fs-fs_files.o)
 .debug_info    0x000291b8      0x73b /home/dexheimere/Firmware/build_px4fmu-v2_lpe/px4io-v2/NuttX/nuttx-export/libs/libnuttx.a(fs-fs_inodeaddref.o)
 .debug_info    0x000298f3      0x792 /home/dexheimere/Firmware/build_px4fmu-v2_lpe/px4io-v2/NuttX/nuttx-export/libs/libnuttx.a(fs-fs_inodefind.o)
 .debug_info    0x0002a085      0x9d5 /home/dexheimere/Firmware/build_px4fmu-v2_lpe/px4io-v2/NuttX/nuttx-export/libs/libnuttx.a(fs-fs_inode.o)
 .debug_info    0x0002aa5a      0x77f /home/dexheimere/Firmware/build_px4fmu-v2_lpe/px4io-v2/NuttX/nuttx-export/libs/libnuttx.a(fs-fs_inoderelease.o)
 .debug_info    0x0002b1d9      0x7af /home/dexheimere/Firmware/build_px4fmu-v2_lpe/px4io-v2/NuttX/nuttx-export/libs/libnuttx.a(fs-fs_registerdriver.o)
 .debug_info    0x0002b988      0xa58 /home/dexheimere/Firmware/build_px4fmu-v2_lpe/px4io-v2/NuttX/nuttx-export/libs/libnuttx.a(sched-group_create.o)
 .debug_info    0x0002c3e0      0xa14 /home/dexheimere/Firmware/build_px4fmu-v2_lpe/px4io-v2/NuttX/nuttx-export/libs/libnuttx.a(sched-group_leave.o)
 .debug_info    0x0002cdf4      0xa90 /home/dexheimere/Firmware/build_px4fmu-v2_lpe/px4io-v2/NuttX/nuttx-export/libs/libnuttx.a(sched-group_setupidlefiles.o)
 .debug_info    0x0002d884      0x152 /home/dexheimere/Firmware/build_px4fmu-v2_lpe/px4io-v2/NuttX/nuttx-export/libs/libnuttx.a(sched-os_bringup.o)
 .debug_info    0x0002d9d6      0xb08 /home/dexheimere/Firmware/build_px4fmu-v2_lpe/px4io-v2/NuttX/nuttx-export/libs/libnuttx.a(sched-sched_addblocked.o)
 .debug_info    0x0002e4de      0xa7a /home/dexheimere/Firmware/build_px4fmu-v2_lpe/px4io-v2/NuttX/nuttx-export/libs/libnuttx.a(sched-sched_addprioritized.o)
 .debug_info    0x0002ef58      0xad2 /home/dexheimere/Firmware/build_px4fmu-v2_lpe/px4io-v2/NuttX/nuttx-export/libs/libnuttx.a(sched-sched_addreadytorun.o)
 .debug_info    0x0002fa2a      0x225 /home/dexheimere/Firmware/build_px4fmu-v2_lpe/px4io-v2/NuttX/nuttx-export/libs/libnuttx.a(sched-sched_free.o)
 .debug_info    0x0002fc4f      0xabd /home/dexheimere/Firmware/build_px4fmu-v2_lpe/px4io-v2/NuttX/nuttx-export/libs/libnuttx.a(sched-sched_mergepending.o)
 .debug_info    0x0003070c      0xaf4 /home/dexheimere/Firmware/build_px4fmu-v2_lpe/px4io-v2/NuttX/nuttx-export/libs/libnuttx.a(sched-sched_removeblocked.o)
 .debug_info    0x00031200      0xaa4 /home/dexheimere/Firmware/build_px4fmu-v2_lpe/px4io-v2/NuttX/nuttx-export/libs/libnuttx.a(sched-sched_removereadytorun.o)
 .debug_info    0x00031ca4      0x106 /home/dexheimere/Firmware/build_px4fmu-v2_lpe/px4io-v2/NuttX/nuttx-export/libs/libnuttx.a(sched-sem_destroy.o)
 .debug_info    0x00031daa      0xdc6 /home/dexheimere/Firmware/build_px4fmu-v2_lpe/px4io-v2/NuttX/nuttx-export/libs/libnuttx.a(sched-task_create.o)
 .debug_info    0x00032b70      0xae1 /home/dexheimere/Firmware/build_px4fmu-v2_lpe/px4io-v2/NuttX/nuttx-export/libs/libnuttx.a(sched-task_exit.o)
 .debug_info    0x00033651      0xe6f /home/dexheimere/Firmware/build_px4fmu-v2_lpe/px4io-v2/NuttX/nuttx-export/libs/libnuttx.a(sched-task_setup.o)
 .debug_info    0x000344c0      0xa90 /home/dexheimere/Firmware/build_px4fmu-v2_lpe/px4io-v2/NuttX/nuttx-export/libs/libnuttx.a(sched-task_start.o)
 .debug_info    0x00034f50      0xc36 /home/dexheimere/Firmware/build_px4fmu-v2_lpe/px4io-v2/NuttX/nuttx-export/libs/libnuttx.a(sched-task_terminate.o)
 .debug_info    0x00035b86      0x115 /home/dexheimere/Firmware/build_px4fmu-v2_lpe/px4io-v2/NuttX/nuttx-export/libs/libnuttx.a(c-dq_addlast.o)
 .debug_info    0x00035c9b      0x131 /home/dexheimere/Firmware/build_px4fmu-v2_lpe/px4io-v2/NuttX/nuttx-export/libs/libnuttx.a(c-dq_rem.o)
 .debug_info    0x00035dcc      0x123 /home/dexheimere/Firmware/build_px4fmu-v2_lpe/px4io-v2/NuttX/nuttx-export/libs/libnuttx.a(c-lib_strdup.o)
 .debug_info    0x00035eef      0x181 /home/dexheimere/Firmware/build_px4fmu-v2_lpe/px4io-v2/NuttX/nuttx-export/libs/libnuttx.a(arch-stm32_timerisr.o)
 .debug_info    0x00036070      0xa20 /home/dexheimere/Firmware/build_px4fmu-v2_lpe/px4io-v2/NuttX/nuttx-export/libs/libnuttx.a(arch-up_createstack.o)
 .debug_info    0x00036a90      0x164 /home/dexheimere/Firmware/build_px4fmu-v2_lpe/px4io-v2/NuttX/nuttx-export/libs/libnuttx.a(arch-up_doirq.o)
 .debug_info    0x00036bf4      0x9bb /home/dexheimere/Firmware/build_px4fmu-v2_lpe/px4io-v2/NuttX/nuttx-export/libs/libnuttx.a(arch-up_releasestack.o)
 .debug_info    0x000375af      0x10f /home/dexheimere/Firmware/build_px4fmu-v2_lpe/px4io-v2/NuttX/nuttx-export/libs/libnuttx.a(fs-fs_close.o)
 .debug_info    0x000376be      0x7e3 /home/dexheimere/Firmware/build_px4fmu-v2_lpe/px4io-v2/NuttX/nuttx-export/libs/libnuttx.a(fs-fs_filedup2.o)
 .debug_info    0x00037ea1      0x9a1 /home/dexheimere/Firmware/build_px4fmu-v2_lpe/px4io-v2/NuttX/nuttx-export/libs/libnuttx.a(fs-fs_inodereserve.o)
 .debug_info    0x00038842      0xa0a /home/dexheimere/Firmware/build_px4fmu-v2_lpe/px4io-v2/NuttX/nuttx-export/libs/libnuttx.a(sched-group_setuptaskfiles.o)
 .debug_info    0x0003924c      0x10e /home/dexheimere/Firmware/build_px4fmu-v2_lpe/px4io-v2/NuttX/nuttx-export/libs/libnuttx.a(sched-irq_dispatch.o)
 .debug_info    0x0003935a      0xa04 /home/dexheimere/Firmware/build_px4fmu-v2_lpe/px4io-v2/NuttX/nuttx-export/libs/libnuttx.a(sched-sched_gettcb.o)
 .debug_info    0x00039d5e      0xa50 /home/dexheimere/Firmware/build_px4fmu-v2_lpe/px4io-v2/NuttX/nuttx-export/libs/libnuttx.a(sched-sched_lock.o)
 .debug_info    0x0003a7ae       0xcf /home/dexheimere/Firmware/build_px4fmu-v2_lpe/px4io-v2/NuttX/nuttx-export/libs/libnuttx.a(sched-sched_processtimer.o)
 .debug_info    0x0003a87d      0xb28 /home/dexheimere/Firmware/build_px4fmu-v2_lpe/px4io-v2/NuttX/nuttx-export/libs/libnuttx.a(sched-sched_releasetcb.o)
 .debug_info    0x0003b3a5      0xae7 /home/dexheimere/Firmware/build_px4fmu-v2_lpe/px4io-v2/NuttX/nuttx-export/libs/libnuttx.a(sched-sched_unlock.o)
 .debug_info    0x0003be8c      0xa41 /home/dexheimere/Firmware/build_px4fmu-v2_lpe/px4io-v2/NuttX/nuttx-export/libs/libnuttx.a(sched-task_activate.o)
 .debug_info    0x0003c8cd      0xa86 /home/dexheimere/Firmware/build_px4fmu-v2_lpe/px4io-v2/NuttX/nuttx-export/libs/libnuttx.a(arch-up_releasepending.o)

.debug_line     0x00000000    0x16edb
 *(.debug_line)
 .debug_line    0x00000000      0x1b9 src/modules/px4iofirmware/CMakeFiles/px4io-v2.dir/adc.c.obj
 .debug_line    0x000001b9      0x43f src/modules/px4iofirmware/CMakeFiles/px4io-v2.dir/controls.c.obj
 .debug_line    0x000005f8      0x399 src/modules/px4iofirmware/CMakeFiles/px4io-v2.dir/px4io.c.obj
 .debug_line    0x00000991      0x479 src/modules/px4iofirmware/CMakeFiles/px4io-v2.dir/registers.c.obj
 .debug_line    0x00000e0a      0x1b8 src/modules/px4iofirmware/CMakeFiles/px4io-v2.dir/safety.c.obj
 .debug_line    0x00000fc2       0xd8 src/modules/px4iofirmware/CMakeFiles/px4io-v2.dir/__/systemlib/up_cxxinitialize.c.obj
 .debug_line    0x0000109a      0x36f src/modules/px4iofirmware/CMakeFiles/px4io-v2.dir/__/systemlib/perf_counter.c.obj
 .debug_line    0x00001409      0x78b src/modules/px4iofirmware/CMakeFiles/px4io-v2.dir/mixer.cpp.obj
 .debug_line    0x00001b94      0x540 src/modules/px4iofirmware/CMakeFiles/px4io-v2.dir/__/systemlib/mixer/mixer.cpp.obj
 .debug_line    0x000020d4      0x4fe src/modules/px4iofirmware/CMakeFiles/px4io-v2.dir/__/systemlib/mixer/mixer_group.cpp.obj
 .debug_line    0x000025d2      0x733 src/modules/px4iofirmware/CMakeFiles/px4io-v2.dir/__/systemlib/mixer/mixer_multirotor.cpp.obj
 .debug_line    0x00002d05      0x5b0 src/modules/px4iofirmware/CMakeFiles/px4io-v2.dir/__/systemlib/mixer/mixer_simple.cpp.obj
 .debug_line    0x000032b5      0x1a7 src/modules/px4iofirmware/CMakeFiles/px4io-v2.dir/__/systemlib/pwm_limit/pwm_limit.c.obj
 .debug_line    0x0000345c      0x1cf src/modules/px4iofirmware/CMakeFiles/px4io-v2.dir/__/__/lib/rc/st24.c.obj
 .debug_line    0x0000362b      0x259 src/modules/px4iofirmware/CMakeFiles/px4io-v2.dir/__/__/lib/rc/sumd.c.obj
 .debug_line    0x00003884      0x32f src/modules/px4iofirmware/CMakeFiles/px4io-v2.dir/__/__/lib/rc/sbus.c.obj
 .debug_line    0x00003bb3      0x39b src/modules/px4iofirmware/CMakeFiles/px4io-v2.dir/__/__/lib/rc/dsm.c.obj
 .debug_line    0x00003f4e      0x486 src/modules/px4iofirmware/CMakeFiles/px4io-v2.dir/__/__/drivers/stm32/drv_hrt.c.obj
 .debug_line    0x000043d4      0x5ea src/modules/px4iofirmware/CMakeFiles/px4io-v2.dir/__/__/drivers/stm32/drv_io_timer.c.obj
 .debug_line    0x000049be      0x1f5 src/modules/px4iofirmware/CMakeFiles/px4io-v2.dir/__/__/drivers/stm32/drv_pwm_servo.c.obj
 .debug_line    0x00004bb3      0x123 src/modules/px4iofirmware/CMakeFiles/px4io-v2.dir/__/__/drivers/boards/px4io-v2/px4io_init.c.obj
 .debug_line    0x00004cd6      0x13a src/modules/px4iofirmware/CMakeFiles/px4io-v2.dir/__/__/drivers/boards/px4io-v2/px4io_timer_config.c.obj
 .debug_line    0x00004e10      0x32b src/modules/px4iofirmware/CMakeFiles/px4io-v2.dir/serial.c.obj
 .debug_line    0x0000513b      0x27d src/modules/px4iofirmware/CMakeFiles/px4io-v2.dir/__/systemlib/hx_stream.c.obj
 .debug_line    0x000053b8      0x196 /home/dexheimere/Firmware/build_px4fmu-v2_lpe/px4io-v2/NuttX/nuttx-export/libs/libnuttx.a(sched-irq_attach.o)
 .debug_line    0x0000554e       0xa8 /home/dexheimere/Firmware/build_px4fmu-v2_lpe/px4io-v2/NuttX/nuttx-export/libs/libnuttx.a(sched-irq_initialize.o)
 .debug_line    0x000055f6      0x16f /home/dexheimere/Firmware/build_px4fmu-v2_lpe/px4io-v2/NuttX/nuttx-export/libs/libnuttx.a(sched-irq_unexpectedisr.o)
 .debug_line    0x00005765       0x9d /home/dexheimere/Firmware/build_px4fmu-v2_lpe/px4io-v2/NuttX/nuttx-export/libs/libnuttx.a(c-lib_abort.o)
 .debug_line    0x00005802      0x10a /home/dexheimere/Firmware/build_px4fmu-v2_lpe/px4io-v2/NuttX/nuttx-export/libs/libnuttx.a(c-lib_cfsetspeed.o)
 .debug_line    0x0000590c      0x175 /home/dexheimere/Firmware/build_px4fmu-v2_lpe/px4io-v2/NuttX/nuttx-export/libs/libnuttx.a(c-lib_crc32.o)
 .debug_line    0x00005a81      0x109 /home/dexheimere/Firmware/build_px4fmu-v2_lpe/px4io-v2/NuttX/nuttx-export/libs/libnuttx.a(c-lib_dprintf.o)
 .debug_line    0x00005b8a      0x195 /home/dexheimere/Firmware/build_px4fmu-v2_lpe/px4io-v2/NuttX/nuttx-export/libs/libnuttx.a(c-lib_lowsyslog.o)
 .debug_line    0x00005d1f      0x162 /home/dexheimere/Firmware/build_px4fmu-v2_lpe/px4io-v2/NuttX/nuttx-export/libs/libnuttx.a(c-lib_memchr.o)
 .debug_line    0x00005e81      0x168 /home/dexheimere/Firmware/build_px4fmu-v2_lpe/px4io-v2/NuttX/nuttx-export/libs/libnuttx.a(c-lib_memcpy.o)
 .debug_line    0x00005fe9      0x16d /home/dexheimere/Firmware/build_px4fmu-v2_lpe/px4io-v2/NuttX/nuttx-export/libs/libnuttx.a(c-lib_memset.o)
 .debug_line    0x00006156      0x10b /home/dexheimere/Firmware/build_px4fmu-v2_lpe/px4io-v2/NuttX/nuttx-export/libs/libnuttx.a(c-lib_printf.o)
 .debug_line    0x00006261      0x35d /home/dexheimere/Firmware/build_px4fmu-v2_lpe/px4io-v2/NuttX/nuttx-export/libs/libnuttx.a(c-lib_sscanf.o)
 .debug_line    0x000065be       0x9e /home/dexheimere/Firmware/build_px4fmu-v2_lpe/px4io-v2/NuttX/nuttx-export/libs/libnuttx.a(c-lib_strchr.o)
 .debug_line    0x0000665c       0xa3 /home/dexheimere/Firmware/build_px4fmu-v2_lpe/px4io-v2/NuttX/nuttx-export/libs/libnuttx.a(c-lib_strcmp.o)
 .debug_line    0x000066ff      0x16b /home/dexheimere/Firmware/build_px4fmu-v2_lpe/px4io-v2/NuttX/nuttx-export/libs/libnuttx.a(c-lib_strcspn.o)
 .debug_line    0x0000686a      0x178 /home/dexheimere/Firmware/build_px4fmu-v2_lpe/px4io-v2/NuttX/nuttx-export/libs/libnuttx.a(c-lib_strncpy.o)
 .debug_line    0x000069e2      0x134 /home/dexheimere/Firmware/build_px4fmu-v2_lpe/px4io-v2/NuttX/nuttx-export/libs/libnuttx.a(c-lib_strtol.o)
 .debug_line    0x00006b16       0xc4 /home/dexheimere/Firmware/build_px4fmu-v2_lpe/px4io-v2/NuttX/nuttx-export/libs/libnuttx.a(c-lib_strtoul.o)
 .debug_line    0x00006bda      0x195 /home/dexheimere/Firmware/build_px4fmu-v2_lpe/px4io-v2/NuttX/nuttx-export/libs/libnuttx.a(c-lib_syslog.o)
 .debug_line    0x00006d6f      0x162 /home/dexheimere/Firmware/build_px4fmu-v2_lpe/px4io-v2/NuttX/nuttx-export/libs/libnuttx.a(c-lib_tcgetattr.o)
 .debug_line    0x00006ed1      0x164 /home/dexheimere/Firmware/build_px4fmu-v2_lpe/px4io-v2/NuttX/nuttx-export/libs/libnuttx.a(c-lib_tcsetattr.o)
 .debug_line    0x00007035      0x17b /home/dexheimere/Firmware/build_px4fmu-v2_lpe/px4io-v2/NuttX/nuttx-export/libs/libnuttx.a(c-lib_vdprintf.o)
 .debug_line    0x000071b0      0x23e /home/dexheimere/Firmware/build_px4fmu-v2_lpe/px4io-v2/NuttX/nuttx-export/libs/libnuttx.a(c-lib_vsnprintf.o)
 .debug_line    0x000073ee       0xa5 /home/dexheimere/Firmware/build_px4fmu-v2_lpe/px4io-v2/NuttX/nuttx-export/libs/libnuttx.a(c-sq_addafter.o)
 .debug_line    0x00007493       0x9d /home/dexheimere/Firmware/build_px4fmu-v2_lpe/px4io-v2/NuttX/nuttx-export/libs/libnuttx.a(c-sq_addfirst.o)
 .debug_line    0x00007530       0x9d /home/dexheimere/Firmware/build_px4fmu-v2_lpe/px4io-v2/NuttX/nuttx-export/libs/libnuttx.a(c-sq_addlast.o)
 .debug_line    0x000075cd       0xa7 /home/dexheimere/Firmware/build_px4fmu-v2_lpe/px4io-v2/NuttX/nuttx-export/libs/libnuttx.a(c-sq_rem.o)
 .debug_line    0x00007674      0x15e /home/dexheimere/Firmware/build_px4fmu-v2_lpe/px4io-v2/NuttX/nuttx-export/libs/libnuttx.a(mm-mm_calloc.o)
 .debug_line    0x000077d2      0x1e0 /home/dexheimere/Firmware/build_px4fmu-v2_lpe/px4io-v2/NuttX/nuttx-export/libs/libnuttx.a(mm-mm_free.o)
 .debug_line    0x000079b2      0x1df /home/dexheimere/Firmware/build_px4fmu-v2_lpe/px4io-v2/NuttX/nuttx-export/libs/libnuttx.a(mm-mm_mallinfo.o)
 .debug_line    0x00007b91      0x1f6 /home/dexheimere/Firmware/build_px4fmu-v2_lpe/px4io-v2/NuttX/nuttx-export/libs/libnuttx.a(mm-mm_malloc.o)
 .debug_line    0x00007d87      0x237 /home/dexheimere/Firmware/build_px4fmu-v2_lpe/px4io-v2/NuttX/nuttx-export/libs/libnuttx.a(mm-mm_sem.o)
 .debug_line    0x00007fbe      0x1b0 /home/dexheimere/Firmware/build_px4fmu-v2_lpe/px4io-v2/NuttX/nuttx-export/libs/libnuttx.a(mm-mm_size2ndx.o)
 .debug_line    0x0000816e      0x1e2 /home/dexheimere/Firmware/build_px4fmu-v2_lpe/px4io-v2/NuttX/nuttx-export/libs/libnuttx.a(mm-mm_user.o)
 .debug_line    0x00008350      0x159 /home/dexheimere/Firmware/build_px4fmu-v2_lpe/px4io-v2/NuttX/nuttx-export/libs/libnuttx.a(mm-mm_zalloc.o)
 .debug_line    0x000084a9      0x329 /home/dexheimere/Firmware/build_px4fmu-v2_lpe/px4io-v2/NuttX/nuttx-export/libs/libnuttx.a(arch-stm32_dma.o)
 .debug_line    0x000087d2      0x211 /home/dexheimere/Firmware/build_px4fmu-v2_lpe/px4io-v2/NuttX/nuttx-export/libs/libnuttx.a(arch-stm32_gpio.o)
 .debug_line    0x000089e3      0x24f /home/dexheimere/Firmware/build_px4fmu-v2_lpe/px4io-v2/NuttX/nuttx-export/libs/libnuttx.a(arch-stm32_irq.o)
 .debug_line    0x00008c32      0x829 /home/dexheimere/Firmware/build_px4fmu-v2_lpe/px4io-v2/NuttX/nuttx-export/libs/libnuttx.a(arch-stm32_serial.o)
 .debug_line    0x0000945b      0x2bd /home/dexheimere/Firmware/build_px4fmu-v2_lpe/px4io-v2/NuttX/nuttx-export/libs/libnuttx.a(arch-stm32_start.o)
 .debug_line    0x00009718      0x3cf /home/dexheimere/Firmware/build_px4fmu-v2_lpe/px4io-v2/NuttX/nuttx-export/libs/libnuttx.a(arch-up_assert.o)
 .debug_line    0x00009ae7      0x1f4 /home/dexheimere/Firmware/build_px4fmu-v2_lpe/px4io-v2/NuttX/nuttx-export/libs/libnuttx.a(arch-up_hardfault.o)
 .debug_line    0x00009cdb      0x170 /home/dexheimere/Firmware/build_px4fmu-v2_lpe/px4io-v2/NuttX/nuttx-export/libs/libnuttx.a(arch-up_modifyreg32.o)
 .debug_line    0x00009e4b      0x180 /home/dexheimere/Firmware/build_px4fmu-v2_lpe/px4io-v2/NuttX/nuttx-export/libs/libnuttx.a(arch-up_svcall.o)
 .debug_line    0x00009fcb      0x100 /home/dexheimere/Firmware/build_px4fmu-v2_lpe/px4io-v2/NuttX/nuttx-export/libs/libnuttx.a(arch-up_systemreset.o)
 .debug_line    0x0000a0cb      0x1ed /home/dexheimere/Firmware/build_px4fmu-v2_lpe/px4io-v2/NuttX/nuttx-export/libs/libnuttx.a(arch-up_udelay.o)
 .debug_line    0x0000a2b8       0x35 /home/dexheimere/Firmware/build_px4fmu-v2_lpe/px4io-v2/NuttX/nuttx-export/libs/libnuttx.a(arch-up_vectors.o)
 .debug_line    0x0000a2ed      0x1de /home/dexheimere/Firmware/build_px4fmu-v2_lpe/px4io-v2/NuttX/nuttx-export/libs/libnuttx.a(cxx-libxx_cxa_atexit.o)
 .debug_line    0x0000a4cb       0xa1 /home/dexheimere/Firmware/build_px4fmu-v2_lpe/px4io-v2/NuttX/nuttx-export/libs/libnuttx.a(cxx-libxx_cxapurevirtual.o)
 .debug_line    0x0000a56c      0x1c1 /home/dexheimere/Firmware/build_px4fmu-v2_lpe/px4io-v2/NuttX/nuttx-export/libs/libnuttx.a(cxx-libxx_delete.o)
 .debug_line    0x0000a72d      0x1de /home/dexheimere/Firmware/build_px4fmu-v2_lpe/px4io-v2/NuttX/nuttx-export/libs/libnuttx.a(cxx-libxx_eabi_atexit.o)
 .debug_line    0x0000a90b      0x1cc /home/dexheimere/Firmware/build_px4fmu-v2_lpe/px4io-v2/NuttX/nuttx-export/libs/libnuttx.a(cxx-libxx_new.o)
 .debug_line    0x0000aad7      0x263 /home/dexheimere/Firmware/build_px4fmu-v2_lpe/px4io-v2/NuttX/nuttx-export/libs/libnuttx.a(fs-fs_ioctl.o)
 .debug_line    0x0000ad3a      0x29d /home/dexheimere/Firmware/build_px4fmu-v2_lpe/px4io-v2/NuttX/nuttx-export/libs/libnuttx.a(fs-fs_open.o)
 .debug_line    0x0000afd7      0x252 /home/dexheimere/Firmware/build_px4fmu-v2_lpe/px4io-v2/NuttX/nuttx-export/libs/libnuttx.a(fs-fs_read.o)
 .debug_line    0x0000b229      0x253 /home/dexheimere/Firmware/build_px4fmu-v2_lpe/px4io-v2/NuttX/nuttx-export/libs/libnuttx.a(fs-fs_write.o)
 .debug_line    0x0000b47c      0x27c /home/dexheimere/Firmware/build_px4fmu-v2_lpe/px4io-v2/NuttX/nuttx-export/libs/libnuttx.a(drivers-serialirq.o)
 .debug_line    0x0000b6f8      0x5c3 /home/dexheimere/Firmware/build_px4fmu-v2_lpe/px4io-v2/NuttX/nuttx-export/libs/libnuttx.a(drivers-serial.o)
 .debug_line    0x0000bcbb      0x2c6 /home/dexheimere/Firmware/build_px4fmu-v2_lpe/px4io-v2/NuttX/nuttx-export/libs/libnuttx.a(sched-errno_getptr.o)
 .debug_line    0x0000bf81      0x2c0 /home/dexheimere/Firmware/build_px4fmu-v2_lpe/px4io-v2/NuttX/nuttx-export/libs/libnuttx.a(sched-exit.o)
 .debug_line    0x0000c241      0x2b1 /home/dexheimere/Firmware/build_px4fmu-v2_lpe/px4io-v2/NuttX/nuttx-export/libs/libnuttx.a(sched-getpid.o)
 .debug_line    0x0000c4f2      0x3a2 /home/dexheimere/Firmware/build_px4fmu-v2_lpe/px4io-v2/NuttX/nuttx-export/libs/libnuttx.a(sched-os_start.o)
 .debug_line    0x0000c894      0x1ee /home/dexheimere/Firmware/build_px4fmu-v2_lpe/px4io-v2/NuttX/nuttx-export/libs/libnuttx.a(sched-sched_garbage.o)
 .debug_line    0x0000ca82      0x2b0 /home/dexheimere/Firmware/build_px4fmu-v2_lpe/px4io-v2/NuttX/nuttx-export/libs/libnuttx.a(sched-sched_getfiles.o)
 .debug_line    0x0000cd32      0x2f3 /home/dexheimere/Firmware/build_px4fmu-v2_lpe/px4io-v2/NuttX/nuttx-export/libs/libnuttx.a(sched-sem_post.o)
 .debug_line    0x0000d025      0x2df /home/dexheimere/Firmware/build_px4fmu-v2_lpe/px4io-v2/NuttX/nuttx-export/libs/libnuttx.a(sched-sem_trywait.o)
 .debug_line    0x0000d304      0x30c /home/dexheimere/Firmware/build_px4fmu-v2_lpe/px4io-v2/NuttX/nuttx-export/libs/libnuttx.a(sched-sem_wait.o)
 .debug_line    0x0000d610      0x2c1 /home/dexheimere/Firmware/build_px4fmu-v2_lpe/px4io-v2/NuttX/nuttx-export/libs/libnuttx.a(sched-task_exithook.o)
 .debug_line    0x0000d8d1      0x2ad /home/dexheimere/Firmware/build_px4fmu-v2_lpe/px4io-v2/NuttX/nuttx-export/libs/libnuttx.a(sched-task_recover.o)
 .debug_line    0x0000db7e      0x1c7 /home/dexheimere/Firmware/build_px4fmu-v2_lpe/px4io-v2/NuttX/nuttx-export/libs/libnuttx.a(sched-wd_cancel.o)
 .debug_line    0x0000dd45      0x1ab /home/dexheimere/Firmware/build_px4fmu-v2_lpe/px4io-v2/NuttX/nuttx-export/libs/libnuttx.a(sched-wd_delete.o)
 .debug_line    0x0000def0      0x1a4 /home/dexheimere/Firmware/build_px4fmu-v2_lpe/px4io-v2/NuttX/nuttx-export/libs/libnuttx.a(sched-wd_initialize.o)
 .debug_line    0x0000e094       0xa0 /home/dexheimere/Firmware/build_px4fmu-v2_lpe/px4io-v2/NuttX/nuttx-export/libs/libnuttx.a(c-dq_addfirst.o)
 .debug_line    0x0000e134      0x109 /home/dexheimere/Firmware/build_px4fmu-v2_lpe/px4io-v2/NuttX/nuttx-export/libs/libnuttx.a(c-lib_cfgetspeed.o)
 .debug_line    0x0000e23d       0x85 /home/dexheimere/Firmware/build_px4fmu-v2_lpe/px4io-v2/NuttX/nuttx-export/libs/libnuttx.a(c-lib_checkbase.o)
 .debug_line    0x0000e2c2      0x130 /home/dexheimere/Firmware/build_px4fmu-v2_lpe/px4io-v2/NuttX/nuttx-export/libs/libnuttx.a(c-lib_isbasedigit.o)
 .debug_line    0x0000e3f2      0x47e /home/dexheimere/Firmware/build_px4fmu-v2_lpe/px4io-v2/NuttX/nuttx-export/libs/libnuttx.a(c-lib_libvsprintf.o)
 .debug_line    0x0000e870       0xc5 /home/dexheimere/Firmware/build_px4fmu-v2_lpe/px4io-v2/NuttX/nuttx-export/libs/libnuttx.a(c-lib_lowoutstream.o)
 .debug_line    0x0000e935       0xc9 /home/dexheimere/Firmware/build_px4fmu-v2_lpe/px4io-v2/NuttX/nuttx-export/libs/libnuttx.a(c-lib_memoutstream.o)
 .debug_line    0x0000e9fe       0xba /home/dexheimere/Firmware/build_px4fmu-v2_lpe/px4io-v2/NuttX/nuttx-export/libs/libnuttx.a(c-lib_nulloutstream.o)
 .debug_line    0x0000eab8      0x128 /home/dexheimere/Firmware/build_px4fmu-v2_lpe/px4io-v2/NuttX/nuttx-export/libs/libnuttx.a(c-lib_rawoutstream.o)
 .debug_line    0x0000ebe0       0x53 /home/dexheimere/Firmware/build_px4fmu-v2_lpe/px4io-v2/NuttX/nuttx-export/libs/libnuttx.a(c-lib_skipspace.o)
 .debug_line    0x0000ec33       0xa0 /home/dexheimere/Firmware/build_px4fmu-v2_lpe/px4io-v2/NuttX/nuttx-export/libs/libnuttx.a(c-lib_strcpy.o)
 .debug_line    0x0000ecd3      0x161 /home/dexheimere/Firmware/build_px4fmu-v2_lpe/px4io-v2/NuttX/nuttx-export/libs/libnuttx.a(c-lib_strlen.o)
 .debug_line    0x0000ee34      0x120 /home/dexheimere/Firmware/build_px4fmu-v2_lpe/px4io-v2/NuttX/nuttx-export/libs/libnuttx.a(c-sem_init.o)
 .debug_line    0x0000ef54       0xaa /home/dexheimere/Firmware/build_px4fmu-v2_lpe/px4io-v2/NuttX/nuttx-export/libs/libnuttx.a(c-sq_remafter.o)
 .debug_line    0x0000effe       0xa0 /home/dexheimere/Firmware/build_px4fmu-v2_lpe/px4io-v2/NuttX/nuttx-export/libs/libnuttx.a(c-sq_remfirst.o)
 .debug_line    0x0000f09e      0x1d2 /home/dexheimere/Firmware/build_px4fmu-v2_lpe/px4io-v2/NuttX/nuttx-export/libs/libnuttx.a(mm-mm_addfreechunk.o)
 .debug_line    0x0000f270      0x205 /home/dexheimere/Firmware/build_px4fmu-v2_lpe/px4io-v2/NuttX/nuttx-export/libs/libnuttx.a(mm-mm_initialize.o)
 .debug_line    0x0000f475      0x21d /home/dexheimere/Firmware/build_px4fmu-v2_lpe/px4io-v2/NuttX/nuttx-export/libs/libnuttx.a(arch-stm32_allocateheap.o)
 .debug_line    0x0000f692       0xa0 /home/dexheimere/Firmware/build_px4fmu-v2_lpe/px4io-v2/NuttX/nuttx-export/libs/libnuttx.a(arch-stm32_idle.o)
 .debug_line    0x0000f732      0x21b /home/dexheimere/Firmware/build_px4fmu-v2_lpe/px4io-v2/NuttX/nuttx-export/libs/libnuttx.a(arch-stm32_lowputc.o)
 .debug_line    0x0000f94d      0x1cd /home/dexheimere/Firmware/build_px4fmu-v2_lpe/px4io-v2/NuttX/nuttx-export/libs/libnuttx.a(arch-stm32_rcc.o)
 .debug_line    0x0000fb1a      0x39d /home/dexheimere/Firmware/build_px4fmu-v2_lpe/px4io-v2/NuttX/nuttx-export/libs/libnuttx.a(arch-up_blocktask.o)
 .debug_line    0x0000feb7      0x10e /home/dexheimere/Firmware/build_px4fmu-v2_lpe/px4io-v2/NuttX/nuttx-export/libs/libnuttx.a(arch-up_copystate.o)
 .debug_line    0x0000ffc5       0x6c /home/dexheimere/Firmware/build_px4fmu-v2_lpe/px4io-v2/NuttX/nuttx-export/libs/libnuttx.a(arch-up_exception.o)
 .debug_line    0x00010031      0x31f /home/dexheimere/Firmware/build_px4fmu-v2_lpe/px4io-v2/NuttX/nuttx-export/libs/libnuttx.a(arch-up_exit.o)
 .debug_line    0x00010350       0x53 /home/dexheimere/Firmware/build_px4fmu-v2_lpe/px4io-v2/NuttX/nuttx-export/libs/libnuttx.a(arch-up_fullcontextrestore.o)
 .debug_line    0x000103a3      0x1cb /home/dexheimere/Firmware/build_px4fmu-v2_lpe/px4io-v2/NuttX/nuttx-export/libs/libnuttx.a(arch-up_initialize.o)
 .debug_line    0x0001056e      0x2bf /home/dexheimere/Firmware/build_px4fmu-v2_lpe/px4io-v2/NuttX/nuttx-export/libs/libnuttx.a(arch-up_initialstate.o)
 .debug_line    0x0001082d      0x17a /home/dexheimere/Firmware/build_px4fmu-v2_lpe/px4io-v2/NuttX/nuttx-export/libs/libnuttx.a(arch-up_interruptcontext.o)
 .debug_line    0x000109a7       0xb9 /home/dexheimere/Firmware/build_px4fmu-v2_lpe/px4io-v2/NuttX/nuttx-export/libs/libnuttx.a(arch-up_mdelay.o)
 .debug_line    0x00010a60       0x4f /home/dexheimere/Firmware/build_px4fmu-v2_lpe/px4io-v2/NuttX/nuttx-export/libs/libnuttx.a(arch-up_switchcontext.o)
 .debug_line    0x00010aaf      0x398 /home/dexheimere/Firmware/build_px4fmu-v2_lpe/px4io-v2/NuttX/nuttx-export/libs/libnuttx.a(arch-up_unblocktask.o)
 .debug_line    0x00010e47      0x369 /home/dexheimere/Firmware/build_px4fmu-v2_lpe/px4io-v2/NuttX/nuttx-export/libs/libnuttx.a(fs-fs_files.o)
 .debug_line    0x000111b0      0x1cc /home/dexheimere/Firmware/build_px4fmu-v2_lpe/px4io-v2/NuttX/nuttx-export/libs/libnuttx.a(fs-fs_inodeaddref.o)
 .debug_line    0x0001137c      0x1da /home/dexheimere/Firmware/build_px4fmu-v2_lpe/px4io-v2/NuttX/nuttx-export/libs/libnuttx.a(fs-fs_inodefind.o)
 .debug_line    0x00011556      0x2a3 /home/dexheimere/Firmware/build_px4fmu-v2_lpe/px4io-v2/NuttX/nuttx-export/libs/libnuttx.a(fs-fs_inode.o)
 .debug_line    0x000117f9      0x1e9 /home/dexheimere/Firmware/build_px4fmu-v2_lpe/px4io-v2/NuttX/nuttx-export/libs/libnuttx.a(fs-fs_inoderelease.o)
 .debug_line    0x000119e2      0x1d8 /home/dexheimere/Firmware/build_px4fmu-v2_lpe/px4io-v2/NuttX/nuttx-export/libs/libnuttx.a(fs-fs_registerdriver.o)
 .debug_line    0x00011bba      0x2bd /home/dexheimere/Firmware/build_px4fmu-v2_lpe/px4io-v2/NuttX/nuttx-export/libs/libnuttx.a(sched-group_create.o)
 .debug_line    0x00011e77      0x2ab /home/dexheimere/Firmware/build_px4fmu-v2_lpe/px4io-v2/NuttX/nuttx-export/libs/libnuttx.a(sched-group_leave.o)
 .debug_line    0x00012122      0x2c0 /home/dexheimere/Firmware/build_px4fmu-v2_lpe/px4io-v2/NuttX/nuttx-export/libs/libnuttx.a(sched-group_setupidlefiles.o)
 .debug_line    0x000123e2      0x16f /home/dexheimere/Firmware/build_px4fmu-v2_lpe/px4io-v2/NuttX/nuttx-export/libs/libnuttx.a(sched-os_bringup.o)
 .debug_line    0x00012551      0x2c9 /home/dexheimere/Firmware/build_px4fmu-v2_lpe/px4io-v2/NuttX/nuttx-export/libs/libnuttx.a(sched-sched_addblocked.o)
 .debug_line    0x0001281a      0x2e3 /home/dexheimere/Firmware/build_px4fmu-v2_lpe/px4io-v2/NuttX/nuttx-export/libs/libnuttx.a(sched-sched_addprioritized.o)
 .debug_line    0x00012afd      0x2df /home/dexheimere/Firmware/build_px4fmu-v2_lpe/px4io-v2/NuttX/nuttx-export/libs/libnuttx.a(sched-sched_addreadytorun.o)
 .debug_line    0x00012ddc      0x1ff /home/dexheimere/Firmware/build_px4fmu-v2_lpe/px4io-v2/NuttX/nuttx-export/libs/libnuttx.a(sched-sched_free.o)
 .debug_line    0x00012fdb      0x2f0 /home/dexheimere/Firmware/build_px4fmu-v2_lpe/px4io-v2/NuttX/nuttx-export/libs/libnuttx.a(sched-sched_mergepending.o)
 .debug_line    0x000132cb      0x2c8 /home/dexheimere/Firmware/build_px4fmu-v2_lpe/px4io-v2/NuttX/nuttx-export/libs/libnuttx.a(sched-sched_removeblocked.o)
 .debug_line    0x00013593      0x2d6 /home/dexheimere/Firmware/build_px4fmu-v2_lpe/px4io-v2/NuttX/nuttx-export/libs/libnuttx.a(sched-sched_removereadytorun.o)
 .debug_line    0x00013869      0x115 /home/dexheimere/Firmware/build_px4fmu-v2_lpe/px4io-v2/NuttX/nuttx-export/libs/libnuttx.a(sched-sem_destroy.o)
 .debug_line    0x0001397e      0x33f /home/dexheimere/Firmware/build_px4fmu-v2_lpe/px4io-v2/NuttX/nuttx-export/libs/libnuttx.a(sched-task_create.o)
 .debug_line    0x00013cbd      0x2c3 /home/dexheimere/Firmware/build_px4fmu-v2_lpe/px4io-v2/NuttX/nuttx-export/libs/libnuttx.a(sched-task_exit.o)
 .debug_line    0x00013f80      0x34f /home/dexheimere/Firmware/build_px4fmu-v2_lpe/px4io-v2/NuttX/nuttx-export/libs/libnuttx.a(sched-task_setup.o)
 .debug_line    0x000142cf      0x2c6 /home/dexheimere/Firmware/build_px4fmu-v2_lpe/px4io-v2/NuttX/nuttx-export/libs/libnuttx.a(sched-task_start.o)
 .debug_line    0x00014595      0x2f4 /home/dexheimere/Firmware/build_px4fmu-v2_lpe/px4io-v2/NuttX/nuttx-export/libs/libnuttx.a(sched-task_terminate.o)
 .debug_line    0x00014889       0x9e /home/dexheimere/Firmware/build_px4fmu-v2_lpe/px4io-v2/NuttX/nuttx-export/libs/libnuttx.a(c-dq_addlast.o)
 .debug_line    0x00014927       0x9e /home/dexheimere/Firmware/build_px4fmu-v2_lpe/px4io-v2/NuttX/nuttx-export/libs/libnuttx.a(c-dq_rem.o)
 .debug_line    0x000149c5       0xab /home/dexheimere/Firmware/build_px4fmu-v2_lpe/px4io-v2/NuttX/nuttx-export/libs/libnuttx.a(c-lib_strdup.o)
 .debug_line    0x00014a70      0x1ed /home/dexheimere/Firmware/build_px4fmu-v2_lpe/px4io-v2/NuttX/nuttx-export/libs/libnuttx.a(arch-stm32_timerisr.o)
 .debug_line    0x00014c5d      0x2ce /home/dexheimere/Firmware/build_px4fmu-v2_lpe/px4io-v2/NuttX/nuttx-export/libs/libnuttx.a(arch-up_createstack.o)
 .debug_line    0x00014f2b      0x1c6 /home/dexheimere/Firmware/build_px4fmu-v2_lpe/px4io-v2/NuttX/nuttx-export/libs/libnuttx.a(arch-up_doirq.o)
 .debug_line    0x000150f1      0x2b5 /home/dexheimere/Firmware/build_px4fmu-v2_lpe/px4io-v2/NuttX/nuttx-export/libs/libnuttx.a(arch-up_releasestack.o)
 .debug_line    0x000153a6       0xc4 /home/dexheimere/Firmware/build_px4fmu-v2_lpe/px4io-v2/NuttX/nuttx-export/libs/libnuttx.a(fs-fs_close.o)
 .debug_line    0x0001546a      0x249 /home/dexheimere/Firmware/build_px4fmu-v2_lpe/px4io-v2/NuttX/nuttx-export/libs/libnuttx.a(fs-fs_filedup2.o)
 .debug_line    0x000156b3      0x25b /home/dexheimere/Firmware/build_px4fmu-v2_lpe/px4io-v2/NuttX/nuttx-export/libs/libnuttx.a(fs-fs_inodereserve.o)
 .debug_line    0x0001590e      0x29b /home/dexheimere/Firmware/build_px4fmu-v2_lpe/px4io-v2/NuttX/nuttx-export/libs/libnuttx.a(sched-group_setuptaskfiles.o)
 .debug_line    0x00015ba9       0xd2 /home/dexheimere/Firmware/build_px4fmu-v2_lpe/px4io-v2/NuttX/nuttx-export/libs/libnuttx.a(sched-irq_dispatch.o)
 .debug_line    0x00015c7b      0x2a9 /home/dexheimere/Firmware/build_px4fmu-v2_lpe/px4io-v2/NuttX/nuttx-export/libs/libnuttx.a(sched-sched_gettcb.o)
 .debug_line    0x00015f24      0x2db /home/dexheimere/Firmware/build_px4fmu-v2_lpe/px4io-v2/NuttX/nuttx-export/libs/libnuttx.a(sched-sched_lock.o)
 .debug_line    0x000161ff       0xc9 /home/dexheimere/Firmware/build_px4fmu-v2_lpe/px4io-v2/NuttX/nuttx-export/libs/libnuttx.a(sched-sched_processtimer.o)
 .debug_line    0x000162c8      0x2f4 /home/dexheimere/Firmware/build_px4fmu-v2_lpe/px4io-v2/NuttX/nuttx-export/libs/libnuttx.a(sched-sched_releasetcb.o)
 .debug_line    0x000165bc      0x2e4 /home/dexheimere/Firmware/build_px4fmu-v2_lpe/px4io-v2/NuttX/nuttx-export/libs/libnuttx.a(sched-sched_unlock.o)
 .debug_line    0x000168a0      0x2bb /home/dexheimere/Firmware/build_px4fmu-v2_lpe/px4io-v2/NuttX/nuttx-export/libs/libnuttx.a(sched-task_activate.o)
 .debug_line    0x00016b5b      0x380 /home/dexheimere/Firmware/build_px4fmu-v2_lpe/px4io-v2/NuttX/nuttx-export/libs/libnuttx.a(arch-up_releasepending.o)

.debug_pubnames
 *(.debug_pubnames)

.debug_aranges  0x00000000     0x1c50
 *(.debug_aranges)
 .debug_aranges
                0x00000000       0x28 src/modules/px4iofirmware/CMakeFiles/px4io-v2.dir/adc.c.obj
 .debug_aranges
                0x00000028       0x28 src/modules/px4iofirmware/CMakeFiles/px4io-v2.dir/controls.c.obj
 .debug_aranges
                0x00000050       0x30 src/modules/px4iofirmware/CMakeFiles/px4io-v2.dir/px4io.c.obj
 .debug_aranges
                0x00000080       0x30 src/modules/px4iofirmware/CMakeFiles/px4io-v2.dir/registers.c.obj
 .debug_aranges
                0x000000b0       0x38 src/modules/px4iofirmware/CMakeFiles/px4io-v2.dir/safety.c.obj
 .debug_aranges
                0x000000e8       0x20 src/modules/px4iofirmware/CMakeFiles/px4io-v2.dir/__/systemlib/up_cxxinitialize.c.obj
 .debug_aranges
                0x00000108       0x90 src/modules/px4iofirmware/CMakeFiles/px4io-v2.dir/__/systemlib/perf_counter.c.obj
 .debug_aranges
                0x00000198       0x40 src/modules/px4iofirmware/CMakeFiles/px4io-v2.dir/mixer.cpp.obj
 .debug_aranges
                0x000001d8       0x78 src/modules/px4iofirmware/CMakeFiles/px4io-v2.dir/__/systemlib/mixer/mixer.cpp.obj
 .debug_aranges
                0x00000250       0x60 src/modules/px4iofirmware/CMakeFiles/px4io-v2.dir/__/systemlib/mixer/mixer_group.cpp.obj
 .debug_aranges
                0x000002b0       0x48 src/modules/px4iofirmware/CMakeFiles/px4io-v2.dir/__/systemlib/mixer/mixer_multirotor.cpp.obj
 .debug_aranges
                0x000002f8       0x68 src/modules/px4iofirmware/CMakeFiles/px4io-v2.dir/__/systemlib/mixer/mixer_simple.cpp.obj
 .debug_aranges
                0x00000360       0x28 src/modules/px4iofirmware/CMakeFiles/px4io-v2.dir/__/systemlib/pwm_limit/pwm_limit.c.obj
 .debug_aranges
                0x00000388       0x28 src/modules/px4iofirmware/CMakeFiles/px4io-v2.dir/__/__/lib/rc/st24.c.obj
 .debug_aranges
                0x000003b0       0x30 src/modules/px4iofirmware/CMakeFiles/px4io-v2.dir/__/__/lib/rc/sumd.c.obj
 .debug_aranges
                0x000003e0       0x50 src/modules/px4iofirmware/CMakeFiles/px4io-v2.dir/__/__/lib/rc/sbus.c.obj
 .debug_aranges
                0x00000430       0x40 src/modules/px4iofirmware/CMakeFiles/px4io-v2.dir/__/__/lib/rc/dsm.c.obj
 .debug_aranges
                0x00000470       0xa0 src/modules/px4iofirmware/CMakeFiles/px4io-v2.dir/__/__/drivers/stm32/drv_hrt.c.obj
 .debug_aranges
                0x00000510       0x98 src/modules/px4iofirmware/CMakeFiles/px4io-v2.dir/__/__/drivers/stm32/drv_io_timer.c.obj
 .debug_aranges
                0x000005a8       0x58 src/modules/px4iofirmware/CMakeFiles/px4io-v2.dir/__/__/drivers/stm32/drv_pwm_servo.c.obj
 .debug_aranges
                0x00000600       0x20 src/modules/px4iofirmware/CMakeFiles/px4io-v2.dir/__/__/drivers/boards/px4io-v2/px4io_init.c.obj
 .debug_aranges
                0x00000620       0x18 src/modules/px4iofirmware/CMakeFiles/px4io-v2.dir/__/__/drivers/boards/px4io-v2/px4io_timer_config.c.obj
 .debug_aranges
                0x00000638       0x38 src/modules/px4iofirmware/CMakeFiles/px4io-v2.dir/serial.c.obj
 .debug_aranges
                0x00000670       0x58 src/modules/px4iofirmware/CMakeFiles/px4io-v2.dir/__/systemlib/hx_stream.c.obj
 .debug_aranges
                0x000006c8       0x20 /home/dexheimere/Firmware/build_px4fmu-v2_lpe/px4io-v2/NuttX/nuttx-export/libs/libnuttx.a(sched-irq_attach.o)
 .debug_aranges
                0x000006e8       0x20 /home/dexheimere/Firmware/build_px4fmu-v2_lpe/px4io-v2/NuttX/nuttx-export/libs/libnuttx.a(sched-irq_initialize.o)
 .debug_aranges
                0x00000708       0x20 /home/dexheimere/Firmware/build_px4fmu-v2_lpe/px4io-v2/NuttX/nuttx-export/libs/libnuttx.a(sched-irq_unexpectedisr.o)
 .debug_aranges
                0x00000728       0x20 /home/dexheimere/Firmware/build_px4fmu-v2_lpe/px4io-v2/NuttX/nuttx-export/libs/libnuttx.a(c-lib_abort.o)
 .debug_aranges
                0x00000748       0x20 /home/dexheimere/Firmware/build_px4fmu-v2_lpe/px4io-v2/NuttX/nuttx-export/libs/libnuttx.a(c-lib_cfsetspeed.o)
 .debug_aranges
                0x00000768       0x28 /home/dexheimere/Firmware/build_px4fmu-v2_lpe/px4io-v2/NuttX/nuttx-export/libs/libnuttx.a(c-lib_crc32.o)
 .debug_aranges
                0x00000790       0x20 /home/dexheimere/Firmware/build_px4fmu-v2_lpe/px4io-v2/NuttX/nuttx-export/libs/libnuttx.a(c-lib_dprintf.o)
 .debug_aranges
                0x000007b0       0x28 /home/dexheimere/Firmware/build_px4fmu-v2_lpe/px4io-v2/NuttX/nuttx-export/libs/libnuttx.a(c-lib_lowsyslog.o)
 .debug_aranges
                0x000007d8       0x20 /home/dexheimere/Firmware/build_px4fmu-v2_lpe/px4io-v2/NuttX/nuttx-export/libs/libnuttx.a(c-lib_memchr.o)
 .debug_aranges
                0x000007f8       0x20 /home/dexheimere/Firmware/build_px4fmu-v2_lpe/px4io-v2/NuttX/nuttx-export/libs/libnuttx.a(c-lib_memcpy.o)
 .debug_aranges
                0x00000818       0x20 /home/dexheimere/Firmware/build_px4fmu-v2_lpe/px4io-v2/NuttX/nuttx-export/libs/libnuttx.a(c-lib_memset.o)
 .debug_aranges
                0x00000838       0x20 /home/dexheimere/Firmware/build_px4fmu-v2_lpe/px4io-v2/NuttX/nuttx-export/libs/libnuttx.a(c-lib_printf.o)
 .debug_aranges
                0x00000858       0x30 /home/dexheimere/Firmware/build_px4fmu-v2_lpe/px4io-v2/NuttX/nuttx-export/libs/libnuttx.a(c-lib_sscanf.o)
 .debug_aranges
                0x00000888       0x20 /home/dexheimere/Firmware/build_px4fmu-v2_lpe/px4io-v2/NuttX/nuttx-export/libs/libnuttx.a(c-lib_strchr.o)
 .debug_aranges
                0x000008a8       0x20 /home/dexheimere/Firmware/build_px4fmu-v2_lpe/px4io-v2/NuttX/nuttx-export/libs/libnuttx.a(c-lib_strcmp.o)
 .debug_aranges
                0x000008c8       0x20 /home/dexheimere/Firmware/build_px4fmu-v2_lpe/px4io-v2/NuttX/nuttx-export/libs/libnuttx.a(c-lib_strcspn.o)
 .debug_aranges
                0x000008e8       0x20 /home/dexheimere/Firmware/build_px4fmu-v2_lpe/px4io-v2/NuttX/nuttx-export/libs/libnuttx.a(c-lib_strncpy.o)
 .debug_aranges
                0x00000908       0x20 /home/dexheimere/Firmware/build_px4fmu-v2_lpe/px4io-v2/NuttX/nuttx-export/libs/libnuttx.a(c-lib_strtol.o)
 .debug_aranges
                0x00000928       0x20 /home/dexheimere/Firmware/build_px4fmu-v2_lpe/px4io-v2/NuttX/nuttx-export/libs/libnuttx.a(c-lib_strtoul.o)
 .debug_aranges
                0x00000948       0x28 /home/dexheimere/Firmware/build_px4fmu-v2_lpe/px4io-v2/NuttX/nuttx-export/libs/libnuttx.a(c-lib_syslog.o)
 .debug_aranges
                0x00000970       0x20 /home/dexheimere/Firmware/build_px4fmu-v2_lpe/px4io-v2/NuttX/nuttx-export/libs/libnuttx.a(c-lib_tcgetattr.o)
 .debug_aranges
                0x00000990       0x20 /home/dexheimere/Firmware/build_px4fmu-v2_lpe/px4io-v2/NuttX/nuttx-export/libs/libnuttx.a(c-lib_tcsetattr.o)
 .debug_aranges
                0x000009b0       0x20 /home/dexheimere/Firmware/build_px4fmu-v2_lpe/px4io-v2/NuttX/nuttx-export/libs/libnuttx.a(c-lib_vdprintf.o)
 .debug_aranges
                0x000009d0       0x20 /home/dexheimere/Firmware/build_px4fmu-v2_lpe/px4io-v2/NuttX/nuttx-export/libs/libnuttx.a(c-lib_vsnprintf.o)
 .debug_aranges
                0x000009f0       0x20 /home/dexheimere/Firmware/build_px4fmu-v2_lpe/px4io-v2/NuttX/nuttx-export/libs/libnuttx.a(c-sq_addafter.o)
 .debug_aranges
                0x00000a10       0x20 /home/dexheimere/Firmware/build_px4fmu-v2_lpe/px4io-v2/NuttX/nuttx-export/libs/libnuttx.a(c-sq_addfirst.o)
 .debug_aranges
                0x00000a30       0x20 /home/dexheimere/Firmware/build_px4fmu-v2_lpe/px4io-v2/NuttX/nuttx-export/libs/libnuttx.a(c-sq_addlast.o)
 .debug_aranges
                0x00000a50       0x20 /home/dexheimere/Firmware/build_px4fmu-v2_lpe/px4io-v2/NuttX/nuttx-export/libs/libnuttx.a(c-sq_rem.o)
 .debug_aranges
                0x00000a70       0x20 /home/dexheimere/Firmware/build_px4fmu-v2_lpe/px4io-v2/NuttX/nuttx-export/libs/libnuttx.a(mm-mm_calloc.o)
 .debug_aranges
                0x00000a90       0x20 /home/dexheimere/Firmware/build_px4fmu-v2_lpe/px4io-v2/NuttX/nuttx-export/libs/libnuttx.a(mm-mm_free.o)
 .debug_aranges
                0x00000ab0       0x20 /home/dexheimere/Firmware/build_px4fmu-v2_lpe/px4io-v2/NuttX/nuttx-export/libs/libnuttx.a(mm-mm_mallinfo.o)
 .debug_aranges
                0x00000ad0       0x20 /home/dexheimere/Firmware/build_px4fmu-v2_lpe/px4io-v2/NuttX/nuttx-export/libs/libnuttx.a(mm-mm_malloc.o)
 .debug_aranges
                0x00000af0       0x38 /home/dexheimere/Firmware/build_px4fmu-v2_lpe/px4io-v2/NuttX/nuttx-export/libs/libnuttx.a(mm-mm_sem.o)
 .debug_aranges
                0x00000b28       0x20 /home/dexheimere/Firmware/build_px4fmu-v2_lpe/px4io-v2/NuttX/nuttx-export/libs/libnuttx.a(mm-mm_size2ndx.o)
 .debug_aranges
                0x00000b48       0x38 /home/dexheimere/Firmware/build_px4fmu-v2_lpe/px4io-v2/NuttX/nuttx-export/libs/libnuttx.a(mm-mm_user.o)
 .debug_aranges
                0x00000b80       0x20 /home/dexheimere/Firmware/build_px4fmu-v2_lpe/px4io-v2/NuttX/nuttx-export/libs/libnuttx.a(mm-mm_zalloc.o)
 .debug_aranges
                0x00000ba0       0x60 /home/dexheimere/Firmware/build_px4fmu-v2_lpe/px4io-v2/NuttX/nuttx-export/libs/libnuttx.a(arch-stm32_dma.o)
 .debug_aranges
                0x00000c00       0x40 /home/dexheimere/Firmware/build_px4fmu-v2_lpe/px4io-v2/NuttX/nuttx-export/libs/libnuttx.a(arch-stm32_gpio.o)
 .debug_aranges
                0x00000c40       0x40 /home/dexheimere/Firmware/build_px4fmu-v2_lpe/px4io-v2/NuttX/nuttx-export/libs/libnuttx.a(arch-stm32_irq.o)
 .debug_aranges
                0x00000c80       0xf0 /home/dexheimere/Firmware/build_px4fmu-v2_lpe/px4io-v2/NuttX/nuttx-export/libs/libnuttx.a(arch-stm32_serial.o)
 .debug_aranges
                0x00000d70       0x20 /home/dexheimere/Firmware/build_px4fmu-v2_lpe/px4io-v2/NuttX/nuttx-export/libs/libnuttx.a(arch-stm32_start.o)
 .debug_aranges
                0x00000d90       0x20 /home/dexheimere/Firmware/build_px4fmu-v2_lpe/px4io-v2/NuttX/nuttx-export/libs/libnuttx.a(arch-up_assert.o)
 .debug_aranges
                0x00000db0       0x20 /home/dexheimere/Firmware/build_px4fmu-v2_lpe/px4io-v2/NuttX/nuttx-export/libs/libnuttx.a(arch-up_hardfault.o)
 .debug_aranges
                0x00000dd0       0x20 /home/dexheimere/Firmware/build_px4fmu-v2_lpe/px4io-v2/NuttX/nuttx-export/libs/libnuttx.a(arch-up_modifyreg32.o)
 .debug_aranges
                0x00000df0       0x20 /home/dexheimere/Firmware/build_px4fmu-v2_lpe/px4io-v2/NuttX/nuttx-export/libs/libnuttx.a(arch-up_svcall.o)
 .debug_aranges
                0x00000e10       0x20 /home/dexheimere/Firmware/build_px4fmu-v2_lpe/px4io-v2/NuttX/nuttx-export/libs/libnuttx.a(arch-up_systemreset.o)
 .debug_aranges
                0x00000e30       0x20 /home/dexheimere/Firmware/build_px4fmu-v2_lpe/px4io-v2/NuttX/nuttx-export/libs/libnuttx.a(arch-up_udelay.o)
 .debug_aranges
                0x00000e50       0x18 /home/dexheimere/Firmware/build_px4fmu-v2_lpe/px4io-v2/NuttX/nuttx-export/libs/libnuttx.a(arch-up_vectors.o)
 .debug_aranges
                0x00000e68       0x20 /home/dexheimere/Firmware/build_px4fmu-v2_lpe/px4io-v2/NuttX/nuttx-export/libs/libnuttx.a(cxx-libxx_cxa_atexit.o)
 .debug_aranges
                0x00000e88       0x20 /home/dexheimere/Firmware/build_px4fmu-v2_lpe/px4io-v2/NuttX/nuttx-export/libs/libnuttx.a(cxx-libxx_cxapurevirtual.o)
 .debug_aranges
                0x00000ea8       0x20 /home/dexheimere/Firmware/build_px4fmu-v2_lpe/px4io-v2/NuttX/nuttx-export/libs/libnuttx.a(cxx-libxx_delete.o)
 .debug_aranges
                0x00000ec8       0x20 /home/dexheimere/Firmware/build_px4fmu-v2_lpe/px4io-v2/NuttX/nuttx-export/libs/libnuttx.a(cxx-libxx_eabi_atexit.o)
 .debug_aranges
                0x00000ee8       0x20 /home/dexheimere/Firmware/build_px4fmu-v2_lpe/px4io-v2/NuttX/nuttx-export/libs/libnuttx.a(cxx-libxx_new.o)
 .debug_aranges
                0x00000f08       0x20 /home/dexheimere/Firmware/build_px4fmu-v2_lpe/px4io-v2/NuttX/nuttx-export/libs/libnuttx.a(fs-fs_ioctl.o)
 .debug_aranges
                0x00000f28       0x28 /home/dexheimere/Firmware/build_px4fmu-v2_lpe/px4io-v2/NuttX/nuttx-export/libs/libnuttx.a(fs-fs_open.o)
 .debug_aranges
                0x00000f50       0x20 /home/dexheimere/Firmware/build_px4fmu-v2_lpe/px4io-v2/NuttX/nuttx-export/libs/libnuttx.a(fs-fs_read.o)
 .debug_aranges
                0x00000f70       0x20 /home/dexheimere/Firmware/build_px4fmu-v2_lpe/px4io-v2/NuttX/nuttx-export/libs/libnuttx.a(fs-fs_write.o)
 .debug_aranges
                0x00000f90       0x28 /home/dexheimere/Firmware/build_px4fmu-v2_lpe/px4io-v2/NuttX/nuttx-export/libs/libnuttx.a(drivers-serialirq.o)
 .debug_aranges
                0x00000fb8       0x70 /home/dexheimere/Firmware/build_px4fmu-v2_lpe/px4io-v2/NuttX/nuttx-export/libs/libnuttx.a(drivers-serial.o)
 .debug_aranges
                0x00001028       0x20 /home/dexheimere/Firmware/build_px4fmu-v2_lpe/px4io-v2/NuttX/nuttx-export/libs/libnuttx.a(sched-errno_getptr.o)
 .debug_aranges
                0x00001048       0x20 /home/dexheimere/Firmware/build_px4fmu-v2_lpe/px4io-v2/NuttX/nuttx-export/libs/libnuttx.a(sched-exit.o)
 .debug_aranges
                0x00001068       0x20 /home/dexheimere/Firmware/build_px4fmu-v2_lpe/px4io-v2/NuttX/nuttx-export/libs/libnuttx.a(sched-getpid.o)
 .debug_aranges
                0x00001088       0x20 /home/dexheimere/Firmware/build_px4fmu-v2_lpe/px4io-v2/NuttX/nuttx-export/libs/libnuttx.a(sched-os_start.o)
 .debug_aranges
                0x000010a8       0x20 /home/dexheimere/Firmware/build_px4fmu-v2_lpe/px4io-v2/NuttX/nuttx-export/libs/libnuttx.a(sched-sched_garbage.o)
 .debug_aranges
                0x000010c8       0x20 /home/dexheimere/Firmware/build_px4fmu-v2_lpe/px4io-v2/NuttX/nuttx-export/libs/libnuttx.a(sched-sched_getfiles.o)
 .debug_aranges
                0x000010e8       0x20 /home/dexheimere/Firmware/build_px4fmu-v2_lpe/px4io-v2/NuttX/nuttx-export/libs/libnuttx.a(sched-sem_post.o)
 .debug_aranges
                0x00001108       0x20 /home/dexheimere/Firmware/build_px4fmu-v2_lpe/px4io-v2/NuttX/nuttx-export/libs/libnuttx.a(sched-sem_trywait.o)
 .debug_aranges
                0x00001128       0x20 /home/dexheimere/Firmware/build_px4fmu-v2_lpe/px4io-v2/NuttX/nuttx-export/libs/libnuttx.a(sched-sem_wait.o)
 .debug_aranges
                0x00001148       0x20 /home/dexheimere/Firmware/build_px4fmu-v2_lpe/px4io-v2/NuttX/nuttx-export/libs/libnuttx.a(sched-task_exithook.o)
 .debug_aranges
                0x00001168       0x20 /home/dexheimere/Firmware/build_px4fmu-v2_lpe/px4io-v2/NuttX/nuttx-export/libs/libnuttx.a(sched-task_recover.o)
 .debug_aranges
                0x00001188       0x20 /home/dexheimere/Firmware/build_px4fmu-v2_lpe/px4io-v2/NuttX/nuttx-export/libs/libnuttx.a(sched-wd_cancel.o)
 .debug_aranges
                0x000011a8       0x20 /home/dexheimere/Firmware/build_px4fmu-v2_lpe/px4io-v2/NuttX/nuttx-export/libs/libnuttx.a(sched-wd_delete.o)
 .debug_aranges
                0x000011c8       0x20 /home/dexheimere/Firmware/build_px4fmu-v2_lpe/px4io-v2/NuttX/nuttx-export/libs/libnuttx.a(sched-wd_initialize.o)
 .debug_aranges
                0x000011e8       0x20 /home/dexheimere/Firmware/build_px4fmu-v2_lpe/px4io-v2/NuttX/nuttx-export/libs/libnuttx.a(c-dq_addfirst.o)
 .debug_aranges
                0x00001208       0x20 /home/dexheimere/Firmware/build_px4fmu-v2_lpe/px4io-v2/NuttX/nuttx-export/libs/libnuttx.a(c-lib_cfgetspeed.o)
 .debug_aranges
                0x00001228       0x20 /home/dexheimere/Firmware/build_px4fmu-v2_lpe/px4io-v2/NuttX/nuttx-export/libs/libnuttx.a(c-lib_checkbase.o)
 .debug_aranges
                0x00001248       0x20 /home/dexheimere/Firmware/build_px4fmu-v2_lpe/px4io-v2/NuttX/nuttx-export/libs/libnuttx.a(c-lib_isbasedigit.o)
 .debug_aranges
                0x00001268       0x80 /home/dexheimere/Firmware/build_px4fmu-v2_lpe/px4io-v2/NuttX/nuttx-export/libs/libnuttx.a(c-lib_libvsprintf.o)
 .debug_aranges
                0x000012e8       0x28 /home/dexheimere/Firmware/build_px4fmu-v2_lpe/px4io-v2/NuttX/nuttx-export/libs/libnuttx.a(c-lib_lowoutstream.o)
 .debug_aranges
                0x00001310       0x28 /home/dexheimere/Firmware/build_px4fmu-v2_lpe/px4io-v2/NuttX/nuttx-export/libs/libnuttx.a(c-lib_memoutstream.o)
 .debug_aranges
                0x00001338       0x28 /home/dexheimere/Firmware/build_px4fmu-v2_lpe/px4io-v2/NuttX/nuttx-export/libs/libnuttx.a(c-lib_nulloutstream.o)
 .debug_aranges
                0x00001360       0x28 /home/dexheimere/Firmware/build_px4fmu-v2_lpe/px4io-v2/NuttX/nuttx-export/libs/libnuttx.a(c-lib_rawoutstream.o)
 .debug_aranges
                0x00001388       0x20 /home/dexheimere/Firmware/build_px4fmu-v2_lpe/px4io-v2/NuttX/nuttx-export/libs/libnuttx.a(c-lib_skipspace.o)
 .debug_aranges
                0x000013a8       0x20 /home/dexheimere/Firmware/build_px4fmu-v2_lpe/px4io-v2/NuttX/nuttx-export/libs/libnuttx.a(c-lib_strcpy.o)
 .debug_aranges
                0x000013c8       0x20 /home/dexheimere/Firmware/build_px4fmu-v2_lpe/px4io-v2/NuttX/nuttx-export/libs/libnuttx.a(c-lib_strlen.o)
 .debug_aranges
                0x000013e8       0x20 /home/dexheimere/Firmware/build_px4fmu-v2_lpe/px4io-v2/NuttX/nuttx-export/libs/libnuttx.a(c-sem_init.o)
 .debug_aranges
                0x00001408       0x20 /home/dexheimere/Firmware/build_px4fmu-v2_lpe/px4io-v2/NuttX/nuttx-export/libs/libnuttx.a(c-sq_remafter.o)
 .debug_aranges
                0x00001428       0x20 /home/dexheimere/Firmware/build_px4fmu-v2_lpe/px4io-v2/NuttX/nuttx-export/libs/libnuttx.a(c-sq_remfirst.o)
 .debug_aranges
                0x00001448       0x20 /home/dexheimere/Firmware/build_px4fmu-v2_lpe/px4io-v2/NuttX/nuttx-export/libs/libnuttx.a(mm-mm_addfreechunk.o)
 .debug_aranges
                0x00001468       0x28 /home/dexheimere/Firmware/build_px4fmu-v2_lpe/px4io-v2/NuttX/nuttx-export/libs/libnuttx.a(mm-mm_initialize.o)
 .debug_aranges
                0x00001490       0x20 /home/dexheimere/Firmware/build_px4fmu-v2_lpe/px4io-v2/NuttX/nuttx-export/libs/libnuttx.a(arch-stm32_allocateheap.o)
 .debug_aranges
                0x000014b0       0x20 /home/dexheimere/Firmware/build_px4fmu-v2_lpe/px4io-v2/NuttX/nuttx-export/libs/libnuttx.a(arch-stm32_idle.o)
 .debug_aranges
                0x000014d0       0x28 /home/dexheimere/Firmware/build_px4fmu-v2_lpe/px4io-v2/NuttX/nuttx-export/libs/libnuttx.a(arch-stm32_lowputc.o)
 .debug_aranges
                0x000014f8       0x20 /home/dexheimere/Firmware/build_px4fmu-v2_lpe/px4io-v2/NuttX/nuttx-export/libs/libnuttx.a(arch-stm32_rcc.o)
 .debug_aranges
                0x00001518       0x20 /home/dexheimere/Firmware/build_px4fmu-v2_lpe/px4io-v2/NuttX/nuttx-export/libs/libnuttx.a(arch-up_blocktask.o)
 .debug_aranges
                0x00001538       0x20 /home/dexheimere/Firmware/build_px4fmu-v2_lpe/px4io-v2/NuttX/nuttx-export/libs/libnuttx.a(arch-up_copystate.o)
 .debug_aranges
                0x00001558       0x20 /home/dexheimere/Firmware/build_px4fmu-v2_lpe/px4io-v2/NuttX/nuttx-export/libs/libnuttx.a(arch-up_exception.o)
 .debug_aranges
                0x00001578       0x20 /home/dexheimere/Firmware/build_px4fmu-v2_lpe/px4io-v2/NuttX/nuttx-export/libs/libnuttx.a(arch-up_exit.o)
 .debug_aranges
                0x00001598       0x20 /home/dexheimere/Firmware/build_px4fmu-v2_lpe/px4io-v2/NuttX/nuttx-export/libs/libnuttx.a(arch-up_fullcontextrestore.o)
 .debug_aranges
                0x000015b8       0x20 /home/dexheimere/Firmware/build_px4fmu-v2_lpe/px4io-v2/NuttX/nuttx-export/libs/libnuttx.a(arch-up_initialize.o)
 .debug_aranges
                0x000015d8       0x20 /home/dexheimere/Firmware/build_px4fmu-v2_lpe/px4io-v2/NuttX/nuttx-export/libs/libnuttx.a(arch-up_initialstate.o)
 .debug_aranges
                0x000015f8       0x20 /home/dexheimere/Firmware/build_px4fmu-v2_lpe/px4io-v2/NuttX/nuttx-export/libs/libnuttx.a(arch-up_interruptcontext.o)
 .debug_aranges
                0x00001618       0x20 /home/dexheimere/Firmware/build_px4fmu-v2_lpe/px4io-v2/NuttX/nuttx-export/libs/libnuttx.a(arch-up_mdelay.o)
 .debug_aranges
                0x00001638       0x20 /home/dexheimere/Firmware/build_px4fmu-v2_lpe/px4io-v2/NuttX/nuttx-export/libs/libnuttx.a(arch-up_switchcontext.o)
 .debug_aranges
                0x00001658       0x20 /home/dexheimere/Firmware/build_px4fmu-v2_lpe/px4io-v2/NuttX/nuttx-export/libs/libnuttx.a(arch-up_unblocktask.o)
 .debug_aranges
                0x00001678       0x60 /home/dexheimere/Firmware/build_px4fmu-v2_lpe/px4io-v2/NuttX/nuttx-export/libs/libnuttx.a(fs-fs_files.o)
 .debug_aranges
                0x000016d8       0x20 /home/dexheimere/Firmware/build_px4fmu-v2_lpe/px4io-v2/NuttX/nuttx-export/libs/libnuttx.a(fs-fs_inodeaddref.o)
 .debug_aranges
                0x000016f8       0x20 /home/dexheimere/Firmware/build_px4fmu-v2_lpe/px4io-v2/NuttX/nuttx-export/libs/libnuttx.a(fs-fs_inodefind.o)
 .debug_aranges
                0x00001718       0x48 /home/dexheimere/Firmware/build_px4fmu-v2_lpe/px4io-v2/NuttX/nuttx-export/libs/libnuttx.a(fs-fs_inode.o)
 .debug_aranges
                0x00001760       0x20 /home/dexheimere/Firmware/build_px4fmu-v2_lpe/px4io-v2/NuttX/nuttx-export/libs/libnuttx.a(fs-fs_inoderelease.o)
 .debug_aranges
                0x00001780       0x20 /home/dexheimere/Firmware/build_px4fmu-v2_lpe/px4io-v2/NuttX/nuttx-export/libs/libnuttx.a(fs-fs_registerdriver.o)
 .debug_aranges
                0x000017a0       0x28 /home/dexheimere/Firmware/build_px4fmu-v2_lpe/px4io-v2/NuttX/nuttx-export/libs/libnuttx.a(sched-group_create.o)
 .debug_aranges
                0x000017c8       0x20 /home/dexheimere/Firmware/build_px4fmu-v2_lpe/px4io-v2/NuttX/nuttx-export/libs/libnuttx.a(sched-group_leave.o)
 .debug_aranges
                0x000017e8       0x20 /home/dexheimere/Firmware/build_px4fmu-v2_lpe/px4io-v2/NuttX/nuttx-export/libs/libnuttx.a(sched-group_setupidlefiles.o)
 .debug_aranges
                0x00001808       0x20 /home/dexheimere/Firmware/build_px4fmu-v2_lpe/px4io-v2/NuttX/nuttx-export/libs/libnuttx.a(sched-os_bringup.o)
 .debug_aranges
                0x00001828       0x20 /home/dexheimere/Firmware/build_px4fmu-v2_lpe/px4io-v2/NuttX/nuttx-export/libs/libnuttx.a(sched-sched_addblocked.o)
 .debug_aranges
                0x00001848       0x20 /home/dexheimere/Firmware/build_px4fmu-v2_lpe/px4io-v2/NuttX/nuttx-export/libs/libnuttx.a(sched-sched_addprioritized.o)
 .debug_aranges
                0x00001868       0x20 /home/dexheimere/Firmware/build_px4fmu-v2_lpe/px4io-v2/NuttX/nuttx-export/libs/libnuttx.a(sched-sched_addreadytorun.o)
 .debug_aranges
                0x00001888       0x20 /home/dexheimere/Firmware/build_px4fmu-v2_lpe/px4io-v2/NuttX/nuttx-export/libs/libnuttx.a(sched-sched_free.o)
 .debug_aranges
                0x000018a8       0x20 /home/dexheimere/Firmware/build_px4fmu-v2_lpe/px4io-v2/NuttX/nuttx-export/libs/libnuttx.a(sched-sched_mergepending.o)
 .debug_aranges
                0x000018c8       0x20 /home/dexheimere/Firmware/build_px4fmu-v2_lpe/px4io-v2/NuttX/nuttx-export/libs/libnuttx.a(sched-sched_removeblocked.o)
 .debug_aranges
                0x000018e8       0x20 /home/dexheimere/Firmware/build_px4fmu-v2_lpe/px4io-v2/NuttX/nuttx-export/libs/libnuttx.a(sched-sched_removereadytorun.o)
 .debug_aranges
                0x00001908       0x20 /home/dexheimere/Firmware/build_px4fmu-v2_lpe/px4io-v2/NuttX/nuttx-export/libs/libnuttx.a(sched-sem_destroy.o)
 .debug_aranges
                0x00001928       0x30 /home/dexheimere/Firmware/build_px4fmu-v2_lpe/px4io-v2/NuttX/nuttx-export/libs/libnuttx.a(sched-task_create.o)
 .debug_aranges
                0x00001958       0x20 /home/dexheimere/Firmware/build_px4fmu-v2_lpe/px4io-v2/NuttX/nuttx-export/libs/libnuttx.a(sched-task_exit.o)
 .debug_aranges
                0x00001978       0x28 /home/dexheimere/Firmware/build_px4fmu-v2_lpe/px4io-v2/NuttX/nuttx-export/libs/libnuttx.a(sched-task_setup.o)
 .debug_aranges
                0x000019a0       0x20 /home/dexheimere/Firmware/build_px4fmu-v2_lpe/px4io-v2/NuttX/nuttx-export/libs/libnuttx.a(sched-task_start.o)
 .debug_aranges
                0x000019c0       0x20 /home/dexheimere/Firmware/build_px4fmu-v2_lpe/px4io-v2/NuttX/nuttx-export/libs/libnuttx.a(sched-task_terminate.o)
 .debug_aranges
                0x000019e0       0x20 /home/dexheimere/Firmware/build_px4fmu-v2_lpe/px4io-v2/NuttX/nuttx-export/libs/libnuttx.a(c-dq_addlast.o)
 .debug_aranges
                0x00001a00       0x20 /home/dexheimere/Firmware/build_px4fmu-v2_lpe/px4io-v2/NuttX/nuttx-export/libs/libnuttx.a(c-dq_rem.o)
 .debug_aranges
                0x00001a20       0x20 /home/dexheimere/Firmware/build_px4fmu-v2_lpe/px4io-v2/NuttX/nuttx-export/libs/libnuttx.a(c-lib_strdup.o)
 .debug_aranges
                0x00001a40       0x28 /home/dexheimere/Firmware/build_px4fmu-v2_lpe/px4io-v2/NuttX/nuttx-export/libs/libnuttx.a(arch-stm32_timerisr.o)
 .debug_aranges
                0x00001a68       0x20 /home/dexheimere/Firmware/build_px4fmu-v2_lpe/px4io-v2/NuttX/nuttx-export/libs/libnuttx.a(arch-up_createstack.o)
 .debug_aranges
                0x00001a88       0x20 /home/dexheimere/Firmware/build_px4fmu-v2_lpe/px4io-v2/NuttX/nuttx-export/libs/libnuttx.a(arch-up_doirq.o)
 .debug_aranges
                0x00001aa8       0x20 /home/dexheimere/Firmware/build_px4fmu-v2_lpe/px4io-v2/NuttX/nuttx-export/libs/libnuttx.a(arch-up_releasestack.o)
 .debug_aranges
                0x00001ac8       0x20 /home/dexheimere/Firmware/build_px4fmu-v2_lpe/px4io-v2/NuttX/nuttx-export/libs/libnuttx.a(fs-fs_close.o)
 .debug_aranges
                0x00001ae8       0x20 /home/dexheimere/Firmware/build_px4fmu-v2_lpe/px4io-v2/NuttX/nuttx-export/libs/libnuttx.a(fs-fs_filedup2.o)
 .debug_aranges
                0x00001b08       0x28 /home/dexheimere/Firmware/build_px4fmu-v2_lpe/px4io-v2/NuttX/nuttx-export/libs/libnuttx.a(fs-fs_inodereserve.o)
 .debug_aranges
                0x00001b30       0x20 /home/dexheimere/Firmware/build_px4fmu-v2_lpe/px4io-v2/NuttX/nuttx-export/libs/libnuttx.a(sched-group_setuptaskfiles.o)
 .debug_aranges
                0x00001b50       0x20 /home/dexheimere/Firmware/build_px4fmu-v2_lpe/px4io-v2/NuttX/nuttx-export/libs/libnuttx.a(sched-irq_dispatch.o)
 .debug_aranges
                0x00001b70       0x20 /home/dexheimere/Firmware/build_px4fmu-v2_lpe/px4io-v2/NuttX/nuttx-export/libs/libnuttx.a(sched-sched_gettcb.o)
 .debug_aranges
                0x00001b90       0x20 /home/dexheimere/Firmware/build_px4fmu-v2_lpe/px4io-v2/NuttX/nuttx-export/libs/libnuttx.a(sched-sched_lock.o)
 .debug_aranges
                0x00001bb0       0x20 /home/dexheimere/Firmware/build_px4fmu-v2_lpe/px4io-v2/NuttX/nuttx-export/libs/libnuttx.a(sched-sched_processtimer.o)
 .debug_aranges
                0x00001bd0       0x20 /home/dexheimere/Firmware/build_px4fmu-v2_lpe/px4io-v2/NuttX/nuttx-export/libs/libnuttx.a(sched-sched_releasetcb.o)
 .debug_aranges
                0x00001bf0       0x20 /home/dexheimere/Firmware/build_px4fmu-v2_lpe/px4io-v2/NuttX/nuttx-export/libs/libnuttx.a(sched-sched_unlock.o)
 .debug_aranges
                0x00001c10       0x20 /home/dexheimere/Firmware/build_px4fmu-v2_lpe/px4io-v2/NuttX/nuttx-export/libs/libnuttx.a(sched-task_activate.o)
 .debug_aranges
                0x00001c30       0x20 /home/dexheimere/Firmware/build_px4fmu-v2_lpe/px4io-v2/NuttX/nuttx-export/libs/libnuttx.a(arch-up_releasepending.o)
OUTPUT(src/modules/px4iofirmware/px4io-v2 elf32-littlearm)

.debug_loc      0x00000000    0x11df7
 .debug_loc     0x00000000       0x4e src/modules/px4iofirmware/CMakeFiles/px4io-v2.dir/adc.c.obj
 .debug_loc     0x0000004e      0x779 src/modules/px4iofirmware/CMakeFiles/px4io-v2.dir/controls.c.obj
 .debug_loc     0x000007c7      0x2da src/modules/px4iofirmware/CMakeFiles/px4io-v2.dir/px4io.c.obj
 .debug_loc     0x00000aa1     0x10e1 src/modules/px4iofirmware/CMakeFiles/px4io-v2.dir/registers.c.obj
 .debug_loc     0x00001b82       0x8d src/modules/px4iofirmware/CMakeFiles/px4io-v2.dir/safety.c.obj
 .debug_loc     0x00001c0f       0x49 src/modules/px4iofirmware/CMakeFiles/px4io-v2.dir/__/systemlib/up_cxxinitialize.c.obj
 .debug_loc     0x00001c58      0x783 src/modules/px4iofirmware/CMakeFiles/px4io-v2.dir/__/systemlib/perf_counter.c.obj
 .debug_loc     0x000023db      0x3a3 src/modules/px4iofirmware/CMakeFiles/px4io-v2.dir/mixer.cpp.obj
 .debug_loc     0x0000277e      0x3d5 src/modules/px4iofirmware/CMakeFiles/px4io-v2.dir/__/systemlib/mixer/mixer.cpp.obj
 .debug_loc     0x00002b53      0x53b src/modules/px4iofirmware/CMakeFiles/px4io-v2.dir/__/systemlib/mixer/mixer_group.cpp.obj
 .debug_loc     0x0000308e      0xd24 src/modules/px4iofirmware/CMakeFiles/px4io-v2.dir/__/systemlib/mixer/mixer_multirotor.cpp.obj
 .debug_loc     0x00003db2      0x808 src/modules/px4iofirmware/CMakeFiles/px4io-v2.dir/__/systemlib/mixer/mixer_simple.cpp.obj
 .debug_loc     0x000045ba      0x473 src/modules/px4iofirmware/CMakeFiles/px4io-v2.dir/__/systemlib/pwm_limit/pwm_limit.c.obj
 .debug_loc     0x00004a2d      0x68e src/modules/px4iofirmware/CMakeFiles/px4io-v2.dir/__/__/lib/rc/st24.c.obj
 .debug_loc     0x000050bb      0x6f8 src/modules/px4iofirmware/CMakeFiles/px4io-v2.dir/__/__/lib/rc/sumd.c.obj
 .debug_loc     0x000057b3      0x8b0 src/modules/px4iofirmware/CMakeFiles/px4io-v2.dir/__/__/lib/rc/sbus.c.obj
 .debug_loc     0x00006063      0xb20 src/modules/px4iofirmware/CMakeFiles/px4io-v2.dir/__/__/lib/rc/dsm.c.obj
 .debug_loc     0x00006b83      0x9f9 src/modules/px4iofirmware/CMakeFiles/px4io-v2.dir/__/__/drivers/stm32/drv_hrt.c.obj
 .debug_loc     0x0000757c     0x121a src/modules/px4iofirmware/CMakeFiles/px4io-v2.dir/__/__/drivers/stm32/drv_io_timer.c.obj
 .debug_loc     0x00008796      0x24b src/modules/px4iofirmware/CMakeFiles/px4io-v2.dir/__/__/drivers/stm32/drv_pwm_servo.c.obj
 .debug_loc     0x000089e1      0x2c3 src/modules/px4iofirmware/CMakeFiles/px4io-v2.dir/serial.c.obj
 .debug_loc     0x00008ca4      0x4a5 src/modules/px4iofirmware/CMakeFiles/px4io-v2.dir/__/systemlib/hx_stream.c.obj
 .debug_loc     0x00009149       0xba /home/dexheimere/Firmware/build_px4fmu-v2_lpe/px4io-v2/NuttX/nuttx-export/libs/libnuttx.a(sched-irq_attach.o)
 .debug_loc     0x00009203       0x1f /home/dexheimere/Firmware/build_px4fmu-v2_lpe/px4io-v2/NuttX/nuttx-export/libs/libnuttx.a(sched-irq_initialize.o)
 .debug_loc     0x00009222       0x42 /home/dexheimere/Firmware/build_px4fmu-v2_lpe/px4io-v2/NuttX/nuttx-export/libs/libnuttx.a(sched-irq_unexpectedisr.o)
 .debug_loc     0x00009264       0x21 /home/dexheimere/Firmware/build_px4fmu-v2_lpe/px4io-v2/NuttX/nuttx-export/libs/libnuttx.a(c-lib_cfsetspeed.o)
 .debug_loc     0x00009285       0xea /home/dexheimere/Firmware/build_px4fmu-v2_lpe/px4io-v2/NuttX/nuttx-export/libs/libnuttx.a(c-lib_crc32.o)
 .debug_loc     0x0000936f       0x21 /home/dexheimere/Firmware/build_px4fmu-v2_lpe/px4io-v2/NuttX/nuttx-export/libs/libnuttx.a(c-lib_dprintf.o)
 .debug_loc     0x00009390       0x47 /home/dexheimere/Firmware/build_px4fmu-v2_lpe/px4io-v2/NuttX/nuttx-export/libs/libnuttx.a(c-lib_lowsyslog.o)
 .debug_loc     0x000093d7       0xb8 /home/dexheimere/Firmware/build_px4fmu-v2_lpe/px4io-v2/NuttX/nuttx-export/libs/libnuttx.a(c-lib_memchr.o)
 .debug_loc     0x0000948f       0x87 /home/dexheimere/Firmware/build_px4fmu-v2_lpe/px4io-v2/NuttX/nuttx-export/libs/libnuttx.a(c-lib_memcpy.o)
 .debug_loc     0x00009516       0x49 /home/dexheimere/Firmware/build_px4fmu-v2_lpe/px4io-v2/NuttX/nuttx-export/libs/libnuttx.a(c-lib_memset.o)
 .debug_loc     0x0000955f      0x530 /home/dexheimere/Firmware/build_px4fmu-v2_lpe/px4io-v2/NuttX/nuttx-export/libs/libnuttx.a(c-lib_sscanf.o)
 .debug_loc     0x00009a8f       0x21 /home/dexheimere/Firmware/build_px4fmu-v2_lpe/px4io-v2/NuttX/nuttx-export/libs/libnuttx.a(c-lib_strchr.o)
 .debug_loc     0x00009ab0       0x63 /home/dexheimere/Firmware/build_px4fmu-v2_lpe/px4io-v2/NuttX/nuttx-export/libs/libnuttx.a(c-lib_strcmp.o)
 .debug_loc     0x00009b13       0x5b /home/dexheimere/Firmware/build_px4fmu-v2_lpe/px4io-v2/NuttX/nuttx-export/libs/libnuttx.a(c-lib_strcspn.o)
 .debug_loc     0x00009b6e       0x9a /home/dexheimere/Firmware/build_px4fmu-v2_lpe/px4io-v2/NuttX/nuttx-export/libs/libnuttx.a(c-lib_strncpy.o)
 .debug_loc     0x00009c08       0xb2 /home/dexheimere/Firmware/build_px4fmu-v2_lpe/px4io-v2/NuttX/nuttx-export/libs/libnuttx.a(c-lib_strtol.o)
 .debug_loc     0x00009cba      0x103 /home/dexheimere/Firmware/build_px4fmu-v2_lpe/px4io-v2/NuttX/nuttx-export/libs/libnuttx.a(c-lib_strtoul.o)
 .debug_loc     0x00009dbd       0x3c /home/dexheimere/Firmware/build_px4fmu-v2_lpe/px4io-v2/NuttX/nuttx-export/libs/libnuttx.a(c-lib_syslog.o)
 .debug_loc     0x00009df9       0x4d /home/dexheimere/Firmware/build_px4fmu-v2_lpe/px4io-v2/NuttX/nuttx-export/libs/libnuttx.a(c-lib_tcgetattr.o)
 .debug_loc     0x00009e46       0x92 /home/dexheimere/Firmware/build_px4fmu-v2_lpe/px4io-v2/NuttX/nuttx-export/libs/libnuttx.a(c-lib_tcsetattr.o)
 .debug_loc     0x00009ed8       0x68 /home/dexheimere/Firmware/build_px4fmu-v2_lpe/px4io-v2/NuttX/nuttx-export/libs/libnuttx.a(c-lib_vdprintf.o)
 .debug_loc     0x00009f40       0x94 /home/dexheimere/Firmware/build_px4fmu-v2_lpe/px4io-v2/NuttX/nuttx-export/libs/libnuttx.a(c-lib_vsnprintf.o)
 .debug_loc     0x00009fd4       0xa8 /home/dexheimere/Firmware/build_px4fmu-v2_lpe/px4io-v2/NuttX/nuttx-export/libs/libnuttx.a(c-sq_addafter.o)
 .debug_loc     0x0000a07c       0x76 /home/dexheimere/Firmware/build_px4fmu-v2_lpe/px4io-v2/NuttX/nuttx-export/libs/libnuttx.a(c-sq_rem.o)
 .debug_loc     0x0000a0f2       0x7a /home/dexheimere/Firmware/build_px4fmu-v2_lpe/px4io-v2/NuttX/nuttx-export/libs/libnuttx.a(mm-mm_calloc.o)
 .debug_loc     0x0000a16c       0xf8 /home/dexheimere/Firmware/build_px4fmu-v2_lpe/px4io-v2/NuttX/nuttx-export/libs/libnuttx.a(mm-mm_free.o)
 .debug_loc     0x0000a264       0xec /home/dexheimere/Firmware/build_px4fmu-v2_lpe/px4io-v2/NuttX/nuttx-export/libs/libnuttx.a(mm-mm_mallinfo.o)
 .debug_loc     0x0000a350      0x178 /home/dexheimere/Firmware/build_px4fmu-v2_lpe/px4io-v2/NuttX/nuttx-export/libs/libnuttx.a(mm-mm_malloc.o)
 .debug_loc     0x0000a4c8       0xba /home/dexheimere/Firmware/build_px4fmu-v2_lpe/px4io-v2/NuttX/nuttx-export/libs/libnuttx.a(mm-mm_sem.o)
 .debug_loc     0x0000a582       0x62 /home/dexheimere/Firmware/build_px4fmu-v2_lpe/px4io-v2/NuttX/nuttx-export/libs/libnuttx.a(mm-mm_size2ndx.o)
 .debug_loc     0x0000a5e4       0xb0 /home/dexheimere/Firmware/build_px4fmu-v2_lpe/px4io-v2/NuttX/nuttx-export/libs/libnuttx.a(mm-mm_user.o)
 .debug_loc     0x0000a694       0x3c /home/dexheimere/Firmware/build_px4fmu-v2_lpe/px4io-v2/NuttX/nuttx-export/libs/libnuttx.a(mm-mm_zalloc.o)
 .debug_loc     0x0000a6d0      0x734 /home/dexheimere/Firmware/build_px4fmu-v2_lpe/px4io-v2/NuttX/nuttx-export/libs/libnuttx.a(arch-stm32_dma.o)
 .debug_loc     0x0000ae04      0x3f2 /home/dexheimere/Firmware/build_px4fmu-v2_lpe/px4io-v2/NuttX/nuttx-export/libs/libnuttx.a(arch-stm32_gpio.o)
 .debug_loc     0x0000b1f6      0x153 /home/dexheimere/Firmware/build_px4fmu-v2_lpe/px4io-v2/NuttX/nuttx-export/libs/libnuttx.a(arch-stm32_irq.o)
 .debug_loc     0x0000b349     0x1167 /home/dexheimere/Firmware/build_px4fmu-v2_lpe/px4io-v2/NuttX/nuttx-export/libs/libnuttx.a(arch-stm32_serial.o)
 .debug_loc     0x0000c4b0       0x4e /home/dexheimere/Firmware/build_px4fmu-v2_lpe/px4io-v2/NuttX/nuttx-export/libs/libnuttx.a(arch-stm32_start.o)
 .debug_loc     0x0000c4fe      0x12f /home/dexheimere/Firmware/build_px4fmu-v2_lpe/px4io-v2/NuttX/nuttx-export/libs/libnuttx.a(arch-up_assert.o)
 .debug_loc     0x0000c62d       0xe0 /home/dexheimere/Firmware/build_px4fmu-v2_lpe/px4io-v2/NuttX/nuttx-export/libs/libnuttx.a(arch-up_hardfault.o)
 .debug_loc     0x0000c70d       0x6b /home/dexheimere/Firmware/build_px4fmu-v2_lpe/px4io-v2/NuttX/nuttx-export/libs/libnuttx.a(arch-up_modifyreg32.o)
 .debug_loc     0x0000c778      0x12d /home/dexheimere/Firmware/build_px4fmu-v2_lpe/px4io-v2/NuttX/nuttx-export/libs/libnuttx.a(arch-up_svcall.o)
 .debug_loc     0x0000c8a5       0x1e /home/dexheimere/Firmware/build_px4fmu-v2_lpe/px4io-v2/NuttX/nuttx-export/libs/libnuttx.a(arch-up_systemreset.o)
 .debug_loc     0x0000c8c3       0x1e /home/dexheimere/Firmware/build_px4fmu-v2_lpe/px4io-v2/NuttX/nuttx-export/libs/libnuttx.a(arch-up_udelay.o)
 .debug_loc     0x0000c8e1       0x21 /home/dexheimere/Firmware/build_px4fmu-v2_lpe/px4io-v2/NuttX/nuttx-export/libs/libnuttx.a(cxx-libxx_cxa_atexit.o)
 .debug_loc     0x0000c902       0x21 /home/dexheimere/Firmware/build_px4fmu-v2_lpe/px4io-v2/NuttX/nuttx-export/libs/libnuttx.a(cxx-libxx_delete.o)
 .debug_loc     0x0000c923       0x79 /home/dexheimere/Firmware/build_px4fmu-v2_lpe/px4io-v2/NuttX/nuttx-export/libs/libnuttx.a(cxx-libxx_eabi_atexit.o)
 .debug_loc     0x0000c99c       0x4e /home/dexheimere/Firmware/build_px4fmu-v2_lpe/px4io-v2/NuttX/nuttx-export/libs/libnuttx.a(cxx-libxx_new.o)
 .debug_loc     0x0000c9ea      0x187 /home/dexheimere/Firmware/build_px4fmu-v2_lpe/px4io-v2/NuttX/nuttx-export/libs/libnuttx.a(fs-fs_ioctl.o)
 .debug_loc     0x0000cb71      0x1f8 /home/dexheimere/Firmware/build_px4fmu-v2_lpe/px4io-v2/NuttX/nuttx-export/libs/libnuttx.a(fs-fs_open.o)
 .debug_loc     0x0000cd69      0x27d /home/dexheimere/Firmware/build_px4fmu-v2_lpe/px4io-v2/NuttX/nuttx-export/libs/libnuttx.a(fs-fs_read.o)
 .debug_loc     0x0000cfe6      0x202 /home/dexheimere/Firmware/build_px4fmu-v2_lpe/px4io-v2/NuttX/nuttx-export/libs/libnuttx.a(fs-fs_write.o)
 .debug_loc     0x0000d1e8      0x10e /home/dexheimere/Firmware/build_px4fmu-v2_lpe/px4io-v2/NuttX/nuttx-export/libs/libnuttx.a(drivers-serialirq.o)
 .debug_loc     0x0000d2f6      0x7fa /home/dexheimere/Firmware/build_px4fmu-v2_lpe/px4io-v2/NuttX/nuttx-export/libs/libnuttx.a(drivers-serial.o)
 .debug_loc     0x0000daf0       0x20 /home/dexheimere/Firmware/build_px4fmu-v2_lpe/px4io-v2/NuttX/nuttx-export/libs/libnuttx.a(sched-errno_getptr.o)
 .debug_loc     0x0000db10       0x31 /home/dexheimere/Firmware/build_px4fmu-v2_lpe/px4io-v2/NuttX/nuttx-export/libs/libnuttx.a(sched-exit.o)
 .debug_loc     0x0000db41       0x38 /home/dexheimere/Firmware/build_px4fmu-v2_lpe/px4io-v2/NuttX/nuttx-export/libs/libnuttx.a(sched-os_start.o)
 .debug_loc     0x0000db79       0x13 /home/dexheimere/Firmware/build_px4fmu-v2_lpe/px4io-v2/NuttX/nuttx-export/libs/libnuttx.a(sched-sched_garbage.o)
 .debug_loc     0x0000db8c       0x1f /home/dexheimere/Firmware/build_px4fmu-v2_lpe/px4io-v2/NuttX/nuttx-export/libs/libnuttx.a(sched-sched_getfiles.o)
 .debug_loc     0x0000dbab       0xca /home/dexheimere/Firmware/build_px4fmu-v2_lpe/px4io-v2/NuttX/nuttx-export/libs/libnuttx.a(sched-sem_post.o)
 .debug_loc     0x0000dc75       0x8a /home/dexheimere/Firmware/build_px4fmu-v2_lpe/px4io-v2/NuttX/nuttx-export/libs/libnuttx.a(sched-sem_trywait.o)
 .debug_loc     0x0000dcff       0xa3 /home/dexheimere/Firmware/build_px4fmu-v2_lpe/px4io-v2/NuttX/nuttx-export/libs/libnuttx.a(sched-sem_wait.o)
 .debug_loc     0x0000dda2       0x60 /home/dexheimere/Firmware/build_px4fmu-v2_lpe/px4io-v2/NuttX/nuttx-export/libs/libnuttx.a(sched-task_exithook.o)
 .debug_loc     0x0000de02       0x31 /home/dexheimere/Firmware/build_px4fmu-v2_lpe/px4io-v2/NuttX/nuttx-export/libs/libnuttx.a(sched-task_recover.o)
 .debug_loc     0x0000de33       0xeb /home/dexheimere/Firmware/build_px4fmu-v2_lpe/px4io-v2/NuttX/nuttx-export/libs/libnuttx.a(sched-wd_cancel.o)
 .debug_loc     0x0000df1e       0x55 /home/dexheimere/Firmware/build_px4fmu-v2_lpe/px4io-v2/NuttX/nuttx-export/libs/libnuttx.a(sched-wd_delete.o)
 .debug_loc     0x0000df73       0x1e /home/dexheimere/Firmware/build_px4fmu-v2_lpe/px4io-v2/NuttX/nuttx-export/libs/libnuttx.a(sched-wd_initialize.o)
 .debug_loc     0x0000df91       0x21 /home/dexheimere/Firmware/build_px4fmu-v2_lpe/px4io-v2/NuttX/nuttx-export/libs/libnuttx.a(c-lib_cfgetspeed.o)
 .debug_loc     0x0000dfb2       0xd8 /home/dexheimere/Firmware/build_px4fmu-v2_lpe/px4io-v2/NuttX/nuttx-export/libs/libnuttx.a(c-lib_checkbase.o)
 .debug_loc     0x0000e08a      0x159 /home/dexheimere/Firmware/build_px4fmu-v2_lpe/px4io-v2/NuttX/nuttx-export/libs/libnuttx.a(c-lib_isbasedigit.o)
 .debug_loc     0x0000e1e3     0x1289 /home/dexheimere/Firmware/build_px4fmu-v2_lpe/px4io-v2/NuttX/nuttx-export/libs/libnuttx.a(c-lib_libvsprintf.o)
 .debug_loc     0x0000f46c       0x3f /home/dexheimere/Firmware/build_px4fmu-v2_lpe/px4io-v2/NuttX/nuttx-export/libs/libnuttx.a(c-lib_lowoutstream.o)
 .debug_loc     0x0000f4ab       0x41 /home/dexheimere/Firmware/build_px4fmu-v2_lpe/px4io-v2/NuttX/nuttx-export/libs/libnuttx.a(c-lib_memoutstream.o)
 .debug_loc     0x0000f4ec       0x70 /home/dexheimere/Firmware/build_px4fmu-v2_lpe/px4io-v2/NuttX/nuttx-export/libs/libnuttx.a(c-lib_rawoutstream.o)
 .debug_loc     0x0000f55c       0x1f /home/dexheimere/Firmware/build_px4fmu-v2_lpe/px4io-v2/NuttX/nuttx-export/libs/libnuttx.a(c-lib_skipspace.o)
 .debug_loc     0x0000f57b       0x3e /home/dexheimere/Firmware/build_px4fmu-v2_lpe/px4io-v2/NuttX/nuttx-export/libs/libnuttx.a(c-lib_strcpy.o)
 .debug_loc     0x0000f5b9       0x57 /home/dexheimere/Firmware/build_px4fmu-v2_lpe/px4io-v2/NuttX/nuttx-export/libs/libnuttx.a(c-lib_strlen.o)
 .debug_loc     0x0000f610       0x7c /home/dexheimere/Firmware/build_px4fmu-v2_lpe/px4io-v2/NuttX/nuttx-export/libs/libnuttx.a(c-sem_init.o)
 .debug_loc     0x0000f68c       0x42 /home/dexheimere/Firmware/build_px4fmu-v2_lpe/px4io-v2/NuttX/nuttx-export/libs/libnuttx.a(c-sq_remafter.o)
 .debug_loc     0x0000f6ce       0x21 /home/dexheimere/Firmware/build_px4fmu-v2_lpe/px4io-v2/NuttX/nuttx-export/libs/libnuttx.a(c-sq_remfirst.o)
 .debug_loc     0x0000f6ef       0x97 /home/dexheimere/Firmware/build_px4fmu-v2_lpe/px4io-v2/NuttX/nuttx-export/libs/libnuttx.a(mm-mm_addfreechunk.o)
 .debug_loc     0x0000f786      0x230 /home/dexheimere/Firmware/build_px4fmu-v2_lpe/px4io-v2/NuttX/nuttx-export/libs/libnuttx.a(mm-mm_initialize.o)
 .debug_loc     0x0000f9b6       0x89 /home/dexheimere/Firmware/build_px4fmu-v2_lpe/px4io-v2/NuttX/nuttx-export/libs/libnuttx.a(arch-stm32_lowputc.o)
 .debug_loc     0x0000fa3f       0xde /home/dexheimere/Firmware/build_px4fmu-v2_lpe/px4io-v2/NuttX/nuttx-export/libs/libnuttx.a(arch-stm32_rcc.o)
 .debug_loc     0x0000fb1d      0x121 /home/dexheimere/Firmware/build_px4fmu-v2_lpe/px4io-v2/NuttX/nuttx-export/libs/libnuttx.a(arch-up_blocktask.o)
 .debug_loc     0x0000fc3e       0x5b /home/dexheimere/Firmware/build_px4fmu-v2_lpe/px4io-v2/NuttX/nuttx-export/libs/libnuttx.a(arch-up_copystate.o)
 .debug_loc     0x0000fc99       0x41 /home/dexheimere/Firmware/build_px4fmu-v2_lpe/px4io-v2/NuttX/nuttx-export/libs/libnuttx.a(arch-up_exit.o)
 .debug_loc     0x0000fcda       0x4b /home/dexheimere/Firmware/build_px4fmu-v2_lpe/px4io-v2/NuttX/nuttx-export/libs/libnuttx.a(arch-up_initialstate.o)
 .debug_loc     0x0000fd25       0xc9 /home/dexheimere/Firmware/build_px4fmu-v2_lpe/px4io-v2/NuttX/nuttx-export/libs/libnuttx.a(arch-up_unblocktask.o)
 .debug_loc     0x0000fdee      0x3f6 /home/dexheimere/Firmware/build_px4fmu-v2_lpe/px4io-v2/NuttX/nuttx-export/libs/libnuttx.a(fs-fs_files.o)
 .debug_loc     0x000101e4       0x37 /home/dexheimere/Firmware/build_px4fmu-v2_lpe/px4io-v2/NuttX/nuttx-export/libs/libnuttx.a(fs-fs_inodeaddref.o)
 .debug_loc     0x0001021b       0xb1 /home/dexheimere/Firmware/build_px4fmu-v2_lpe/px4io-v2/NuttX/nuttx-export/libs/libnuttx.a(fs-fs_inodefind.o)
 .debug_loc     0x000102cc      0x2a2 /home/dexheimere/Firmware/build_px4fmu-v2_lpe/px4io-v2/NuttX/nuttx-export/libs/libnuttx.a(fs-fs_inode.o)
 .debug_loc     0x0001056e       0x5b /home/dexheimere/Firmware/build_px4fmu-v2_lpe/px4io-v2/NuttX/nuttx-export/libs/libnuttx.a(fs-fs_inoderelease.o)
 .debug_loc     0x000105c9       0xa7 /home/dexheimere/Firmware/build_px4fmu-v2_lpe/px4io-v2/NuttX/nuttx-export/libs/libnuttx.a(fs-fs_registerdriver.o)
 .debug_loc     0x00010670       0x7d /home/dexheimere/Firmware/build_px4fmu-v2_lpe/px4io-v2/NuttX/nuttx-export/libs/libnuttx.a(sched-group_create.o)
 .debug_loc     0x000106ed       0x31 /home/dexheimere/Firmware/build_px4fmu-v2_lpe/px4io-v2/NuttX/nuttx-export/libs/libnuttx.a(sched-group_leave.o)
 .debug_loc     0x0001071e       0x78 /home/dexheimere/Firmware/build_px4fmu-v2_lpe/px4io-v2/NuttX/nuttx-export/libs/libnuttx.a(sched-group_setupidlefiles.o)
 .debug_loc     0x00010796       0x1e /home/dexheimere/Firmware/build_px4fmu-v2_lpe/px4io-v2/NuttX/nuttx-export/libs/libnuttx.a(sched-os_bringup.o)
 .debug_loc     0x000107b4       0x92 /home/dexheimere/Firmware/build_px4fmu-v2_lpe/px4io-v2/NuttX/nuttx-export/libs/libnuttx.a(sched-sched_addblocked.o)
 .debug_loc     0x00010846      0x15a /home/dexheimere/Firmware/build_px4fmu-v2_lpe/px4io-v2/NuttX/nuttx-export/libs/libnuttx.a(sched-sched_addprioritized.o)
 .debug_loc     0x000109a0       0x80 /home/dexheimere/Firmware/build_px4fmu-v2_lpe/px4io-v2/NuttX/nuttx-export/libs/libnuttx.a(sched-sched_addreadytorun.o)
 .debug_loc     0x00010a20       0x2c /home/dexheimere/Firmware/build_px4fmu-v2_lpe/px4io-v2/NuttX/nuttx-export/libs/libnuttx.a(sched-sched_free.o)
 .debug_loc     0x00010a4c       0xba /home/dexheimere/Firmware/build_px4fmu-v2_lpe/px4io-v2/NuttX/nuttx-export/libs/libnuttx.a(sched-sched_mergepending.o)
 .debug_loc     0x00010b06       0x60 /home/dexheimere/Firmware/build_px4fmu-v2_lpe/px4io-v2/NuttX/nuttx-export/libs/libnuttx.a(sched-sched_removeblocked.o)
 .debug_loc     0x00010b66       0x79 /home/dexheimere/Firmware/build_px4fmu-v2_lpe/px4io-v2/NuttX/nuttx-export/libs/libnuttx.a(sched-sched_removereadytorun.o)
 .debug_loc     0x00010bdf       0x3a /home/dexheimere/Firmware/build_px4fmu-v2_lpe/px4io-v2/NuttX/nuttx-export/libs/libnuttx.a(sched-sem_destroy.o)
 .debug_loc     0x00010c19      0x33e /home/dexheimere/Firmware/build_px4fmu-v2_lpe/px4io-v2/NuttX/nuttx-export/libs/libnuttx.a(sched-task_create.o)
 .debug_loc     0x00010f57       0x26 /home/dexheimere/Firmware/build_px4fmu-v2_lpe/px4io-v2/NuttX/nuttx-export/libs/libnuttx.a(sched-task_exit.o)
 .debug_loc     0x00010f7d      0x4c2 /home/dexheimere/Firmware/build_px4fmu-v2_lpe/px4io-v2/NuttX/nuttx-export/libs/libnuttx.a(sched-task_setup.o)
 .debug_loc     0x0001143f       0x45 /home/dexheimere/Firmware/build_px4fmu-v2_lpe/px4io-v2/NuttX/nuttx-export/libs/libnuttx.a(sched-task_start.o)
 .debug_loc     0x00011484       0x8c /home/dexheimere/Firmware/build_px4fmu-v2_lpe/px4io-v2/NuttX/nuttx-export/libs/libnuttx.a(sched-task_terminate.o)
 .debug_loc     0x00011510       0x13 /home/dexheimere/Firmware/build_px4fmu-v2_lpe/px4io-v2/NuttX/nuttx-export/libs/libnuttx.a(c-dq_rem.o)
 .debug_loc     0x00011523       0x48 /home/dexheimere/Firmware/build_px4fmu-v2_lpe/px4io-v2/NuttX/nuttx-export/libs/libnuttx.a(c-lib_strdup.o)
 .debug_loc     0x0001156b       0x65 /home/dexheimere/Firmware/build_px4fmu-v2_lpe/px4io-v2/NuttX/nuttx-export/libs/libnuttx.a(arch-stm32_timerisr.o)
 .debug_loc     0x000115d0       0xd6 /home/dexheimere/Firmware/build_px4fmu-v2_lpe/px4io-v2/NuttX/nuttx-export/libs/libnuttx.a(arch-up_createstack.o)
 .debug_loc     0x000116a6       0x68 /home/dexheimere/Firmware/build_px4fmu-v2_lpe/px4io-v2/NuttX/nuttx-export/libs/libnuttx.a(arch-up_doirq.o)
 .debug_loc     0x0001170e       0x3f /home/dexheimere/Firmware/build_px4fmu-v2_lpe/px4io-v2/NuttX/nuttx-export/libs/libnuttx.a(arch-up_releasestack.o)
 .debug_loc     0x0001174d       0x76 /home/dexheimere/Firmware/build_px4fmu-v2_lpe/px4io-v2/NuttX/nuttx-export/libs/libnuttx.a(fs-fs_close.o)
 .debug_loc     0x000117c3       0xa2 /home/dexheimere/Firmware/build_px4fmu-v2_lpe/px4io-v2/NuttX/nuttx-export/libs/libnuttx.a(fs-fs_filedup2.o)
 .debug_loc     0x00011865      0x328 /home/dexheimere/Firmware/build_px4fmu-v2_lpe/px4io-v2/NuttX/nuttx-export/libs/libnuttx.a(fs-fs_inodereserve.o)
 .debug_loc     0x00011b8d       0x44 /home/dexheimere/Firmware/build_px4fmu-v2_lpe/px4io-v2/NuttX/nuttx-export/libs/libnuttx.a(sched-group_setuptaskfiles.o)
 .debug_loc     0x00011bd1       0x55 /home/dexheimere/Firmware/build_px4fmu-v2_lpe/px4io-v2/NuttX/nuttx-export/libs/libnuttx.a(sched-irq_dispatch.o)
 .debug_loc     0x00011c26       0x6a /home/dexheimere/Firmware/build_px4fmu-v2_lpe/px4io-v2/NuttX/nuttx-export/libs/libnuttx.a(sched-sched_gettcb.o)
 .debug_loc     0x00011c90       0x13 /home/dexheimere/Firmware/build_px4fmu-v2_lpe/px4io-v2/NuttX/nuttx-export/libs/libnuttx.a(sched-sched_lock.o)
 .debug_loc     0x00011ca3       0x9f /home/dexheimere/Firmware/build_px4fmu-v2_lpe/px4io-v2/NuttX/nuttx-export/libs/libnuttx.a(sched-sched_releasetcb.o)
 .debug_loc     0x00011d42       0x26 /home/dexheimere/Firmware/build_px4fmu-v2_lpe/px4io-v2/NuttX/nuttx-export/libs/libnuttx.a(sched-sched_unlock.o)
 .debug_loc     0x00011d68       0x21 /home/dexheimere/Firmware/build_px4fmu-v2_lpe/px4io-v2/NuttX/nuttx-export/libs/libnuttx.a(sched-task_activate.o)
 .debug_loc     0x00011d89       0x6e /home/dexheimere/Firmware/build_px4fmu-v2_lpe/px4io-v2/NuttX/nuttx-export/libs/libnuttx.a(arch-up_releasepending.o)

.debug_ranges   0x00000000     0x25f8
 .debug_ranges  0x00000000       0x18 src/modules/px4iofirmware/CMakeFiles/px4io-v2.dir/adc.c.obj
 .debug_ranges  0x00000018      0x210 src/modules/px4iofirmware/CMakeFiles/px4io-v2.dir/controls.c.obj
 .debug_ranges  0x00000228       0xd0 src/modules/px4iofirmware/CMakeFiles/px4io-v2.dir/px4io.c.obj
 .debug_ranges  0x000002f8      0x1a0 src/modules/px4iofirmware/CMakeFiles/px4io-v2.dir/registers.c.obj
 .debug_ranges  0x00000498       0x28 src/modules/px4iofirmware/CMakeFiles/px4io-v2.dir/safety.c.obj
 .debug_ranges  0x000004c0       0x28 src/modules/px4iofirmware/CMakeFiles/px4io-v2.dir/__/systemlib/up_cxxinitialize.c.obj
 .debug_ranges  0x000004e8       0xc8 src/modules/px4iofirmware/CMakeFiles/px4io-v2.dir/__/systemlib/perf_counter.c.obj
 .debug_ranges  0x000005b0       0x70 src/modules/px4iofirmware/CMakeFiles/px4io-v2.dir/mixer.cpp.obj
 .debug_ranges  0x00000620       0xb8 src/modules/px4iofirmware/CMakeFiles/px4io-v2.dir/__/systemlib/mixer/mixer.cpp.obj
 .debug_ranges  0x000006d8       0xe0 src/modules/px4iofirmware/CMakeFiles/px4io-v2.dir/__/systemlib/mixer/mixer_group.cpp.obj
 .debug_ranges  0x000007b8      0x240 src/modules/px4iofirmware/CMakeFiles/px4io-v2.dir/__/systemlib/mixer/mixer_multirotor.cpp.obj
 .debug_ranges  0x000009f8       0xf0 src/modules/px4iofirmware/CMakeFiles/px4io-v2.dir/__/systemlib/mixer/mixer_simple.cpp.obj
 .debug_ranges  0x00000ae8       0x48 src/modules/px4iofirmware/CMakeFiles/px4io-v2.dir/__/systemlib/pwm_limit/pwm_limit.c.obj
 .debug_ranges  0x00000b30       0x48 src/modules/px4iofirmware/CMakeFiles/px4io-v2.dir/__/__/lib/rc/st24.c.obj
 .debug_ranges  0x00000b78       0x48 src/modules/px4iofirmware/CMakeFiles/px4io-v2.dir/__/__/lib/rc/sumd.c.obj
 .debug_ranges  0x00000bc0      0x150 src/modules/px4iofirmware/CMakeFiles/px4io-v2.dir/__/__/lib/rc/sbus.c.obj
 .debug_ranges  0x00000d10      0x1b8 src/modules/px4iofirmware/CMakeFiles/px4io-v2.dir/__/__/lib/rc/dsm.c.obj
 .debug_ranges  0x00000ec8      0x158 src/modules/px4iofirmware/CMakeFiles/px4io-v2.dir/__/__/drivers/stm32/drv_hrt.c.obj
 .debug_ranges  0x00001020      0x3a8 src/modules/px4iofirmware/CMakeFiles/px4io-v2.dir/__/__/drivers/stm32/drv_io_timer.c.obj
 .debug_ranges  0x000013c8       0x60 src/modules/px4iofirmware/CMakeFiles/px4io-v2.dir/__/__/drivers/stm32/drv_pwm_servo.c.obj
 .debug_ranges  0x00001428       0x10 src/modules/px4iofirmware/CMakeFiles/px4io-v2.dir/__/__/drivers/boards/px4io-v2/px4io_init.c.obj
 .debug_ranges  0x00001438       0xc8 src/modules/px4iofirmware/CMakeFiles/px4io-v2.dir/serial.c.obj
 .debug_ranges  0x00001500       0xe0 src/modules/px4iofirmware/CMakeFiles/px4io-v2.dir/__/systemlib/hx_stream.c.obj
 .debug_ranges  0x000015e0       0x10 /home/dexheimere/Firmware/build_px4fmu-v2_lpe/px4io-v2/NuttX/nuttx-export/libs/libnuttx.a(sched-irq_attach.o)
 .debug_ranges  0x000015f0       0x10 /home/dexheimere/Firmware/build_px4fmu-v2_lpe/px4io-v2/NuttX/nuttx-export/libs/libnuttx.a(sched-irq_initialize.o)
 .debug_ranges  0x00001600       0x10 /home/dexheimere/Firmware/build_px4fmu-v2_lpe/px4io-v2/NuttX/nuttx-export/libs/libnuttx.a(sched-irq_unexpectedisr.o)
 .debug_ranges  0x00001610       0x10 /home/dexheimere/Firmware/build_px4fmu-v2_lpe/px4io-v2/NuttX/nuttx-export/libs/libnuttx.a(c-lib_abort.o)
 .debug_ranges  0x00001620       0x10 /home/dexheimere/Firmware/build_px4fmu-v2_lpe/px4io-v2/NuttX/nuttx-export/libs/libnuttx.a(c-lib_cfsetspeed.o)
 .debug_ranges  0x00001630       0x18 /home/dexheimere/Firmware/build_px4fmu-v2_lpe/px4io-v2/NuttX/nuttx-export/libs/libnuttx.a(c-lib_crc32.o)
 .debug_ranges  0x00001648       0x10 /home/dexheimere/Firmware/build_px4fmu-v2_lpe/px4io-v2/NuttX/nuttx-export/libs/libnuttx.a(c-lib_dprintf.o)
 .debug_ranges  0x00001658       0x18 /home/dexheimere/Firmware/build_px4fmu-v2_lpe/px4io-v2/NuttX/nuttx-export/libs/libnuttx.a(c-lib_lowsyslog.o)
 .debug_ranges  0x00001670       0x10 /home/dexheimere/Firmware/build_px4fmu-v2_lpe/px4io-v2/NuttX/nuttx-export/libs/libnuttx.a(c-lib_memchr.o)
 .debug_ranges  0x00001680       0x10 /home/dexheimere/Firmware/build_px4fmu-v2_lpe/px4io-v2/NuttX/nuttx-export/libs/libnuttx.a(c-lib_memcpy.o)
 .debug_ranges  0x00001690       0x10 /home/dexheimere/Firmware/build_px4fmu-v2_lpe/px4io-v2/NuttX/nuttx-export/libs/libnuttx.a(c-lib_memset.o)
 .debug_ranges  0x000016a0       0x10 /home/dexheimere/Firmware/build_px4fmu-v2_lpe/px4io-v2/NuttX/nuttx-export/libs/libnuttx.a(c-lib_printf.o)
 .debug_ranges  0x000016b0       0x38 /home/dexheimere/Firmware/build_px4fmu-v2_lpe/px4io-v2/NuttX/nuttx-export/libs/libnuttx.a(c-lib_sscanf.o)
 .debug_ranges  0x000016e8       0x10 /home/dexheimere/Firmware/build_px4fmu-v2_lpe/px4io-v2/NuttX/nuttx-export/libs/libnuttx.a(c-lib_strchr.o)
 .debug_ranges  0x000016f8       0x10 /home/dexheimere/Firmware/build_px4fmu-v2_lpe/px4io-v2/NuttX/nuttx-export/libs/libnuttx.a(c-lib_strcmp.o)
 .debug_ranges  0x00001708       0x10 /home/dexheimere/Firmware/build_px4fmu-v2_lpe/px4io-v2/NuttX/nuttx-export/libs/libnuttx.a(c-lib_strcspn.o)
 .debug_ranges  0x00001718       0x10 /home/dexheimere/Firmware/build_px4fmu-v2_lpe/px4io-v2/NuttX/nuttx-export/libs/libnuttx.a(c-lib_strncpy.o)
 .debug_ranges  0x00001728       0x10 /home/dexheimere/Firmware/build_px4fmu-v2_lpe/px4io-v2/NuttX/nuttx-export/libs/libnuttx.a(c-lib_strtol.o)
 .debug_ranges  0x00001738       0x10 /home/dexheimere/Firmware/build_px4fmu-v2_lpe/px4io-v2/NuttX/nuttx-export/libs/libnuttx.a(c-lib_strtoul.o)
 .debug_ranges  0x00001748       0x18 /home/dexheimere/Firmware/build_px4fmu-v2_lpe/px4io-v2/NuttX/nuttx-export/libs/libnuttx.a(c-lib_syslog.o)
 .debug_ranges  0x00001760       0x10 /home/dexheimere/Firmware/build_px4fmu-v2_lpe/px4io-v2/NuttX/nuttx-export/libs/libnuttx.a(c-lib_tcgetattr.o)
 .debug_ranges  0x00001770       0x10 /home/dexheimere/Firmware/build_px4fmu-v2_lpe/px4io-v2/NuttX/nuttx-export/libs/libnuttx.a(c-lib_tcsetattr.o)
 .debug_ranges  0x00001780       0x10 /home/dexheimere/Firmware/build_px4fmu-v2_lpe/px4io-v2/NuttX/nuttx-export/libs/libnuttx.a(c-lib_vdprintf.o)
 .debug_ranges  0x00001790       0x10 /home/dexheimere/Firmware/build_px4fmu-v2_lpe/px4io-v2/NuttX/nuttx-export/libs/libnuttx.a(c-lib_vsnprintf.o)
 .debug_ranges  0x000017a0       0x10 /home/dexheimere/Firmware/build_px4fmu-v2_lpe/px4io-v2/NuttX/nuttx-export/libs/libnuttx.a(c-sq_addafter.o)
 .debug_ranges  0x000017b0       0x10 /home/dexheimere/Firmware/build_px4fmu-v2_lpe/px4io-v2/NuttX/nuttx-export/libs/libnuttx.a(c-sq_addfirst.o)
 .debug_ranges  0x000017c0       0x10 /home/dexheimere/Firmware/build_px4fmu-v2_lpe/px4io-v2/NuttX/nuttx-export/libs/libnuttx.a(c-sq_addlast.o)
 .debug_ranges  0x000017d0       0x10 /home/dexheimere/Firmware/build_px4fmu-v2_lpe/px4io-v2/NuttX/nuttx-export/libs/libnuttx.a(c-sq_rem.o)
 .debug_ranges  0x000017e0       0x10 /home/dexheimere/Firmware/build_px4fmu-v2_lpe/px4io-v2/NuttX/nuttx-export/libs/libnuttx.a(mm-mm_calloc.o)
 .debug_ranges  0x000017f0       0x28 /home/dexheimere/Firmware/build_px4fmu-v2_lpe/px4io-v2/NuttX/nuttx-export/libs/libnuttx.a(mm-mm_free.o)
 .debug_ranges  0x00001818       0x28 /home/dexheimere/Firmware/build_px4fmu-v2_lpe/px4io-v2/NuttX/nuttx-export/libs/libnuttx.a(mm-mm_mallinfo.o)
 .debug_ranges  0x00001840       0x10 /home/dexheimere/Firmware/build_px4fmu-v2_lpe/px4io-v2/NuttX/nuttx-export/libs/libnuttx.a(mm-mm_malloc.o)
 .debug_ranges  0x00001850       0x28 /home/dexheimere/Firmware/build_px4fmu-v2_lpe/px4io-v2/NuttX/nuttx-export/libs/libnuttx.a(mm-mm_sem.o)
 .debug_ranges  0x00001878       0x10 /home/dexheimere/Firmware/build_px4fmu-v2_lpe/px4io-v2/NuttX/nuttx-export/libs/libnuttx.a(mm-mm_size2ndx.o)
 .debug_ranges  0x00001888       0x28 /home/dexheimere/Firmware/build_px4fmu-v2_lpe/px4io-v2/NuttX/nuttx-export/libs/libnuttx.a(mm-mm_user.o)
 .debug_ranges  0x000018b0       0x10 /home/dexheimere/Firmware/build_px4fmu-v2_lpe/px4io-v2/NuttX/nuttx-export/libs/libnuttx.a(mm-mm_zalloc.o)
 .debug_ranges  0x000018c0       0x98 /home/dexheimere/Firmware/build_px4fmu-v2_lpe/px4io-v2/NuttX/nuttx-export/libs/libnuttx.a(arch-stm32_dma.o)
 .debug_ranges  0x00001958       0x30 /home/dexheimere/Firmware/build_px4fmu-v2_lpe/px4io-v2/NuttX/nuttx-export/libs/libnuttx.a(arch-stm32_gpio.o)
 .debug_ranges  0x00001988       0x30 /home/dexheimere/Firmware/build_px4fmu-v2_lpe/px4io-v2/NuttX/nuttx-export/libs/libnuttx.a(arch-stm32_irq.o)
 .debug_ranges  0x000019b8      0x218 /home/dexheimere/Firmware/build_px4fmu-v2_lpe/px4io-v2/NuttX/nuttx-export/libs/libnuttx.a(arch-stm32_serial.o)
 .debug_ranges  0x00001bd0       0x10 /home/dexheimere/Firmware/build_px4fmu-v2_lpe/px4io-v2/NuttX/nuttx-export/libs/libnuttx.a(arch-stm32_start.o)
 .debug_ranges  0x00001be0       0x28 /home/dexheimere/Firmware/build_px4fmu-v2_lpe/px4io-v2/NuttX/nuttx-export/libs/libnuttx.a(arch-up_assert.o)
 .debug_ranges  0x00001c08       0x28 /home/dexheimere/Firmware/build_px4fmu-v2_lpe/px4io-v2/NuttX/nuttx-export/libs/libnuttx.a(arch-up_hardfault.o)
 .debug_ranges  0x00001c30       0x10 /home/dexheimere/Firmware/build_px4fmu-v2_lpe/px4io-v2/NuttX/nuttx-export/libs/libnuttx.a(arch-up_modifyreg32.o)
 .debug_ranges  0x00001c40       0x10 /home/dexheimere/Firmware/build_px4fmu-v2_lpe/px4io-v2/NuttX/nuttx-export/libs/libnuttx.a(arch-up_svcall.o)
 .debug_ranges  0x00001c50       0x10 /home/dexheimere/Firmware/build_px4fmu-v2_lpe/px4io-v2/NuttX/nuttx-export/libs/libnuttx.a(arch-up_systemreset.o)
 .debug_ranges  0x00001c60       0x10 /home/dexheimere/Firmware/build_px4fmu-v2_lpe/px4io-v2/NuttX/nuttx-export/libs/libnuttx.a(arch-up_udelay.o)
 .debug_ranges  0x00001c70       0x10 /home/dexheimere/Firmware/build_px4fmu-v2_lpe/px4io-v2/NuttX/nuttx-export/libs/libnuttx.a(cxx-libxx_cxa_atexit.o)
 .debug_ranges  0x00001c80       0x10 /home/dexheimere/Firmware/build_px4fmu-v2_lpe/px4io-v2/NuttX/nuttx-export/libs/libnuttx.a(cxx-libxx_cxapurevirtual.o)
 .debug_ranges  0x00001c90       0x10 /home/dexheimere/Firmware/build_px4fmu-v2_lpe/px4io-v2/NuttX/nuttx-export/libs/libnuttx.a(cxx-libxx_delete.o)
 .debug_ranges  0x00001ca0       0x10 /home/dexheimere/Firmware/build_px4fmu-v2_lpe/px4io-v2/NuttX/nuttx-export/libs/libnuttx.a(cxx-libxx_eabi_atexit.o)
 .debug_ranges  0x00001cb0       0x10 /home/dexheimere/Firmware/build_px4fmu-v2_lpe/px4io-v2/NuttX/nuttx-export/libs/libnuttx.a(cxx-libxx_new.o)
 .debug_ranges  0x00001cc0       0x10 /home/dexheimere/Firmware/build_px4fmu-v2_lpe/px4io-v2/NuttX/nuttx-export/libs/libnuttx.a(fs-fs_ioctl.o)
 .debug_ranges  0x00001cd0       0x18 /home/dexheimere/Firmware/build_px4fmu-v2_lpe/px4io-v2/NuttX/nuttx-export/libs/libnuttx.a(fs-fs_open.o)
 .debug_ranges  0x00001ce8       0x28 /home/dexheimere/Firmware/build_px4fmu-v2_lpe/px4io-v2/NuttX/nuttx-export/libs/libnuttx.a(fs-fs_read.o)
 .debug_ranges  0x00001d10       0x10 /home/dexheimere/Firmware/build_px4fmu-v2_lpe/px4io-v2/NuttX/nuttx-export/libs/libnuttx.a(fs-fs_write.o)
 .debug_ranges  0x00001d20       0x30 /home/dexheimere/Firmware/build_px4fmu-v2_lpe/px4io-v2/NuttX/nuttx-export/libs/libnuttx.a(drivers-serialirq.o)
 .debug_ranges  0x00001d50       0x90 /home/dexheimere/Firmware/build_px4fmu-v2_lpe/px4io-v2/NuttX/nuttx-export/libs/libnuttx.a(drivers-serial.o)
 .debug_ranges  0x00001de0       0x10 /home/dexheimere/Firmware/build_px4fmu-v2_lpe/px4io-v2/NuttX/nuttx-export/libs/libnuttx.a(sched-errno_getptr.o)
 .debug_ranges  0x00001df0       0x10 /home/dexheimere/Firmware/build_px4fmu-v2_lpe/px4io-v2/NuttX/nuttx-export/libs/libnuttx.a(sched-exit.o)
 .debug_ranges  0x00001e00       0x10 /home/dexheimere/Firmware/build_px4fmu-v2_lpe/px4io-v2/NuttX/nuttx-export/libs/libnuttx.a(sched-getpid.o)
 .debug_ranges  0x00001e10       0x10 /home/dexheimere/Firmware/build_px4fmu-v2_lpe/px4io-v2/NuttX/nuttx-export/libs/libnuttx.a(sched-os_start.o)
 .debug_ranges  0x00001e20       0x10 /home/dexheimere/Firmware/build_px4fmu-v2_lpe/px4io-v2/NuttX/nuttx-export/libs/libnuttx.a(sched-sched_garbage.o)
 .debug_ranges  0x00001e30       0x10 /home/dexheimere/Firmware/build_px4fmu-v2_lpe/px4io-v2/NuttX/nuttx-export/libs/libnuttx.a(sched-sched_getfiles.o)
 .debug_ranges  0x00001e40       0x10 /home/dexheimere/Firmware/build_px4fmu-v2_lpe/px4io-v2/NuttX/nuttx-export/libs/libnuttx.a(sched-sem_post.o)
 .debug_ranges  0x00001e50       0x10 /home/dexheimere/Firmware/build_px4fmu-v2_lpe/px4io-v2/NuttX/nuttx-export/libs/libnuttx.a(sched-sem_trywait.o)
 .debug_ranges  0x00001e60       0x10 /home/dexheimere/Firmware/build_px4fmu-v2_lpe/px4io-v2/NuttX/nuttx-export/libs/libnuttx.a(sched-sem_wait.o)
 .debug_ranges  0x00001e70       0x10 /home/dexheimere/Firmware/build_px4fmu-v2_lpe/px4io-v2/NuttX/nuttx-export/libs/libnuttx.a(sched-task_exithook.o)
 .debug_ranges  0x00001e80       0x10 /home/dexheimere/Firmware/build_px4fmu-v2_lpe/px4io-v2/NuttX/nuttx-export/libs/libnuttx.a(sched-task_recover.o)
 .debug_ranges  0x00001e90       0x10 /home/dexheimere/Firmware/build_px4fmu-v2_lpe/px4io-v2/NuttX/nuttx-export/libs/libnuttx.a(sched-wd_cancel.o)
 .debug_ranges  0x00001ea0       0x10 /home/dexheimere/Firmware/build_px4fmu-v2_lpe/px4io-v2/NuttX/nuttx-export/libs/libnuttx.a(sched-wd_delete.o)
 .debug_ranges  0x00001eb0       0x10 /home/dexheimere/Firmware/build_px4fmu-v2_lpe/px4io-v2/NuttX/nuttx-export/libs/libnuttx.a(sched-wd_initialize.o)
 .debug_ranges  0x00001ec0       0x10 /home/dexheimere/Firmware/build_px4fmu-v2_lpe/px4io-v2/NuttX/nuttx-export/libs/libnuttx.a(c-dq_addfirst.o)
 .debug_ranges  0x00001ed0       0x10 /home/dexheimere/Firmware/build_px4fmu-v2_lpe/px4io-v2/NuttX/nuttx-export/libs/libnuttx.a(c-lib_cfgetspeed.o)
 .debug_ranges  0x00001ee0       0x10 /home/dexheimere/Firmware/build_px4fmu-v2_lpe/px4io-v2/NuttX/nuttx-export/libs/libnuttx.a(c-lib_checkbase.o)
 .debug_ranges  0x00001ef0       0x10 /home/dexheimere/Firmware/build_px4fmu-v2_lpe/px4io-v2/NuttX/nuttx-export/libs/libnuttx.a(c-lib_isbasedigit.o)
 .debug_ranges  0x00001f00       0xe8 /home/dexheimere/Firmware/build_px4fmu-v2_lpe/px4io-v2/NuttX/nuttx-export/libs/libnuttx.a(c-lib_libvsprintf.o)
 .debug_ranges  0x00001fe8       0x18 /home/dexheimere/Firmware/build_px4fmu-v2_lpe/px4io-v2/NuttX/nuttx-export/libs/libnuttx.a(c-lib_lowoutstream.o)
 .debug_ranges  0x00002000       0x18 /home/dexheimere/Firmware/build_px4fmu-v2_lpe/px4io-v2/NuttX/nuttx-export/libs/libnuttx.a(c-lib_memoutstream.o)
 .debug_ranges  0x00002018       0x18 /home/dexheimere/Firmware/build_px4fmu-v2_lpe/px4io-v2/NuttX/nuttx-export/libs/libnuttx.a(c-lib_nulloutstream.o)
 .debug_ranges  0x00002030       0x18 /home/dexheimere/Firmware/build_px4fmu-v2_lpe/px4io-v2/NuttX/nuttx-export/libs/libnuttx.a(c-lib_rawoutstream.o)
 .debug_ranges  0x00002048       0x10 /home/dexheimere/Firmware/build_px4fmu-v2_lpe/px4io-v2/NuttX/nuttx-export/libs/libnuttx.a(c-lib_skipspace.o)
 .debug_ranges  0x00002058       0x10 /home/dexheimere/Firmware/build_px4fmu-v2_lpe/px4io-v2/NuttX/nuttx-export/libs/libnuttx.a(c-lib_strcpy.o)
 .debug_ranges  0x00002068       0x10 /home/dexheimere/Firmware/build_px4fmu-v2_lpe/px4io-v2/NuttX/nuttx-export/libs/libnuttx.a(c-lib_strlen.o)
 .debug_ranges  0x00002078       0x10 /home/dexheimere/Firmware/build_px4fmu-v2_lpe/px4io-v2/NuttX/nuttx-export/libs/libnuttx.a(c-sem_init.o)
 .debug_ranges  0x00002088       0x10 /home/dexheimere/Firmware/build_px4fmu-v2_lpe/px4io-v2/NuttX/nuttx-export/libs/libnuttx.a(c-sq_remafter.o)
 .debug_ranges  0x00002098       0x10 /home/dexheimere/Firmware/build_px4fmu-v2_lpe/px4io-v2/NuttX/nuttx-export/libs/libnuttx.a(c-sq_remfirst.o)
 .debug_ranges  0x000020a8       0x10 /home/dexheimere/Firmware/build_px4fmu-v2_lpe/px4io-v2/NuttX/nuttx-export/libs/libnuttx.a(mm-mm_addfreechunk.o)
 .debug_ranges  0x000020b8       0x18 /home/dexheimere/Firmware/build_px4fmu-v2_lpe/px4io-v2/NuttX/nuttx-export/libs/libnuttx.a(mm-mm_initialize.o)
 .debug_ranges  0x000020d0       0x10 /home/dexheimere/Firmware/build_px4fmu-v2_lpe/px4io-v2/NuttX/nuttx-export/libs/libnuttx.a(arch-stm32_allocateheap.o)
 .debug_ranges  0x000020e0       0x10 /home/dexheimere/Firmware/build_px4fmu-v2_lpe/px4io-v2/NuttX/nuttx-export/libs/libnuttx.a(arch-stm32_idle.o)
 .debug_ranges  0x000020f0       0x18 /home/dexheimere/Firmware/build_px4fmu-v2_lpe/px4io-v2/NuttX/nuttx-export/libs/libnuttx.a(arch-stm32_lowputc.o)
 .debug_ranges  0x00002108       0x28 /home/dexheimere/Firmware/build_px4fmu-v2_lpe/px4io-v2/NuttX/nuttx-export/libs/libnuttx.a(arch-stm32_rcc.o)
 .debug_ranges  0x00002130       0x28 /home/dexheimere/Firmware/build_px4fmu-v2_lpe/px4io-v2/NuttX/nuttx-export/libs/libnuttx.a(arch-up_blocktask.o)
 .debug_ranges  0x00002158       0x10 /home/dexheimere/Firmware/build_px4fmu-v2_lpe/px4io-v2/NuttX/nuttx-export/libs/libnuttx.a(arch-up_copystate.o)
 .debug_ranges  0x00002168       0x10 /home/dexheimere/Firmware/build_px4fmu-v2_lpe/px4io-v2/NuttX/nuttx-export/libs/libnuttx.a(arch-up_exit.o)
 .debug_ranges  0x00002178       0x10 /home/dexheimere/Firmware/build_px4fmu-v2_lpe/px4io-v2/NuttX/nuttx-export/libs/libnuttx.a(arch-up_initialize.o)
 .debug_ranges  0x00002188       0x10 /home/dexheimere/Firmware/build_px4fmu-v2_lpe/px4io-v2/NuttX/nuttx-export/libs/libnuttx.a(arch-up_initialstate.o)
 .debug_ranges  0x00002198       0x10 /home/dexheimere/Firmware/build_px4fmu-v2_lpe/px4io-v2/NuttX/nuttx-export/libs/libnuttx.a(arch-up_interruptcontext.o)
 .debug_ranges  0x000021a8       0x10 /home/dexheimere/Firmware/build_px4fmu-v2_lpe/px4io-v2/NuttX/nuttx-export/libs/libnuttx.a(arch-up_mdelay.o)
 .debug_ranges  0x000021b8       0x28 /home/dexheimere/Firmware/build_px4fmu-v2_lpe/px4io-v2/NuttX/nuttx-export/libs/libnuttx.a(arch-up_unblocktask.o)
 .debug_ranges  0x000021e0       0x50 /home/dexheimere/Firmware/build_px4fmu-v2_lpe/px4io-v2/NuttX/nuttx-export/libs/libnuttx.a(fs-fs_files.o)
 .debug_ranges  0x00002230       0x10 /home/dexheimere/Firmware/build_px4fmu-v2_lpe/px4io-v2/NuttX/nuttx-export/libs/libnuttx.a(fs-fs_inodeaddref.o)
 .debug_ranges  0x00002240       0x10 /home/dexheimere/Firmware/build_px4fmu-v2_lpe/px4io-v2/NuttX/nuttx-export/libs/libnuttx.a(fs-fs_inodefind.o)
 .debug_ranges  0x00002250       0x50 /home/dexheimere/Firmware/build_px4fmu-v2_lpe/px4io-v2/NuttX/nuttx-export/libs/libnuttx.a(fs-fs_inode.o)
 .debug_ranges  0x000022a0       0x10 /home/dexheimere/Firmware/build_px4fmu-v2_lpe/px4io-v2/NuttX/nuttx-export/libs/libnuttx.a(fs-fs_inoderelease.o)
 .debug_ranges  0x000022b0       0x10 /home/dexheimere/Firmware/build_px4fmu-v2_lpe/px4io-v2/NuttX/nuttx-export/libs/libnuttx.a(fs-fs_registerdriver.o)
 .debug_ranges  0x000022c0       0x18 /home/dexheimere/Firmware/build_px4fmu-v2_lpe/px4io-v2/NuttX/nuttx-export/libs/libnuttx.a(sched-group_create.o)
 .debug_ranges  0x000022d8       0x10 /home/dexheimere/Firmware/build_px4fmu-v2_lpe/px4io-v2/NuttX/nuttx-export/libs/libnuttx.a(sched-group_leave.o)
 .debug_ranges  0x000022e8       0x10 /home/dexheimere/Firmware/build_px4fmu-v2_lpe/px4io-v2/NuttX/nuttx-export/libs/libnuttx.a(sched-group_setupidlefiles.o)
 .debug_ranges  0x000022f8       0x10 /home/dexheimere/Firmware/build_px4fmu-v2_lpe/px4io-v2/NuttX/nuttx-export/libs/libnuttx.a(sched-os_bringup.o)
 .debug_ranges  0x00002308       0x10 /home/dexheimere/Firmware/build_px4fmu-v2_lpe/px4io-v2/NuttX/nuttx-export/libs/libnuttx.a(sched-sched_addblocked.o)
 .debug_ranges  0x00002318       0x10 /home/dexheimere/Firmware/build_px4fmu-v2_lpe/px4io-v2/NuttX/nuttx-export/libs/libnuttx.a(sched-sched_addprioritized.o)
 .debug_ranges  0x00002328       0x10 /home/dexheimere/Firmware/build_px4fmu-v2_lpe/px4io-v2/NuttX/nuttx-export/libs/libnuttx.a(sched-sched_addreadytorun.o)
 .debug_ranges  0x00002338       0x10 /home/dexheimere/Firmware/build_px4fmu-v2_lpe/px4io-v2/NuttX/nuttx-export/libs/libnuttx.a(sched-sched_free.o)
 .debug_ranges  0x00002348       0x10 /home/dexheimere/Firmware/build_px4fmu-v2_lpe/px4io-v2/NuttX/nuttx-export/libs/libnuttx.a(sched-sched_mergepending.o)
 .debug_ranges  0x00002358       0x10 /home/dexheimere/Firmware/build_px4fmu-v2_lpe/px4io-v2/NuttX/nuttx-export/libs/libnuttx.a(sched-sched_removeblocked.o)
 .debug_ranges  0x00002368       0x10 /home/dexheimere/Firmware/build_px4fmu-v2_lpe/px4io-v2/NuttX/nuttx-export/libs/libnuttx.a(sched-sched_removereadytorun.o)
 .debug_ranges  0x00002378       0x10 /home/dexheimere/Firmware/build_px4fmu-v2_lpe/px4io-v2/NuttX/nuttx-export/libs/libnuttx.a(sched-sem_destroy.o)
 .debug_ranges  0x00002388       0x20 /home/dexheimere/Firmware/build_px4fmu-v2_lpe/px4io-v2/NuttX/nuttx-export/libs/libnuttx.a(sched-task_create.o)
 .debug_ranges  0x000023a8       0x10 /home/dexheimere/Firmware/build_px4fmu-v2_lpe/px4io-v2/NuttX/nuttx-export/libs/libnuttx.a(sched-task_exit.o)
 .debug_ranges  0x000023b8       0x48 /home/dexheimere/Firmware/build_px4fmu-v2_lpe/px4io-v2/NuttX/nuttx-export/libs/libnuttx.a(sched-task_setup.o)
 .debug_ranges  0x00002400       0x10 /home/dexheimere/Firmware/build_px4fmu-v2_lpe/px4io-v2/NuttX/nuttx-export/libs/libnuttx.a(sched-task_start.o)
 .debug_ranges  0x00002410       0x10 /home/dexheimere/Firmware/build_px4fmu-v2_lpe/px4io-v2/NuttX/nuttx-export/libs/libnuttx.a(sched-task_terminate.o)
 .debug_ranges  0x00002420       0x10 /home/dexheimere/Firmware/build_px4fmu-v2_lpe/px4io-v2/NuttX/nuttx-export/libs/libnuttx.a(c-dq_addlast.o)
 .debug_ranges  0x00002430       0x10 /home/dexheimere/Firmware/build_px4fmu-v2_lpe/px4io-v2/NuttX/nuttx-export/libs/libnuttx.a(c-dq_rem.o)
 .debug_ranges  0x00002440       0x10 /home/dexheimere/Firmware/build_px4fmu-v2_lpe/px4io-v2/NuttX/nuttx-export/libs/libnuttx.a(c-lib_strdup.o)
 .debug_ranges  0x00002450       0x18 /home/dexheimere/Firmware/build_px4fmu-v2_lpe/px4io-v2/NuttX/nuttx-export/libs/libnuttx.a(arch-stm32_timerisr.o)
 .debug_ranges  0x00002468       0x10 /home/dexheimere/Firmware/build_px4fmu-v2_lpe/px4io-v2/NuttX/nuttx-export/libs/libnuttx.a(arch-up_createstack.o)
 .debug_ranges  0x00002478       0x10 /home/dexheimere/Firmware/build_px4fmu-v2_lpe/px4io-v2/NuttX/nuttx-export/libs/libnuttx.a(arch-up_doirq.o)
 .debug_ranges  0x00002488       0x10 /home/dexheimere/Firmware/build_px4fmu-v2_lpe/px4io-v2/NuttX/nuttx-export/libs/libnuttx.a(arch-up_releasestack.o)
 .debug_ranges  0x00002498       0x10 /home/dexheimere/Firmware/build_px4fmu-v2_lpe/px4io-v2/NuttX/nuttx-export/libs/libnuttx.a(fs-fs_close.o)
 .debug_ranges  0x000024a8       0x10 /home/dexheimere/Firmware/build_px4fmu-v2_lpe/px4io-v2/NuttX/nuttx-export/libs/libnuttx.a(fs-fs_filedup2.o)
 .debug_ranges  0x000024b8       0x98 /home/dexheimere/Firmware/build_px4fmu-v2_lpe/px4io-v2/NuttX/nuttx-export/libs/libnuttx.a(fs-fs_inodereserve.o)
 .debug_ranges  0x00002550       0x10 /home/dexheimere/Firmware/build_px4fmu-v2_lpe/px4io-v2/NuttX/nuttx-export/libs/libnuttx.a(sched-group_setuptaskfiles.o)
 .debug_ranges  0x00002560       0x10 /home/dexheimere/Firmware/build_px4fmu-v2_lpe/px4io-v2/NuttX/nuttx-export/libs/libnuttx.a(sched-irq_dispatch.o)
 .debug_ranges  0x00002570       0x10 /home/dexheimere/Firmware/build_px4fmu-v2_lpe/px4io-v2/NuttX/nuttx-export/libs/libnuttx.a(sched-sched_gettcb.o)
 .debug_ranges  0x00002580       0x10 /home/dexheimere/Firmware/build_px4fmu-v2_lpe/px4io-v2/NuttX/nuttx-export/libs/libnuttx.a(sched-sched_lock.o)
 .debug_ranges  0x00002590       0x10 /home/dexheimere/Firmware/build_px4fmu-v2_lpe/px4io-v2/NuttX/nuttx-export/libs/libnuttx.a(sched-sched_processtimer.o)
 .debug_ranges  0x000025a0       0x10 /home/dexheimere/Firmware/build_px4fmu-v2_lpe/px4io-v2/NuttX/nuttx-export/libs/libnuttx.a(sched-sched_releasetcb.o)
 .debug_ranges  0x000025b0       0x10 /home/dexheimere/Firmware/build_px4fmu-v2_lpe/px4io-v2/NuttX/nuttx-export/libs/libnuttx.a(sched-sched_unlock.o)
 .debug_ranges  0x000025c0       0x10 /home/dexheimere/Firmware/build_px4fmu-v2_lpe/px4io-v2/NuttX/nuttx-export/libs/libnuttx.a(sched-task_activate.o)
 .debug_ranges  0x000025d0       0x28 /home/dexheimere/Firmware/build_px4fmu-v2_lpe/px4io-v2/NuttX/nuttx-export/libs/libnuttx.a(arch-up_releasepending.o)

.debug_str      0x00000000     0x5d5b
 .debug_str     0x00000000      0x29f src/modules/px4iofirmware/CMakeFiles/px4io-v2.dir/adc.c.obj
                                0x303 (size before relaxing)
 .debug_str     0x0000029f      0x341 src/modules/px4iofirmware/CMakeFiles/px4io-v2.dir/controls.c.obj
                                0x639 (size before relaxing)
 .debug_str     0x000005e0      0x331 src/modules/px4iofirmware/CMakeFiles/px4io-v2.dir/px4io.c.obj
                                0x6ed (size before relaxing)
 .debug_str     0x00000911      0x1d2 src/modules/px4iofirmware/CMakeFiles/px4io-v2.dir/registers.c.obj
                                0x5b0 (size before relaxing)
 .debug_str     0x00000ae3       0x9e src/modules/px4iofirmware/CMakeFiles/px4io-v2.dir/safety.c.obj
                                0x391 (size before relaxing)
 .debug_str     0x00000b81       0x68 src/modules/px4iofirmware/CMakeFiles/px4io-v2.dir/__/systemlib/up_cxxinitialize.c.obj
                                0x277 (size before relaxing)
 .debug_str     0x00000be9      0x27f src/modules/px4iofirmware/CMakeFiles/px4io-v2.dir/__/systemlib/perf_counter.c.obj
                                0x574 (size before relaxing)
 .debug_str     0x00000e68      0x670 src/modules/px4iofirmware/CMakeFiles/px4io-v2.dir/mixer.cpp.obj
                                0xa0b (size before relaxing)
 .debug_str     0x000014d8      0x343 src/modules/px4iofirmware/CMakeFiles/px4io-v2.dir/__/systemlib/mixer/mixer.cpp.obj
                                0x8b3 (size before relaxing)
 .debug_str     0x0000181b      0x176 src/modules/px4iofirmware/CMakeFiles/px4io-v2.dir/__/systemlib/mixer/mixer_group.cpp.obj
                                0x9b7 (size before relaxing)
 .debug_str     0x00001991      0x51d src/modules/px4iofirmware/CMakeFiles/px4io-v2.dir/__/systemlib/mixer/mixer_multirotor.cpp.obj
                                0xd68 (size before relaxing)
 .debug_str     0x00001eae      0x2a3 src/modules/px4iofirmware/CMakeFiles/px4io-v2.dir/__/systemlib/mixer/mixer_simple.cpp.obj
                                0xa86 (size before relaxing)
 .debug_str     0x00002151       0xd1 src/modules/px4iofirmware/CMakeFiles/px4io-v2.dir/__/systemlib/pwm_limit/pwm_limit.c.obj
                                0x3f7 (size before relaxing)
 .debug_str     0x00002222      0x1eb src/modules/px4iofirmware/CMakeFiles/px4io-v2.dir/__/__/lib/rc/st24.c.obj
                                0x45b (size before relaxing)
 .debug_str     0x0000240d      0x175 src/modules/px4iofirmware/CMakeFiles/px4io-v2.dir/__/__/lib/rc/sumd.c.obj
                                0x43e (size before relaxing)
 .debug_str     0x00002582      0x27c src/modules/px4iofirmware/CMakeFiles/px4io-v2.dir/__/__/lib/rc/sbus.c.obj
                                0x5ed (size before relaxing)
 .debug_str     0x000027fe      0x1f2 src/modules/px4iofirmware/CMakeFiles/px4io-v2.dir/__/__/lib/rc/dsm.c.obj
                                0x5d7 (size before relaxing)
 .debug_str     0x000029f0      0x233 src/modules/px4iofirmware/CMakeFiles/px4io-v2.dir/__/__/drivers/stm32/drv_hrt.c.obj
                                0x669 (size before relaxing)
 .debug_str     0x00002c23      0x4d4 src/modules/px4iofirmware/CMakeFiles/px4io-v2.dir/__/__/drivers/stm32/drv_io_timer.c.obj
                                0x88c (size before relaxing)
 .debug_str     0x000030f7       0x86 src/modules/px4iofirmware/CMakeFiles/px4io-v2.dir/__/__/drivers/stm32/drv_pwm_servo.c.obj
                                0x50e (size before relaxing)
 .debug_str     0x0000317d       0x42 src/modules/px4iofirmware/CMakeFiles/px4io-v2.dir/__/__/drivers/boards/px4io-v2/px4io_init.c.obj
                                0x26f (size before relaxing)
 .debug_str     0x000031bf       0x34 src/modules/px4iofirmware/CMakeFiles/px4io-v2.dir/__/__/drivers/boards/px4io-v2/px4io_timer_config.c.obj
                                0x40d (size before relaxing)
 .debug_str     0x000031f3      0x16b src/modules/px4iofirmware/CMakeFiles/px4io-v2.dir/serial.c.obj
                                0x4ca (size before relaxing)
 .debug_str     0x0000335e      0x1c7 src/modules/px4iofirmware/CMakeFiles/px4io-v2.dir/__/systemlib/hx_stream.c.obj
                                0x486 (size before relaxing)
 .debug_str     0x00003525      0x17d /home/dexheimere/Firmware/build_px4fmu-v2_lpe/px4io-v2/NuttX/nuttx-export/libs/libnuttx.a(sched-irq_attach.o)
                                0x260 (size before relaxing)
 .debug_str     0x000036a2       0x20 /home/dexheimere/Firmware/build_px4fmu-v2_lpe/px4io-v2/NuttX/nuttx-export/libs/libnuttx.a(sched-irq_initialize.o)
                                0x227 (size before relaxing)
 .debug_str     0x000036c2       0x27 /home/dexheimere/Firmware/build_px4fmu-v2_lpe/px4io-v2/NuttX/nuttx-export/libs/libnuttx.a(sched-irq_unexpectedisr.o)
                                0x259 (size before relaxing)
 .debug_str     0x000036e9       0x61 /home/dexheimere/Firmware/build_px4fmu-v2_lpe/px4io-v2/NuttX/nuttx-export/libs/libnuttx.a(c-lib_abort.o)
                                0x1f6 (size before relaxing)
 .debug_str     0x0000374a       0x22 /home/dexheimere/Firmware/build_px4fmu-v2_lpe/px4io-v2/NuttX/nuttx-export/libs/libnuttx.a(c-lib_cfsetspeed.o)
                                0x27c (size before relaxing)
 .debug_str     0x0000376c       0x24 /home/dexheimere/Firmware/build_px4fmu-v2_lpe/px4io-v2/NuttX/nuttx-export/libs/libnuttx.a(c-lib_crc32.o)
                                0x237 (size before relaxing)
 .debug_str     0x00003790       0x1d /home/dexheimere/Firmware/build_px4fmu-v2_lpe/px4io-v2/NuttX/nuttx-export/libs/libnuttx.a(c-lib_dprintf.o)
                                0x23e (size before relaxing)
 .debug_str     0x000037ad       0x5a /home/dexheimere/Firmware/build_px4fmu-v2_lpe/px4io-v2/NuttX/nuttx-export/libs/libnuttx.a(c-lib_lowsyslog.o)
                                0x289 (size before relaxing)
 .debug_str     0x00003807       0x14 /home/dexheimere/Firmware/build_px4fmu-v2_lpe/px4io-v2/NuttX/nuttx-export/libs/libnuttx.a(c-lib_memchr.o)
                                0x204 (size before relaxing)
 .debug_str     0x0000381b       0x1e /home/dexheimere/Firmware/build_px4fmu-v2_lpe/px4io-v2/NuttX/nuttx-export/libs/libnuttx.a(c-lib_memcpy.o)
                                0x20e (size before relaxing)
 .debug_str     0x00003839       0x14 /home/dexheimere/Firmware/build_px4fmu-v2_lpe/px4io-v2/NuttX/nuttx-export/libs/libnuttx.a(c-lib_memset.o)
                                0x204 (size before relaxing)
 .debug_str     0x0000384d       0x13 /home/dexheimere/Firmware/build_px4fmu-v2_lpe/px4io-v2/NuttX/nuttx-export/libs/libnuttx.a(c-lib_printf.o)
                                0x23b (size before relaxing)
 .debug_str     0x00003860       0xa4 /home/dexheimere/Firmware/build_px4fmu-v2_lpe/px4io-v2/NuttX/nuttx-export/libs/libnuttx.a(c-lib_sscanf.o)
                                0x306 (size before relaxing)
 .debug_str     0x00003904       0x14 /home/dexheimere/Firmware/build_px4fmu-v2_lpe/px4io-v2/NuttX/nuttx-export/libs/libnuttx.a(c-lib_strchr.o)
                                0x1ea (size before relaxing)
 .debug_str     0x00003918       0x14 /home/dexheimere/Firmware/build_px4fmu-v2_lpe/px4io-v2/NuttX/nuttx-export/libs/libnuttx.a(c-lib_strcmp.o)
                                0x1f1 (size before relaxing)
 .debug_str     0x0000392c       0x1c /home/dexheimere/Firmware/build_px4fmu-v2_lpe/px4io-v2/NuttX/nuttx-export/libs/libnuttx.a(c-lib_strcspn.o)
                                0x214 (size before relaxing)
 .debug_str     0x00003948       0x15 /home/dexheimere/Firmware/build_px4fmu-v2_lpe/px4io-v2/NuttX/nuttx-export/libs/libnuttx.a(c-lib_strncpy.o)
                                0x20b (size before relaxing)
 .debug_str     0x0000395d       0x43 /home/dexheimere/Firmware/build_px4fmu-v2_lpe/px4io-v2/NuttX/nuttx-export/libs/libnuttx.a(c-lib_strtol.o)
                                0x25a (size before relaxing)
 .debug_str     0x000039a0       0x33 /home/dexheimere/Firmware/build_px4fmu-v2_lpe/px4io-v2/NuttX/nuttx-export/libs/libnuttx.a(c-lib_strtoul.o)
                                0x259 (size before relaxing)
 .debug_str     0x000039d3       0x3e /home/dexheimere/Firmware/build_px4fmu-v2_lpe/px4io-v2/NuttX/nuttx-export/libs/libnuttx.a(c-lib_syslog.o)
                                0x2a0 (size before relaxing)
 .debug_str     0x00003a11       0x18 /home/dexheimere/Firmware/build_px4fmu-v2_lpe/px4io-v2/NuttX/nuttx-export/libs/libnuttx.a(c-lib_tcgetattr.o)
                                0x27a (size before relaxing)
 .debug_str     0x00003a29       0x20 /home/dexheimere/Firmware/build_px4fmu-v2_lpe/px4io-v2/NuttX/nuttx-export/libs/libnuttx.a(c-lib_tcsetattr.o)
                                0x282 (size before relaxing)
 .debug_str     0x00003a49       0x15 /home/dexheimere/Firmware/build_px4fmu-v2_lpe/px4io-v2/NuttX/nuttx-export/libs/libnuttx.a(c-lib_vdprintf.o)
                                0x29c (size before relaxing)
 .debug_str     0x00003a5e       0x3a /home/dexheimere/Firmware/build_px4fmu-v2_lpe/px4io-v2/NuttX/nuttx-export/libs/libnuttx.a(c-lib_vsnprintf.o)
                                0x2d2 (size before relaxing)
 .debug_str     0x00003a98       0x1f /home/dexheimere/Firmware/build_px4fmu-v2_lpe/px4io-v2/NuttX/nuttx-export/libs/libnuttx.a(c-sq_addafter.o)
                                0x246 (size before relaxing)
 .debug_str     0x00003ab7       0x14 /home/dexheimere/Firmware/build_px4fmu-v2_lpe/px4io-v2/NuttX/nuttx-export/libs/libnuttx.a(c-sq_addfirst.o)
                                0x236 (size before relaxing)
 .debug_str     0x00003acb       0x13 /home/dexheimere/Firmware/build_px4fmu-v2_lpe/px4io-v2/NuttX/nuttx-export/libs/libnuttx.a(c-sq_addlast.o)
                                0x234 (size before relaxing)
 .debug_str     0x00003ade       0x1b /home/dexheimere/Firmware/build_px4fmu-v2_lpe/px4io-v2/NuttX/nuttx-export/libs/libnuttx.a(c-sq_rem.o)
                                0x23d (size before relaxing)
 .debug_str     0x00003af9       0x63 /home/dexheimere/Firmware/build_px4fmu-v2_lpe/px4io-v2/NuttX/nuttx-export/libs/libnuttx.a(mm-mm_calloc.o)
                                0x214 (size before relaxing)
 .debug_str     0x00003b5c       0xf1 /home/dexheimere/Firmware/build_px4fmu-v2_lpe/px4io-v2/NuttX/nuttx-export/libs/libnuttx.a(mm-mm_free.o)
                                0x340 (size before relaxing)
 .debug_str     0x00003c4d       0x1a /home/dexheimere/Firmware/build_px4fmu-v2_lpe/px4io-v2/NuttX/nuttx-export/libs/libnuttx.a(mm-mm_mallinfo.o)
                                0x356 (size before relaxing)
 .debug_str     0x00003c67       0x36 /home/dexheimere/Firmware/build_px4fmu-v2_lpe/px4io-v2/NuttX/nuttx-export/libs/libnuttx.a(mm-mm_malloc.o)
                                0x357 (size before relaxing)
 .debug_str     0x00003c9d       0x5d /home/dexheimere/Firmware/build_px4fmu-v2_lpe/px4io-v2/NuttX/nuttx-export/libs/libnuttx.a(mm-mm_sem.o)
                                0x37f (size before relaxing)
 .debug_str     0x00003cfa        0xe /home/dexheimere/Firmware/build_px4fmu-v2_lpe/px4io-v2/NuttX/nuttx-export/libs/libnuttx.a(mm-mm_size2ndx.o)
                                0x20f (size before relaxing)
 .debug_str     0x00003d08       0x5f /home/dexheimere/Firmware/build_px4fmu-v2_lpe/px4io-v2/NuttX/nuttx-export/libs/libnuttx.a(mm-mm_user.o)
                                0x374 (size before relaxing)
 .debug_str     0x00003d67        0xc /home/dexheimere/Firmware/build_px4fmu-v2_lpe/px4io-v2/NuttX/nuttx-export/libs/libnuttx.a(mm-mm_zalloc.o)
                                0x21c (size before relaxing)
 .debug_str     0x00003d73      0x1e1 /home/dexheimere/Firmware/build_px4fmu-v2_lpe/px4io-v2/NuttX/nuttx-export/libs/libnuttx.a(arch-stm32_dma.o)
                                0x4b9 (size before relaxing)
 .debug_str     0x00003f54       0x72 /home/dexheimere/Firmware/build_px4fmu-v2_lpe/px4io-v2/NuttX/nuttx-export/libs/libnuttx.a(arch-stm32_gpio.o)
                                0x2fe (size before relaxing)
 .debug_str     0x00003fc6       0x78 /home/dexheimere/Firmware/build_px4fmu-v2_lpe/px4io-v2/NuttX/nuttx-export/libs/libnuttx.a(arch-stm32_irq.o)
                                0x356 (size before relaxing)
 .debug_str     0x0000403e      0x58a /home/dexheimere/Firmware/build_px4fmu-v2_lpe/px4io-v2/NuttX/nuttx-export/libs/libnuttx.a(arch-stm32_serial.o)
                                0xaca (size before relaxing)
 .debug_str     0x000045c8       0x5f /home/dexheimere/Firmware/build_px4fmu-v2_lpe/px4io-v2/NuttX/nuttx-export/libs/libnuttx.a(arch-stm32_start.o)
                                0x2a9 (size before relaxing)
 .debug_str     0x00004627      0x1d5 /home/dexheimere/Firmware/build_px4fmu-v2_lpe/px4io-v2/NuttX/nuttx-export/libs/libnuttx.a(arch-up_assert.o)
                                0x6a3 (size before relaxing)
 .debug_str     0x000047fc       0x33 /home/dexheimere/Firmware/build_px4fmu-v2_lpe/px4io-v2/NuttX/nuttx-export/libs/libnuttx.a(arch-up_hardfault.o)
                                0x2ba (size before relaxing)
 .debug_str     0x0000482f       0x18 /home/dexheimere/Firmware/build_px4fmu-v2_lpe/px4io-v2/NuttX/nuttx-export/libs/libnuttx.a(arch-up_modifyreg32.o)
                                0x27c (size before relaxing)
 .debug_str     0x00004847       0x14 /home/dexheimere/Firmware/build_px4fmu-v2_lpe/px4io-v2/NuttX/nuttx-export/libs/libnuttx.a(arch-up_svcall.o)
                                0x24d (size before relaxing)
 .debug_str     0x0000485b       0x19 /home/dexheimere/Firmware/build_px4fmu-v2_lpe/px4io-v2/NuttX/nuttx-export/libs/libnuttx.a(arch-up_systemreset.o)
                                0x207 (size before relaxing)
 .debug_str     0x00004874       0x2b /home/dexheimere/Firmware/build_px4fmu-v2_lpe/px4io-v2/NuttX/nuttx-export/libs/libnuttx.a(arch-up_udelay.o)
                                0x243 (size before relaxing)
 .debug_str     0x0000489f       0x1e /home/dexheimere/Firmware/build_px4fmu-v2_lpe/px4io-v2/NuttX/nuttx-export/libs/libnuttx.a(arch-up_vectors.o)
                                0x19b (size before relaxing)
 .debug_str     0x000048bd      0x1e6 /home/dexheimere/Firmware/build_px4fmu-v2_lpe/px4io-v2/NuttX/nuttx-export/libs/libnuttx.a(cxx-libxx_cxa_atexit.o)
                                0x30b (size before relaxing)
 .debug_str     0x00004aa3       0x2c /home/dexheimere/Firmware/build_px4fmu-v2_lpe/px4io-v2/NuttX/nuttx-export/libs/libnuttx.a(cxx-libxx_cxapurevirtual.o)
                                0x206 (size before relaxing)
 .debug_str     0x00004acf       0x11 /home/dexheimere/Firmware/build_px4fmu-v2_lpe/px4io-v2/NuttX/nuttx-export/libs/libnuttx.a(cxx-libxx_delete.o)
                                0x2e8 (size before relaxing)
 .debug_str     0x00004ae0       0x1d /home/dexheimere/Firmware/build_px4fmu-v2_lpe/px4io-v2/NuttX/nuttx-export/libs/libnuttx.a(cxx-libxx_eabi_atexit.o)
                                0x315 (size before relaxing)
 .debug_str     0x00004afd       0x67 /home/dexheimere/Firmware/build_px4fmu-v2_lpe/px4io-v2/NuttX/nuttx-export/libs/libnuttx.a(cxx-libxx_new.o)
                                0x398 (size before relaxing)
 .debug_str     0x00004b64       0x71 /home/dexheimere/Firmware/build_px4fmu-v2_lpe/px4io-v2/NuttX/nuttx-export/libs/libnuttx.a(fs-fs_ioctl.o)
                                0x462 (size before relaxing)
 .debug_str     0x00004bd5       0x7a /home/dexheimere/Firmware/build_px4fmu-v2_lpe/px4io-v2/NuttX/nuttx-export/libs/libnuttx.a(fs-fs_open.o)
                                0x4d3 (size before relaxing)
 .debug_str     0x00004c4f       0x14 /home/dexheimere/Firmware/build_px4fmu-v2_lpe/px4io-v2/NuttX/nuttx-export/libs/libnuttx.a(fs-fs_read.o)
                                0x46b (size before relaxing)
 .debug_str     0x00004c63       0x16 /home/dexheimere/Firmware/build_px4fmu-v2_lpe/px4io-v2/NuttX/nuttx-export/libs/libnuttx.a(fs-fs_write.o)
                                0x474 (size before relaxing)
 .debug_str     0x00004c79       0x92 /home/dexheimere/Firmware/build_px4fmu-v2_lpe/px4io-v2/NuttX/nuttx-export/libs/libnuttx.a(drivers-serialirq.o)
                                0x589 (size before relaxing)
 .debug_str     0x00004d0b       0xe2 /home/dexheimere/Firmware/build_px4fmu-v2_lpe/px4io-v2/NuttX/nuttx-export/libs/libnuttx.a(drivers-serial.o)
                                0x721 (size before relaxing)
 .debug_str     0x00004ded       0x1a /home/dexheimere/Firmware/build_px4fmu-v2_lpe/px4io-v2/NuttX/nuttx-export/libs/libnuttx.a(sched-errno_getptr.o)
                                0x673 (size before relaxing)
 .debug_str     0x00004e07        0xe /home/dexheimere/Firmware/build_px4fmu-v2_lpe/px4io-v2/NuttX/nuttx-export/libs/libnuttx.a(sched-exit.o)
                                0x5c7 (size before relaxing)
 .debug_str     0x00004e15        0x9 /home/dexheimere/Firmware/build_px4fmu-v2_lpe/px4io-v2/NuttX/nuttx-export/libs/libnuttx.a(sched-getpid.o)
                                0x5b0 (size before relaxing)
 .debug_str     0x00004e1e      0x1bc /home/dexheimere/Firmware/build_px4fmu-v2_lpe/px4io-v2/NuttX/nuttx-export/libs/libnuttx.a(sched-os_start.o)
                                0x8b2 (size before relaxing)
 .debug_str     0x00004fda       0x34 /home/dexheimere/Firmware/build_px4fmu-v2_lpe/px4io-v2/NuttX/nuttx-export/libs/libnuttx.a(sched-sched_garbage.o)
                                0x2be (size before relaxing)
 .debug_str     0x0000500e       0x11 /home/dexheimere/Firmware/build_px4fmu-v2_lpe/px4io-v2/NuttX/nuttx-export/libs/libnuttx.a(sched-sched_getfiles.o)
                                0x5c5 (size before relaxing)
 .debug_str     0x0000501f       0x2c /home/dexheimere/Firmware/build_px4fmu-v2_lpe/px4io-v2/NuttX/nuttx-export/libs/libnuttx.a(sched-sem_post.o)
                                0x60e (size before relaxing)
 .debug_str     0x0000504b        0xe /home/dexheimere/Firmware/build_px4fmu-v2_lpe/px4io-v2/NuttX/nuttx-export/libs/libnuttx.a(sched-sem_trywait.o)
                                0x5ff (size before relaxing)
 .debug_str     0x00005059       0x19 /home/dexheimere/Firmware/build_px4fmu-v2_lpe/px4io-v2/NuttX/nuttx-export/libs/libnuttx.a(sched-sem_wait.o)
                                0x6a2 (size before relaxing)
 .debug_str     0x00005072       0x35 /home/dexheimere/Firmware/build_px4fmu-v2_lpe/px4io-v2/NuttX/nuttx-export/libs/libnuttx.a(sched-task_exithook.o)
                                0x5a7 (size before relaxing)
 .debug_str     0x000050a7       0x23 /home/dexheimere/Firmware/build_px4fmu-v2_lpe/px4io-v2/NuttX/nuttx-export/libs/libnuttx.a(sched-task_recover.o)
                                0x5b3 (size before relaxing)
 .debug_str     0x000050ca       0x34 /home/dexheimere/Firmware/build_px4fmu-v2_lpe/px4io-v2/NuttX/nuttx-export/libs/libnuttx.a(sched-wd_cancel.o)
                                0x324 (size before relaxing)
 .debug_str     0x000050fe       0x1e /home/dexheimere/Firmware/build_px4fmu-v2_lpe/px4io-v2/NuttX/nuttx-export/libs/libnuttx.a(sched-wd_delete.o)
                                0x312 (size before relaxing)
 .debug_str     0x0000511c       0x1e /home/dexheimere/Firmware/build_px4fmu-v2_lpe/px4io-v2/NuttX/nuttx-export/libs/libnuttx.a(sched-wd_initialize.o)
                                0x379 (size before relaxing)
 .debug_str     0x0000513a       0x14 /home/dexheimere/Firmware/build_px4fmu-v2_lpe/px4io-v2/NuttX/nuttx-export/libs/libnuttx.a(c-dq_addfirst.o)
                                0x23c (size before relaxing)
 .debug_str     0x0000514e       0x19 /home/dexheimere/Firmware/build_px4fmu-v2_lpe/px4io-v2/NuttX/nuttx-export/libs/libnuttx.a(c-lib_cfgetspeed.o)
                                0x276 (size before relaxing)
 .debug_str     0x00005167       0x1c /home/dexheimere/Firmware/build_px4fmu-v2_lpe/px4io-v2/NuttX/nuttx-export/libs/libnuttx.a(c-lib_checkbase.o)
                                0x232 (size before relaxing)
 .debug_str     0x00005183       0x19 /home/dexheimere/Firmware/build_px4fmu-v2_lpe/px4io-v2/NuttX/nuttx-export/libs/libnuttx.a(c-lib_isbasedigit.o)
                                0x23f (size before relaxing)
 .debug_str     0x0000519c      0x10b /home/dexheimere/Firmware/build_px4fmu-v2_lpe/px4io-v2/NuttX/nuttx-export/libs/libnuttx.a(c-lib_libvsprintf.o)
                                0x3d1 (size before relaxing)
 .debug_str     0x000052a7       0x2b /home/dexheimere/Firmware/build_px4fmu-v2_lpe/px4io-v2/NuttX/nuttx-export/libs/libnuttx.a(c-lib_lowoutstream.o)
                                0x263 (size before relaxing)
 .debug_str     0x000052d2       0x31 /home/dexheimere/Firmware/build_px4fmu-v2_lpe/px4io-v2/NuttX/nuttx-export/libs/libnuttx.a(c-lib_memoutstream.o)
                                0x298 (size before relaxing)
 .debug_str     0x00005303       0x2d /home/dexheimere/Firmware/build_px4fmu-v2_lpe/px4io-v2/NuttX/nuttx-export/libs/libnuttx.a(c-lib_nulloutstream.o)
                                0x265 (size before relaxing)
 .debug_str     0x00005330       0x3a /home/dexheimere/Firmware/build_px4fmu-v2_lpe/px4io-v2/NuttX/nuttx-export/libs/libnuttx.a(c-lib_rawoutstream.o)
                                0x2a5 (size before relaxing)
 .debug_str     0x0000536a       0x17 /home/dexheimere/Firmware/build_px4fmu-v2_lpe/px4io-v2/NuttX/nuttx-export/libs/libnuttx.a(c-lib_skipspace.o)
                                0x21d (size before relaxing)
 .debug_str     0x00005381       0x14 /home/dexheimere/Firmware/build_px4fmu-v2_lpe/px4io-v2/NuttX/nuttx-export/libs/libnuttx.a(c-lib_strcpy.o)
                                0x1ef (size before relaxing)
 .debug_str     0x00005395       0x14 /home/dexheimere/Firmware/build_px4fmu-v2_lpe/px4io-v2/NuttX/nuttx-export/libs/libnuttx.a(c-lib_strlen.o)
                                0x204 (size before relaxing)
 .debug_str     0x000053a9       0x1d /home/dexheimere/Firmware/build_px4fmu-v2_lpe/px4io-v2/NuttX/nuttx-export/libs/libnuttx.a(c-sem_init.o)
                                0x22f (size before relaxing)
 .debug_str     0x000053c6       0x14 /home/dexheimere/Firmware/build_px4fmu-v2_lpe/px4io-v2/NuttX/nuttx-export/libs/libnuttx.a(c-sq_remafter.o)
                                0x236 (size before relaxing)
 .debug_str     0x000053da       0x14 /home/dexheimere/Firmware/build_px4fmu-v2_lpe/px4io-v2/NuttX/nuttx-export/libs/libnuttx.a(c-sq_remfirst.o)
                                0x231 (size before relaxing)
 .debug_str     0x000053ee       0x12 /home/dexheimere/Firmware/build_px4fmu-v2_lpe/px4io-v2/NuttX/nuttx-export/libs/libnuttx.a(mm-mm_addfreechunk.o)
                                0x312 (size before relaxing)
 .debug_str     0x00005400       0x19 /home/dexheimere/Firmware/build_px4fmu-v2_lpe/px4io-v2/NuttX/nuttx-export/libs/libnuttx.a(mm-mm_initialize.o)
                                0x366 (size before relaxing)
 .debug_str     0x00005419       0x1a /home/dexheimere/Firmware/build_px4fmu-v2_lpe/px4io-v2/NuttX/nuttx-export/libs/libnuttx.a(arch-stm32_allocateheap.o)
                                0x265 (size before relaxing)
 .debug_str     0x00005433       0x12 /home/dexheimere/Firmware/build_px4fmu-v2_lpe/px4io-v2/NuttX/nuttx-export/libs/libnuttx.a(arch-stm32_idle.o)
                                0x215 (size before relaxing)
 .debug_str     0x00005445       0x1a /home/dexheimere/Firmware/build_px4fmu-v2_lpe/px4io-v2/NuttX/nuttx-export/libs/libnuttx.a(arch-stm32_lowputc.o)
                                0x24a (size before relaxing)
 .debug_str     0x0000545f       0x7a /home/dexheimere/Firmware/build_px4fmu-v2_lpe/px4io-v2/NuttX/nuttx-export/libs/libnuttx.a(arch-stm32_rcc.o)
                                0x2b2 (size before relaxing)
 .debug_str     0x000054d9       0x8f /home/dexheimere/Firmware/build_px4fmu-v2_lpe/px4io-v2/NuttX/nuttx-export/libs/libnuttx.a(arch-up_blocktask.o)
                                0x700 (size before relaxing)
 .debug_str     0x00005568       0x17 /home/dexheimere/Firmware/build_px4fmu-v2_lpe/px4io-v2/NuttX/nuttx-export/libs/libnuttx.a(arch-up_copystate.o)
                                0x237 (size before relaxing)
 .debug_str     0x0000557f       0x31 /home/dexheimere/Firmware/build_px4fmu-v2_lpe/px4io-v2/NuttX/nuttx-export/libs/libnuttx.a(arch-up_exit.o)
                                0x600 (size before relaxing)
 .debug_str     0x000055b0       0x24 /home/dexheimere/Firmware/build_px4fmu-v2_lpe/px4io-v2/NuttX/nuttx-export/libs/libnuttx.a(arch-up_initialize.o)
                                0x27d (size before relaxing)
 .debug_str     0x000055d4       0x1a /home/dexheimere/Firmware/build_px4fmu-v2_lpe/px4io-v2/NuttX/nuttx-export/libs/libnuttx.a(arch-up_initialstate.o)
                                0x596 (size before relaxing)
 .debug_str     0x000055ee       0x1d /home/dexheimere/Firmware/build_px4fmu-v2_lpe/px4io-v2/NuttX/nuttx-export/libs/libnuttx.a(arch-up_interruptcontext.o)
                                0x265 (size before relaxing)
 .debug_str     0x0000560b       0x20 /home/dexheimere/Firmware/build_px4fmu-v2_lpe/px4io-v2/NuttX/nuttx-export/libs/libnuttx.a(arch-up_mdelay.o)
                                0x225 (size before relaxing)
 .debug_str     0x0000562b       0x41 /home/dexheimere/Firmware/build_px4fmu-v2_lpe/px4io-v2/NuttX/nuttx-export/libs/libnuttx.a(arch-up_unblocktask.o)
                                0x6cb (size before relaxing)
 .debug_str     0x0000566c       0xa8 /home/dexheimere/Firmware/build_px4fmu-v2_lpe/px4io-v2/NuttX/nuttx-export/libs/libnuttx.a(fs-fs_files.o)
                                0x570 (size before relaxing)
 .debug_str     0x00005714       0x2d /home/dexheimere/Firmware/build_px4fmu-v2_lpe/px4io-v2/NuttX/nuttx-export/libs/libnuttx.a(fs-fs_inodeaddref.o)
                                0x427 (size before relaxing)
 .debug_str     0x00005741       0x1c /home/dexheimere/Firmware/build_px4fmu-v2_lpe/px4io-v2/NuttX/nuttx-export/libs/libnuttx.a(fs-fs_inodefind.o)
                                0x442 (size before relaxing)
 .debug_str     0x0000575d       0x66 /home/dexheimere/Firmware/build_px4fmu-v2_lpe/px4io-v2/NuttX/nuttx-export/libs/libnuttx.a(fs-fs_inode.o)
                                0x514 (size before relaxing)
 .debug_str     0x000057c3       0x12 /home/dexheimere/Firmware/build_px4fmu-v2_lpe/px4io-v2/NuttX/nuttx-export/libs/libnuttx.a(fs-fs_inoderelease.o)
                                0x447 (size before relaxing)
 .debug_str     0x000057d5       0x27 /home/dexheimere/Firmware/build_px4fmu-v2_lpe/px4io-v2/NuttX/nuttx-export/libs/libnuttx.a(fs-fs_registerdriver.o)
                                0x454 (size before relaxing)
 .debug_str     0x000057fc        0xf /home/dexheimere/Firmware/build_px4fmu-v2_lpe/px4io-v2/NuttX/nuttx-export/libs/libnuttx.a(sched-group_create.o)
                                0x5b1 (size before relaxing)
 .debug_str     0x0000580b       0x28 /home/dexheimere/Firmware/build_px4fmu-v2_lpe/px4io-v2/NuttX/nuttx-export/libs/libnuttx.a(sched-group_leave.o)
                                0x5a3 (size before relaxing)
 .debug_str     0x00005833       0x1c /home/dexheimere/Firmware/build_px4fmu-v2_lpe/px4io-v2/NuttX/nuttx-export/libs/libnuttx.a(sched-group_setupidlefiles.o)
                                0x5bb (size before relaxing)
 .debug_str     0x0000584f       0x20 /home/dexheimere/Firmware/build_px4fmu-v2_lpe/px4io-v2/NuttX/nuttx-export/libs/libnuttx.a(sched-os_bringup.o)
                                0x241 (size before relaxing)
 .debug_str     0x0000586f       0x38 /home/dexheimere/Firmware/build_px4fmu-v2_lpe/px4io-v2/NuttX/nuttx-export/libs/libnuttx.a(sched-sched_addblocked.o)
                                0x6b7 (size before relaxing)
 .debug_str     0x000058a7       0x17 /home/dexheimere/Firmware/build_px4fmu-v2_lpe/px4io-v2/NuttX/nuttx-export/libs/libnuttx.a(sched-sched_addprioritized.o)
                                0x5d8 (size before relaxing)
 .debug_str     0x000058be       0x16 /home/dexheimere/Firmware/build_px4fmu-v2_lpe/px4io-v2/NuttX/nuttx-export/libs/libnuttx.a(sched-sched_addreadytorun.o)
                                0x693 (size before relaxing)
 .debug_str     0x000058d4        0xd /home/dexheimere/Firmware/build_px4fmu-v2_lpe/px4io-v2/NuttX/nuttx-export/libs/libnuttx.a(sched-sched_free.o)
                                0x2d6 (size before relaxing)
 .debug_str     0x000058e1       0x33 /home/dexheimere/Firmware/build_px4fmu-v2_lpe/px4io-v2/NuttX/nuttx-export/libs/libnuttx.a(sched-sched_mergepending.o)
                                0x690 (size before relaxing)
 .debug_str     0x00005914       0x1d /home/dexheimere/Firmware/build_px4fmu-v2_lpe/px4io-v2/NuttX/nuttx-export/libs/libnuttx.a(sched-sched_removeblocked.o)
                                0x6a4 (size before relaxing)
 .debug_str     0x00005931       0x19 /home/dexheimere/Firmware/build_px4fmu-v2_lpe/px4io-v2/NuttX/nuttx-export/libs/libnuttx.a(sched-sched_removereadytorun.o)
                                0x677 (size before relaxing)
 .debug_str     0x0000594a        0xe /home/dexheimere/Firmware/build_px4fmu-v2_lpe/px4io-v2/NuttX/nuttx-export/libs/libnuttx.a(sched-sem_destroy.o)
                                0x242 (size before relaxing)
 .debug_str     0x00005958       0xaa /home/dexheimere/Firmware/build_px4fmu-v2_lpe/px4io-v2/NuttX/nuttx-export/libs/libnuttx.a(sched-task_create.o)
                                0x6ce (size before relaxing)
 .debug_str     0x00005a02       0x1b /home/dexheimere/Firmware/build_px4fmu-v2_lpe/px4io-v2/NuttX/nuttx-export/libs/libnuttx.a(sched-task_exit.o)
                                0x6aa (size before relaxing)
 .debug_str     0x00005a1d       0x8e /home/dexheimere/Firmware/build_px4fmu-v2_lpe/px4io-v2/NuttX/nuttx-export/libs/libnuttx.a(sched-task_setup.o)
                                0x75a (size before relaxing)
 .debug_str     0x00005aab       0x21 /home/dexheimere/Firmware/build_px4fmu-v2_lpe/px4io-v2/NuttX/nuttx-export/libs/libnuttx.a(sched-task_start.o)
                                0x5e9 (size before relaxing)
 .debug_str     0x00005acc       0x1e /home/dexheimere/Firmware/build_px4fmu-v2_lpe/px4io-v2/NuttX/nuttx-export/libs/libnuttx.a(sched-task_terminate.o)
                                0x713 (size before relaxing)
 .debug_str     0x00005aea       0x13 /home/dexheimere/Firmware/build_px4fmu-v2_lpe/px4io-v2/NuttX/nuttx-export/libs/libnuttx.a(c-dq_addlast.o)
                                0x23a (size before relaxing)
 .debug_str     0x00005afd        0xf /home/dexheimere/Firmware/build_px4fmu-v2_lpe/px4io-v2/NuttX/nuttx-export/libs/libnuttx.a(c-dq_rem.o)
                                0x23c (size before relaxing)
 .debug_str     0x00005b0c       0x19 /home/dexheimere/Firmware/build_px4fmu-v2_lpe/px4io-v2/NuttX/nuttx-export/libs/libnuttx.a(c-lib_strdup.o)
                                0x228 (size before relaxing)
 .debug_str     0x00005b25       0x36 /home/dexheimere/Firmware/build_px4fmu-v2_lpe/px4io-v2/NuttX/nuttx-export/libs/libnuttx.a(arch-stm32_timerisr.o)
                                0x27d (size before relaxing)
 .debug_str     0x00005b5b       0x44 /home/dexheimere/Firmware/build_px4fmu-v2_lpe/px4io-v2/NuttX/nuttx-export/libs/libnuttx.a(arch-up_createstack.o)
                                0x5d0 (size before relaxing)
 .debug_str     0x00005b9f       0x33 /home/dexheimere/Firmware/build_px4fmu-v2_lpe/px4io-v2/NuttX/nuttx-export/libs/libnuttx.a(arch-up_doirq.o)
                                0x270 (size before relaxing)
 .debug_str     0x00005bd2       0x19 /home/dexheimere/Firmware/build_px4fmu-v2_lpe/px4io-v2/NuttX/nuttx-export/libs/libnuttx.a(arch-up_releasestack.o)
                                0x5a5 (size before relaxing)
 .debug_str     0x00005beb        0xb /home/dexheimere/Firmware/build_px4fmu-v2_lpe/px4io-v2/NuttX/nuttx-export/libs/libnuttx.a(fs-fs_close.o)
                                0x223 (size before relaxing)
 .debug_str     0x00005bf6       0x1e /home/dexheimere/Firmware/build_px4fmu-v2_lpe/px4io-v2/NuttX/nuttx-export/libs/libnuttx.a(fs-fs_filedup2.o)
                                0x473 (size before relaxing)
 .debug_str     0x00005c14       0x51 /home/dexheimere/Firmware/build_px4fmu-v2_lpe/px4io-v2/NuttX/nuttx-export/libs/libnuttx.a(fs-fs_inodereserve.o)
                                0x4b0 (size before relaxing)
 .debug_str     0x00005c65       0x17 /home/dexheimere/Firmware/build_px4fmu-v2_lpe/px4io-v2/NuttX/nuttx-export/libs/libnuttx.a(sched-group_setuptaskfiles.o)
                                0x5b6 (size before relaxing)
 .debug_str     0x00005c7c        0xf /home/dexheimere/Firmware/build_px4fmu-v2_lpe/px4io-v2/NuttX/nuttx-export/libs/libnuttx.a(sched-irq_dispatch.o)
                                0x232 (size before relaxing)
 .debug_str     0x00005c8b        0xf /home/dexheimere/Firmware/build_px4fmu-v2_lpe/px4io-v2/NuttX/nuttx-export/libs/libnuttx.a(sched-sched_gettcb.o)
                                0x5a0 (size before relaxing)
 .debug_str     0x00005c9a        0xd /home/dexheimere/Firmware/build_px4fmu-v2_lpe/px4io-v2/NuttX/nuttx-export/libs/libnuttx.a(sched-sched_lock.o)
                                0x5dc (size before relaxing)
 .debug_str     0x00005ca7       0x42 /home/dexheimere/Firmware/build_px4fmu-v2_lpe/px4io-v2/NuttX/nuttx-export/libs/libnuttx.a(sched-sched_processtimer.o)
                                0x24a (size before relaxing)
 .debug_str     0x00005ce9       0x24 /home/dexheimere/Firmware/build_px4fmu-v2_lpe/px4io-v2/NuttX/nuttx-export/libs/libnuttx.a(sched-sched_releasetcb.o)
                                0x60b (size before relaxing)
 .debug_str     0x00005d0d       0x22 /home/dexheimere/Firmware/build_px4fmu-v2_lpe/px4io-v2/NuttX/nuttx-export/libs/libnuttx.a(sched-sched_unlock.o)
                                0x61e (size before relaxing)
 .debug_str     0x00005d2f       0x10 /home/dexheimere/Firmware/build_px4fmu-v2_lpe/px4io-v2/NuttX/nuttx-export/libs/libnuttx.a(sched-task_activate.o)
                                0x5b1 (size before relaxing)
 .debug_str     0x00005d3f       0x1c /home/dexheimere/Firmware/build_px4fmu-v2_lpe/px4io-v2/NuttX/nuttx-export/libs/libnuttx.a(arch-up_releasepending.o)
                                0x621 (size before relaxing)

.debug_frame    0x00000000     0x37c0
 .debug_frame   0x00000000       0x54 src/modules/px4iofirmware/CMakeFiles/px4io-v2.dir/adc.c.obj
 .debug_frame   0x00000054       0x68 src/modules/px4iofirmware/CMakeFiles/px4io-v2.dir/controls.c.obj
 .debug_frame   0x000000bc       0x98 src/modules/px4iofirmware/CMakeFiles/px4io-v2.dir/px4io.c.obj
 .debug_frame   0x00000154       0x98 src/modules/px4iofirmware/CMakeFiles/px4io-v2.dir/registers.c.obj
 .debug_frame   0x000001ec       0x70 src/modules/px4iofirmware/CMakeFiles/px4io-v2.dir/safety.c.obj
 .debug_frame   0x0000025c       0x30 src/modules/px4iofirmware/CMakeFiles/px4io-v2.dir/__/systemlib/up_cxxinitialize.c.obj
 .debug_frame   0x0000028c      0x248 src/modules/px4iofirmware/CMakeFiles/px4io-v2.dir/__/systemlib/perf_counter.c.obj
 .debug_frame   0x000004d4      0x104 src/modules/px4iofirmware/CMakeFiles/px4io-v2.dir/mixer.cpp.obj
 .debug_frame   0x000005d8      0x138 src/modules/px4iofirmware/CMakeFiles/px4io-v2.dir/__/systemlib/mixer/mixer.cpp.obj
 .debug_frame   0x00000710      0x100 src/modules/px4iofirmware/CMakeFiles/px4io-v2.dir/__/systemlib/mixer/mixer_group.cpp.obj
 .debug_frame   0x00000810       0xd0 src/modules/px4iofirmware/CMakeFiles/px4io-v2.dir/__/systemlib/mixer/mixer_multirotor.cpp.obj
 .debug_frame   0x000008e0      0x198 src/modules/px4iofirmware/CMakeFiles/px4io-v2.dir/__/systemlib/mixer/mixer_simple.cpp.obj
 .debug_frame   0x00000a78       0x50 src/modules/px4iofirmware/CMakeFiles/px4io-v2.dir/__/systemlib/pwm_limit/pwm_limit.c.obj
 .debug_frame   0x00000ac8       0x50 src/modules/px4iofirmware/CMakeFiles/px4io-v2.dir/__/__/lib/rc/st24.c.obj
 .debug_frame   0x00000b18       0x78 src/modules/px4iofirmware/CMakeFiles/px4io-v2.dir/__/__/lib/rc/sumd.c.obj
 .debug_frame   0x00000b90       0xfc src/modules/px4iofirmware/CMakeFiles/px4io-v2.dir/__/__/lib/rc/sbus.c.obj
 .debug_frame   0x00000c8c       0xf0 src/modules/px4iofirmware/CMakeFiles/px4io-v2.dir/__/__/lib/rc/dsm.c.obj
 .debug_frame   0x00000d7c      0x244 src/modules/px4iofirmware/CMakeFiles/px4io-v2.dir/__/__/drivers/stm32/drv_hrt.c.obj
 .debug_frame   0x00000fc0      0x22c src/modules/px4iofirmware/CMakeFiles/px4io-v2.dir/__/__/drivers/stm32/drv_io_timer.c.obj
 .debug_frame   0x000011ec       0xb4 src/modules/px4iofirmware/CMakeFiles/px4io-v2.dir/__/__/drivers/stm32/drv_pwm_servo.c.obj
 .debug_frame   0x000012a0       0x30 src/modules/px4iofirmware/CMakeFiles/px4io-v2.dir/__/__/drivers/boards/px4io-v2/px4io_init.c.obj
 .debug_frame   0x000012d0       0xa4 src/modules/px4iofirmware/CMakeFiles/px4io-v2.dir/serial.c.obj
 .debug_frame   0x00001374      0x104 src/modules/px4iofirmware/CMakeFiles/px4io-v2.dir/__/systemlib/hx_stream.c.obj
 .debug_frame   0x00001478       0x2c /home/dexheimere/Firmware/build_px4fmu-v2_lpe/px4io-v2/NuttX/nuttx-export/libs/libnuttx.a(sched-irq_attach.o)
 .debug_frame   0x000014a4       0x20 /home/dexheimere/Firmware/build_px4fmu-v2_lpe/px4io-v2/NuttX/nuttx-export/libs/libnuttx.a(sched-irq_initialize.o)
 .debug_frame   0x000014c4       0x28 /home/dexheimere/Firmware/build_px4fmu-v2_lpe/px4io-v2/NuttX/nuttx-export/libs/libnuttx.a(sched-irq_unexpectedisr.o)
 .debug_frame   0x000014ec       0x28 /home/dexheimere/Firmware/build_px4fmu-v2_lpe/px4io-v2/NuttX/nuttx-export/libs/libnuttx.a(c-lib_abort.o)
 .debug_frame   0x00001514       0x20 /home/dexheimere/Firmware/build_px4fmu-v2_lpe/px4io-v2/NuttX/nuttx-export/libs/libnuttx.a(c-lib_cfsetspeed.o)
 .debug_frame   0x00001534       0x38 /home/dexheimere/Firmware/build_px4fmu-v2_lpe/px4io-v2/NuttX/nuttx-export/libs/libnuttx.a(c-lib_crc32.o)
 .debug_frame   0x0000156c       0x3c /home/dexheimere/Firmware/build_px4fmu-v2_lpe/px4io-v2/NuttX/nuttx-export/libs/libnuttx.a(c-lib_dprintf.o)
 .debug_frame   0x000015a8       0x5c /home/dexheimere/Firmware/build_px4fmu-v2_lpe/px4io-v2/NuttX/nuttx-export/libs/libnuttx.a(c-lib_lowsyslog.o)
 .debug_frame   0x00001604       0x28 /home/dexheimere/Firmware/build_px4fmu-v2_lpe/px4io-v2/NuttX/nuttx-export/libs/libnuttx.a(c-lib_memchr.o)
 .debug_frame   0x0000162c       0x28 /home/dexheimere/Firmware/build_px4fmu-v2_lpe/px4io-v2/NuttX/nuttx-export/libs/libnuttx.a(c-lib_memcpy.o)
 .debug_frame   0x00001654       0x20 /home/dexheimere/Firmware/build_px4fmu-v2_lpe/px4io-v2/NuttX/nuttx-export/libs/libnuttx.a(c-lib_memset.o)
 .debug_frame   0x00001674       0x40 /home/dexheimere/Firmware/build_px4fmu-v2_lpe/px4io-v2/NuttX/nuttx-export/libs/libnuttx.a(c-lib_printf.o)
 .debug_frame   0x000016b4       0x8c /home/dexheimere/Firmware/build_px4fmu-v2_lpe/px4io-v2/NuttX/nuttx-export/libs/libnuttx.a(c-lib_sscanf.o)
 .debug_frame   0x00001740       0x20 /home/dexheimere/Firmware/build_px4fmu-v2_lpe/px4io-v2/NuttX/nuttx-export/libs/libnuttx.a(c-lib_strchr.o)
 .debug_frame   0x00001760       0x20 /home/dexheimere/Firmware/build_px4fmu-v2_lpe/px4io-v2/NuttX/nuttx-export/libs/libnuttx.a(c-lib_strcmp.o)
 .debug_frame   0x00001780       0x30 /home/dexheimere/Firmware/build_px4fmu-v2_lpe/px4io-v2/NuttX/nuttx-export/libs/libnuttx.a(c-lib_strcspn.o)
 .debug_frame   0x000017b0       0x28 /home/dexheimere/Firmware/build_px4fmu-v2_lpe/px4io-v2/NuttX/nuttx-export/libs/libnuttx.a(c-lib_strncpy.o)
 .debug_frame   0x000017d8       0x30 /home/dexheimere/Firmware/build_px4fmu-v2_lpe/px4io-v2/NuttX/nuttx-export/libs/libnuttx.a(c-lib_strtol.o)
 .debug_frame   0x00001808       0x30 /home/dexheimere/Firmware/build_px4fmu-v2_lpe/px4io-v2/NuttX/nuttx-export/libs/libnuttx.a(c-lib_strtoul.o)
 .debug_frame   0x00001838       0x60 /home/dexheimere/Firmware/build_px4fmu-v2_lpe/px4io-v2/NuttX/nuttx-export/libs/libnuttx.a(c-lib_syslog.o)
 .debug_frame   0x00001898       0x20 /home/dexheimere/Firmware/build_px4fmu-v2_lpe/px4io-v2/NuttX/nuttx-export/libs/libnuttx.a(c-lib_tcgetattr.o)
 .debug_frame   0x000018b8       0x20 /home/dexheimere/Firmware/build_px4fmu-v2_lpe/px4io-v2/NuttX/nuttx-export/libs/libnuttx.a(c-lib_tcsetattr.o)
 .debug_frame   0x000018d8       0x30 /home/dexheimere/Firmware/build_px4fmu-v2_lpe/px4io-v2/NuttX/nuttx-export/libs/libnuttx.a(c-lib_vdprintf.o)
 .debug_frame   0x00001908       0x30 /home/dexheimere/Firmware/build_px4fmu-v2_lpe/px4io-v2/NuttX/nuttx-export/libs/libnuttx.a(c-lib_vsnprintf.o)
 .debug_frame   0x00001938       0x20 /home/dexheimere/Firmware/build_px4fmu-v2_lpe/px4io-v2/NuttX/nuttx-export/libs/libnuttx.a(c-sq_addafter.o)
 .debug_frame   0x00001958       0x20 /home/dexheimere/Firmware/build_px4fmu-v2_lpe/px4io-v2/NuttX/nuttx-export/libs/libnuttx.a(c-sq_addfirst.o)
 .debug_frame   0x00001978       0x20 /home/dexheimere/Firmware/build_px4fmu-v2_lpe/px4io-v2/NuttX/nuttx-export/libs/libnuttx.a(c-sq_addlast.o)
 .debug_frame   0x00001998       0x20 /home/dexheimere/Firmware/build_px4fmu-v2_lpe/px4io-v2/NuttX/nuttx-export/libs/libnuttx.a(c-sq_rem.o)
 .debug_frame   0x000019b8       0x20 /home/dexheimere/Firmware/build_px4fmu-v2_lpe/px4io-v2/NuttX/nuttx-export/libs/libnuttx.a(mm-mm_calloc.o)
 .debug_frame   0x000019d8       0x38 /home/dexheimere/Firmware/build_px4fmu-v2_lpe/px4io-v2/NuttX/nuttx-export/libs/libnuttx.a(mm-mm_free.o)
 .debug_frame   0x00001a10       0x34 /home/dexheimere/Firmware/build_px4fmu-v2_lpe/px4io-v2/NuttX/nuttx-export/libs/libnuttx.a(mm-mm_mallinfo.o)
 .debug_frame   0x00001a44       0x30 /home/dexheimere/Firmware/build_px4fmu-v2_lpe/px4io-v2/NuttX/nuttx-export/libs/libnuttx.a(mm-mm_malloc.o)
 .debug_frame   0x00001a74       0x78 /home/dexheimere/Firmware/build_px4fmu-v2_lpe/px4io-v2/NuttX/nuttx-export/libs/libnuttx.a(mm-mm_sem.o)
 .debug_frame   0x00001aec       0x20 /home/dexheimere/Firmware/build_px4fmu-v2_lpe/px4io-v2/NuttX/nuttx-export/libs/libnuttx.a(mm-mm_size2ndx.o)
 .debug_frame   0x00001b0c       0x50 /home/dexheimere/Firmware/build_px4fmu-v2_lpe/px4io-v2/NuttX/nuttx-export/libs/libnuttx.a(mm-mm_user.o)
 .debug_frame   0x00001b5c       0x2c /home/dexheimere/Firmware/build_px4fmu-v2_lpe/px4io-v2/NuttX/nuttx-export/libs/libnuttx.a(mm-mm_zalloc.o)
 .debug_frame   0x00001b88       0xcc /home/dexheimere/Firmware/build_px4fmu-v2_lpe/px4io-v2/NuttX/nuttx-export/libs/libnuttx.a(arch-stm32_dma.o)
 .debug_frame   0x00001c54       0x74 /home/dexheimere/Firmware/build_px4fmu-v2_lpe/px4io-v2/NuttX/nuttx-export/libs/libnuttx.a(arch-stm32_gpio.o)
 .debug_frame   0x00001cc8       0x78 /home/dexheimere/Firmware/build_px4fmu-v2_lpe/px4io-v2/NuttX/nuttx-export/libs/libnuttx.a(arch-stm32_irq.o)
 .debug_frame   0x00001d40      0x28c /home/dexheimere/Firmware/build_px4fmu-v2_lpe/px4io-v2/NuttX/nuttx-export/libs/libnuttx.a(arch-stm32_serial.o)
 .debug_frame   0x00001fcc       0x28 /home/dexheimere/Firmware/build_px4fmu-v2_lpe/px4io-v2/NuttX/nuttx-export/libs/libnuttx.a(arch-stm32_start.o)
 .debug_frame   0x00001ff4       0x28 /home/dexheimere/Firmware/build_px4fmu-v2_lpe/px4io-v2/NuttX/nuttx-export/libs/libnuttx.a(arch-up_assert.o)
 .debug_frame   0x0000201c       0x30 /home/dexheimere/Firmware/build_px4fmu-v2_lpe/px4io-v2/NuttX/nuttx-export/libs/libnuttx.a(arch-up_hardfault.o)
 .debug_frame   0x0000204c       0x28 /home/dexheimere/Firmware/build_px4fmu-v2_lpe/px4io-v2/NuttX/nuttx-export/libs/libnuttx.a(arch-up_modifyreg32.o)
 .debug_frame   0x00002074       0x28 /home/dexheimere/Firmware/build_px4fmu-v2_lpe/px4io-v2/NuttX/nuttx-export/libs/libnuttx.a(arch-up_svcall.o)
 .debug_frame   0x0000209c       0x20 /home/dexheimere/Firmware/build_px4fmu-v2_lpe/px4io-v2/NuttX/nuttx-export/libs/libnuttx.a(arch-up_systemreset.o)
 .debug_frame   0x000020bc       0x28 /home/dexheimere/Firmware/build_px4fmu-v2_lpe/px4io-v2/NuttX/nuttx-export/libs/libnuttx.a(arch-up_udelay.o)
 .debug_frame   0x000020e4       0x20 /home/dexheimere/Firmware/build_px4fmu-v2_lpe/px4io-v2/NuttX/nuttx-export/libs/libnuttx.a(cxx-libxx_cxa_atexit.o)
 .debug_frame   0x00002104       0x28 /home/dexheimere/Firmware/build_px4fmu-v2_lpe/px4io-v2/NuttX/nuttx-export/libs/libnuttx.a(cxx-libxx_cxapurevirtual.o)
 .debug_frame   0x0000212c       0x20 /home/dexheimere/Firmware/build_px4fmu-v2_lpe/px4io-v2/NuttX/nuttx-export/libs/libnuttx.a(cxx-libxx_delete.o)
 .debug_frame   0x0000214c       0x20 /home/dexheimere/Firmware/build_px4fmu-v2_lpe/px4io-v2/NuttX/nuttx-export/libs/libnuttx.a(cxx-libxx_eabi_atexit.o)
 .debug_frame   0x0000216c       0x20 /home/dexheimere/Firmware/build_px4fmu-v2_lpe/px4io-v2/NuttX/nuttx-export/libs/libnuttx.a(cxx-libxx_new.o)
 .debug_frame   0x0000218c       0x2c /home/dexheimere/Firmware/build_px4fmu-v2_lpe/px4io-v2/NuttX/nuttx-export/libs/libnuttx.a(fs-fs_ioctl.o)
 .debug_frame   0x000021b8       0x58 /home/dexheimere/Firmware/build_px4fmu-v2_lpe/px4io-v2/NuttX/nuttx-export/libs/libnuttx.a(fs-fs_open.o)
 .debug_frame   0x00002210       0x2c /home/dexheimere/Firmware/build_px4fmu-v2_lpe/px4io-v2/NuttX/nuttx-export/libs/libnuttx.a(fs-fs_read.o)
 .debug_frame   0x0000223c       0x2c /home/dexheimere/Firmware/build_px4fmu-v2_lpe/px4io-v2/NuttX/nuttx-export/libs/libnuttx.a(fs-fs_write.o)
 .debug_frame   0x00002268       0x5c /home/dexheimere/Firmware/build_px4fmu-v2_lpe/px4io-v2/NuttX/nuttx-export/libs/libnuttx.a(drivers-serialirq.o)
 .debug_frame   0x000022c4      0x154 /home/dexheimere/Firmware/build_px4fmu-v2_lpe/px4io-v2/NuttX/nuttx-export/libs/libnuttx.a(drivers-serial.o)
 .debug_frame   0x00002418       0x28 /home/dexheimere/Firmware/build_px4fmu-v2_lpe/px4io-v2/NuttX/nuttx-export/libs/libnuttx.a(sched-errno_getptr.o)
 .debug_frame   0x00002440       0x28 /home/dexheimere/Firmware/build_px4fmu-v2_lpe/px4io-v2/NuttX/nuttx-export/libs/libnuttx.a(sched-exit.o)
 .debug_frame   0x00002468       0x20 /home/dexheimere/Firmware/build_px4fmu-v2_lpe/px4io-v2/NuttX/nuttx-export/libs/libnuttx.a(sched-getpid.o)
 .debug_frame   0x00002488       0x2c /home/dexheimere/Firmware/build_px4fmu-v2_lpe/px4io-v2/NuttX/nuttx-export/libs/libnuttx.a(sched-os_start.o)
 .debug_frame   0x000024b4       0x2c /home/dexheimere/Firmware/build_px4fmu-v2_lpe/px4io-v2/NuttX/nuttx-export/libs/libnuttx.a(sched-sched_garbage.o)
 .debug_frame   0x000024e0       0x20 /home/dexheimere/Firmware/build_px4fmu-v2_lpe/px4io-v2/NuttX/nuttx-export/libs/libnuttx.a(sched-sched_getfiles.o)
 .debug_frame   0x00002500       0x28 /home/dexheimere/Firmware/build_px4fmu-v2_lpe/px4io-v2/NuttX/nuttx-export/libs/libnuttx.a(sched-sem_post.o)
 .debug_frame   0x00002528       0x2c /home/dexheimere/Firmware/build_px4fmu-v2_lpe/px4io-v2/NuttX/nuttx-export/libs/libnuttx.a(sched-sem_trywait.o)
 .debug_frame   0x00002554       0x30 /home/dexheimere/Firmware/build_px4fmu-v2_lpe/px4io-v2/NuttX/nuttx-export/libs/libnuttx.a(sched-sem_wait.o)
 .debug_frame   0x00002584       0x28 /home/dexheimere/Firmware/build_px4fmu-v2_lpe/px4io-v2/NuttX/nuttx-export/libs/libnuttx.a(sched-task_exithook.o)
 .debug_frame   0x000025ac       0x2c /home/dexheimere/Firmware/build_px4fmu-v2_lpe/px4io-v2/NuttX/nuttx-export/libs/libnuttx.a(sched-task_recover.o)
 .debug_frame   0x000025d8       0x2c /home/dexheimere/Firmware/build_px4fmu-v2_lpe/px4io-v2/NuttX/nuttx-export/libs/libnuttx.a(sched-wd_cancel.o)
 .debug_frame   0x00002604       0x2c /home/dexheimere/Firmware/build_px4fmu-v2_lpe/px4io-v2/NuttX/nuttx-export/libs/libnuttx.a(sched-wd_delete.o)
 .debug_frame   0x00002630       0x2c /home/dexheimere/Firmware/build_px4fmu-v2_lpe/px4io-v2/NuttX/nuttx-export/libs/libnuttx.a(sched-wd_initialize.o)
 .debug_frame   0x0000265c       0x20 /home/dexheimere/Firmware/build_px4fmu-v2_lpe/px4io-v2/NuttX/nuttx-export/libs/libnuttx.a(c-dq_addfirst.o)
 .debug_frame   0x0000267c       0x20 /home/dexheimere/Firmware/build_px4fmu-v2_lpe/px4io-v2/NuttX/nuttx-export/libs/libnuttx.a(c-lib_cfgetspeed.o)
 .debug_frame   0x0000269c       0x2c /home/dexheimere/Firmware/build_px4fmu-v2_lpe/px4io-v2/NuttX/nuttx-export/libs/libnuttx.a(c-lib_checkbase.o)
 .debug_frame   0x000026c8       0x20 /home/dexheimere/Firmware/build_px4fmu-v2_lpe/px4io-v2/NuttX/nuttx-export/libs/libnuttx.a(c-lib_isbasedigit.o)
 .debug_frame   0x000026e8      0x25c /home/dexheimere/Firmware/build_px4fmu-v2_lpe/px4io-v2/NuttX/nuttx-export/libs/libnuttx.a(c-lib_libvsprintf.o)
 .debug_frame   0x00002944       0x38 /home/dexheimere/Firmware/build_px4fmu-v2_lpe/px4io-v2/NuttX/nuttx-export/libs/libnuttx.a(c-lib_lowoutstream.o)
 .debug_frame   0x0000297c       0x30 /home/dexheimere/Firmware/build_px4fmu-v2_lpe/px4io-v2/NuttX/nuttx-export/libs/libnuttx.a(c-lib_memoutstream.o)
 .debug_frame   0x000029ac       0x30 /home/dexheimere/Firmware/build_px4fmu-v2_lpe/px4io-v2/NuttX/nuttx-export/libs/libnuttx.a(c-lib_nulloutstream.o)
 .debug_frame   0x000029dc       0x3c /home/dexheimere/Firmware/build_px4fmu-v2_lpe/px4io-v2/NuttX/nuttx-export/libs/libnuttx.a(c-lib_rawoutstream.o)
 .debug_frame   0x00002a18       0x20 /home/dexheimere/Firmware/build_px4fmu-v2_lpe/px4io-v2/NuttX/nuttx-export/libs/libnuttx.a(c-lib_skipspace.o)
 .debug_frame   0x00002a38       0x20 /home/dexheimere/Firmware/build_px4fmu-v2_lpe/px4io-v2/NuttX/nuttx-export/libs/libnuttx.a(c-lib_strcpy.o)
 .debug_frame   0x00002a58       0x20 /home/dexheimere/Firmware/build_px4fmu-v2_lpe/px4io-v2/NuttX/nuttx-export/libs/libnuttx.a(c-lib_strlen.o)
 .debug_frame   0x00002a78       0x28 /home/dexheimere/Firmware/build_px4fmu-v2_lpe/px4io-v2/NuttX/nuttx-export/libs/libnuttx.a(c-sem_init.o)
 .debug_frame   0x00002aa0       0x20 /home/dexheimere/Firmware/build_px4fmu-v2_lpe/px4io-v2/NuttX/nuttx-export/libs/libnuttx.a(c-sq_remafter.o)
 .debug_frame   0x00002ac0       0x20 /home/dexheimere/Firmware/build_px4fmu-v2_lpe/px4io-v2/NuttX/nuttx-export/libs/libnuttx.a(c-sq_remfirst.o)
 .debug_frame   0x00002ae0       0x2c /home/dexheimere/Firmware/build_px4fmu-v2_lpe/px4io-v2/NuttX/nuttx-export/libs/libnuttx.a(mm-mm_addfreechunk.o)
 .debug_frame   0x00002b0c       0x5c /home/dexheimere/Firmware/build_px4fmu-v2_lpe/px4io-v2/NuttX/nuttx-export/libs/libnuttx.a(mm-mm_initialize.o)
 .debug_frame   0x00002b68       0x20 /home/dexheimere/Firmware/build_px4fmu-v2_lpe/px4io-v2/NuttX/nuttx-export/libs/libnuttx.a(arch-stm32_allocateheap.o)
 .debug_frame   0x00002b88       0x20 /home/dexheimere/Firmware/build_px4fmu-v2_lpe/px4io-v2/NuttX/nuttx-export/libs/libnuttx.a(arch-stm32_idle.o)
 .debug_frame   0x00002ba8       0x38 /home/dexheimere/Firmware/build_px4fmu-v2_lpe/px4io-v2/NuttX/nuttx-export/libs/libnuttx.a(arch-stm32_lowputc.o)
 .debug_frame   0x00002be0       0x34 /home/dexheimere/Firmware/build_px4fmu-v2_lpe/px4io-v2/NuttX/nuttx-export/libs/libnuttx.a(arch-stm32_rcc.o)
 .debug_frame   0x00002c14       0x3c /home/dexheimere/Firmware/build_px4fmu-v2_lpe/px4io-v2/NuttX/nuttx-export/libs/libnuttx.a(arch-up_blocktask.o)
 .debug_frame   0x00002c50       0x20 /home/dexheimere/Firmware/build_px4fmu-v2_lpe/px4io-v2/NuttX/nuttx-export/libs/libnuttx.a(arch-up_copystate.o)
 .debug_frame   0x00002c70       0x28 /home/dexheimere/Firmware/build_px4fmu-v2_lpe/px4io-v2/NuttX/nuttx-export/libs/libnuttx.a(arch-up_exit.o)
 .debug_frame   0x00002c98       0x2c /home/dexheimere/Firmware/build_px4fmu-v2_lpe/px4io-v2/NuttX/nuttx-export/libs/libnuttx.a(arch-up_initialize.o)
 .debug_frame   0x00002cc4       0x28 /home/dexheimere/Firmware/build_px4fmu-v2_lpe/px4io-v2/NuttX/nuttx-export/libs/libnuttx.a(arch-up_initialstate.o)
 .debug_frame   0x00002cec       0x20 /home/dexheimere/Firmware/build_px4fmu-v2_lpe/px4io-v2/NuttX/nuttx-export/libs/libnuttx.a(arch-up_interruptcontext.o)
 .debug_frame   0x00002d0c       0x28 /home/dexheimere/Firmware/build_px4fmu-v2_lpe/px4io-v2/NuttX/nuttx-export/libs/libnuttx.a(arch-up_mdelay.o)
 .debug_frame   0x00002d34       0x38 /home/dexheimere/Firmware/build_px4fmu-v2_lpe/px4io-v2/NuttX/nuttx-export/libs/libnuttx.a(arch-up_unblocktask.o)
 .debug_frame   0x00002d6c      0x10c /home/dexheimere/Firmware/build_px4fmu-v2_lpe/px4io-v2/NuttX/nuttx-export/libs/libnuttx.a(fs-fs_files.o)
 .debug_frame   0x00002e78       0x30 /home/dexheimere/Firmware/build_px4fmu-v2_lpe/px4io-v2/NuttX/nuttx-export/libs/libnuttx.a(fs-fs_inodeaddref.o)
 .debug_frame   0x00002ea8       0x2c /home/dexheimere/Firmware/build_px4fmu-v2_lpe/px4io-v2/NuttX/nuttx-export/libs/libnuttx.a(fs-fs_inodefind.o)
 .debug_frame   0x00002ed4       0xa4 /home/dexheimere/Firmware/build_px4fmu-v2_lpe/px4io-v2/NuttX/nuttx-export/libs/libnuttx.a(fs-fs_inode.o)
 .debug_frame   0x00002f78       0x38 /home/dexheimere/Firmware/build_px4fmu-v2_lpe/px4io-v2/NuttX/nuttx-export/libs/libnuttx.a(fs-fs_inoderelease.o)
 .debug_frame   0x00002fb0       0x30 /home/dexheimere/Firmware/build_px4fmu-v2_lpe/px4io-v2/NuttX/nuttx-export/libs/libnuttx.a(fs-fs_registerdriver.o)
 .debug_frame   0x00002fe0       0x38 /home/dexheimere/Firmware/build_px4fmu-v2_lpe/px4io-v2/NuttX/nuttx-export/libs/libnuttx.a(sched-group_create.o)
 .debug_frame   0x00003018       0x2c /home/dexheimere/Firmware/build_px4fmu-v2_lpe/px4io-v2/NuttX/nuttx-export/libs/libnuttx.a(sched-group_leave.o)
 .debug_frame   0x00003044       0x28 /home/dexheimere/Firmware/build_px4fmu-v2_lpe/px4io-v2/NuttX/nuttx-export/libs/libnuttx.a(sched-group_setupidlefiles.o)
 .debug_frame   0x0000306c       0x2c /home/dexheimere/Firmware/build_px4fmu-v2_lpe/px4io-v2/NuttX/nuttx-export/libs/libnuttx.a(sched-os_bringup.o)
 .debug_frame   0x00003098       0x2c /home/dexheimere/Firmware/build_px4fmu-v2_lpe/px4io-v2/NuttX/nuttx-export/libs/libnuttx.a(sched-sched_addblocked.o)
 .debug_frame   0x000030c4       0x28 /home/dexheimere/Firmware/build_px4fmu-v2_lpe/px4io-v2/NuttX/nuttx-export/libs/libnuttx.a(sched-sched_addprioritized.o)
 .debug_frame   0x000030ec       0x2c /home/dexheimere/Firmware/build_px4fmu-v2_lpe/px4io-v2/NuttX/nuttx-export/libs/libnuttx.a(sched-sched_addreadytorun.o)
 .debug_frame   0x00003118       0x34 /home/dexheimere/Firmware/build_px4fmu-v2_lpe/px4io-v2/NuttX/nuttx-export/libs/libnuttx.a(sched-sched_free.o)
 .debug_frame   0x0000314c       0x30 /home/dexheimere/Firmware/build_px4fmu-v2_lpe/px4io-v2/NuttX/nuttx-export/libs/libnuttx.a(sched-sched_mergepending.o)
 .debug_frame   0x0000317c       0x28 /home/dexheimere/Firmware/build_px4fmu-v2_lpe/px4io-v2/NuttX/nuttx-export/libs/libnuttx.a(sched-sched_removeblocked.o)
 .debug_frame   0x000031a4       0x2c /home/dexheimere/Firmware/build_px4fmu-v2_lpe/px4io-v2/NuttX/nuttx-export/libs/libnuttx.a(sched-sched_removereadytorun.o)
 .debug_frame   0x000031d0       0x28 /home/dexheimere/Firmware/build_px4fmu-v2_lpe/px4io-v2/NuttX/nuttx-export/libs/libnuttx.a(sched-sem_destroy.o)
 .debug_frame   0x000031f8       0x6c /home/dexheimere/Firmware/build_px4fmu-v2_lpe/px4io-v2/NuttX/nuttx-export/libs/libnuttx.a(sched-task_create.o)
 .debug_frame   0x00003264       0x2c /home/dexheimere/Firmware/build_px4fmu-v2_lpe/px4io-v2/NuttX/nuttx-export/libs/libnuttx.a(sched-task_exit.o)
 .debug_frame   0x00003290       0x54 /home/dexheimere/Firmware/build_px4fmu-v2_lpe/px4io-v2/NuttX/nuttx-export/libs/libnuttx.a(sched-task_setup.o)
 .debug_frame   0x000032e4       0x28 /home/dexheimere/Firmware/build_px4fmu-v2_lpe/px4io-v2/NuttX/nuttx-export/libs/libnuttx.a(sched-task_start.o)
 .debug_frame   0x0000330c       0x2c /home/dexheimere/Firmware/build_px4fmu-v2_lpe/px4io-v2/NuttX/nuttx-export/libs/libnuttx.a(sched-task_terminate.o)
 .debug_frame   0x00003338       0x20 /home/dexheimere/Firmware/build_px4fmu-v2_lpe/px4io-v2/NuttX/nuttx-export/libs/libnuttx.a(c-dq_addlast.o)
 .debug_frame   0x00003358       0x20 /home/dexheimere/Firmware/build_px4fmu-v2_lpe/px4io-v2/NuttX/nuttx-export/libs/libnuttx.a(c-dq_rem.o)
 .debug_frame   0x00003378       0x2c /home/dexheimere/Firmware/build_px4fmu-v2_lpe/px4io-v2/NuttX/nuttx-export/libs/libnuttx.a(c-lib_strdup.o)
 .debug_frame   0x000033a4       0x44 /home/dexheimere/Firmware/build_px4fmu-v2_lpe/px4io-v2/NuttX/nuttx-export/libs/libnuttx.a(arch-stm32_timerisr.o)
 .debug_frame   0x000033e8       0x2c /home/dexheimere/Firmware/build_px4fmu-v2_lpe/px4io-v2/NuttX/nuttx-export/libs/libnuttx.a(arch-up_createstack.o)
 .debug_frame   0x00003414       0x30 /home/dexheimere/Firmware/build_px4fmu-v2_lpe/px4io-v2/NuttX/nuttx-export/libs/libnuttx.a(arch-up_doirq.o)
 .debug_frame   0x00003444       0x28 /home/dexheimere/Firmware/build_px4fmu-v2_lpe/px4io-v2/NuttX/nuttx-export/libs/libnuttx.a(arch-up_releasestack.o)
 .debug_frame   0x0000346c       0x28 /home/dexheimere/Firmware/build_px4fmu-v2_lpe/px4io-v2/NuttX/nuttx-export/libs/libnuttx.a(fs-fs_close.o)
 .debug_frame   0x00003494       0x38 /home/dexheimere/Firmware/build_px4fmu-v2_lpe/px4io-v2/NuttX/nuttx-export/libs/libnuttx.a(fs-fs_filedup2.o)
 .debug_frame   0x000034cc       0x4c /home/dexheimere/Firmware/build_px4fmu-v2_lpe/px4io-v2/NuttX/nuttx-export/libs/libnuttx.a(fs-fs_inodereserve.o)
 .debug_frame   0x00003518       0x28 /home/dexheimere/Firmware/build_px4fmu-v2_lpe/px4io-v2/NuttX/nuttx-export/libs/libnuttx.a(sched-group_setuptaskfiles.o)
 .debug_frame   0x00003540       0x20 /home/dexheimere/Firmware/build_px4fmu-v2_lpe/px4io-v2/NuttX/nuttx-export/libs/libnuttx.a(sched-irq_dispatch.o)
 .debug_frame   0x00003560       0x20 /home/dexheimere/Firmware/build_px4fmu-v2_lpe/px4io-v2/NuttX/nuttx-export/libs/libnuttx.a(sched-sched_gettcb.o)
 .debug_frame   0x00003580       0x28 /home/dexheimere/Firmware/build_px4fmu-v2_lpe/px4io-v2/NuttX/nuttx-export/libs/libnuttx.a(sched-sched_lock.o)
 .debug_frame   0x000035a8       0x28 /home/dexheimere/Firmware/build_px4fmu-v2_lpe/px4io-v2/NuttX/nuttx-export/libs/libnuttx.a(sched-sched_processtimer.o)
 .debug_frame   0x000035d0       0x2c /home/dexheimere/Firmware/build_px4fmu-v2_lpe/px4io-v2/NuttX/nuttx-export/libs/libnuttx.a(sched-sched_releasetcb.o)
 .debug_frame   0x000035fc       0x2c /home/dexheimere/Firmware/build_px4fmu-v2_lpe/px4io-v2/NuttX/nuttx-export/libs/libnuttx.a(sched-sched_unlock.o)
 .debug_frame   0x00003628       0x28 /home/dexheimere/Firmware/build_px4fmu-v2_lpe/px4io-v2/NuttX/nuttx-export/libs/libnuttx.a(sched-task_activate.o)
 .debug_frame   0x00003650       0x38 /home/dexheimere/Firmware/build_px4fmu-v2_lpe/px4io-v2/NuttX/nuttx-export/libs/libnuttx.a(arch-up_releasepending.o)
 .debug_frame   0x00003688       0x2c /home/dexheimere/gcc-arm-none-eabi-5_4-2016q2/bin/../lib/gcc/arm-none-eabi/5.4.1/../../../../arm-none-eabi/lib/armv7-m/libm.a(lib_a-sf_fmin.o)
 .debug_frame   0x000036b4       0x20 /home/dexheimere/gcc-arm-none-eabi-5_4-2016q2/bin/../lib/gcc/arm-none-eabi/5.4.1/../../../../arm-none-eabi/lib/armv7-m/libm.a(lib_a-sf_fpclassify.o)
 .debug_frame   0x000036d4       0x3c /home/dexheimere/gcc-arm-none-eabi-5_4-2016q2/bin/../lib/gcc/arm-none-eabi/5.4.1/../../../../arm-none-eabi/lib/armv7-m/libm.a(lib_a-wf_sqrt.o)
 .debug_frame   0x00003710       0x2c /home/dexheimere/gcc-arm-none-eabi-5_4-2016q2/bin/../lib/gcc/arm-none-eabi/5.4.1/../../../../arm-none-eabi/lib/armv7-m/libm.a(lib_a-ef_sqrt.o)
 .debug_frame   0x0000373c       0x20 /home/dexheimere/gcc-arm-none-eabi-5_4-2016q2/bin/../lib/gcc/arm-none-eabi/5.4.1/../../../../arm-none-eabi/lib/armv7-m/libm.a(lib_a-s_matherr.o)
 .debug_frame   0x0000375c       0x2c /home/dexheimere/gcc-arm-none-eabi-5_4-2016q2/bin/../lib/gcc/arm-none-eabi/5.4.1/armv7-m/libgcc.a(_aeabi_uldivmod.o)
 .debug_frame   0x00003788       0x38 /home/dexheimere/gcc-arm-none-eabi-5_4-2016q2/bin/../lib/gcc/arm-none-eabi/5.4.1/armv7-m/libgcc.a(_udivmoddi4.o)
